
crackme.exe:	file format coff-i386


Disassembly of section .text:

00401000 <.text>:
  401000: 83 ec 1c                     	subl	$28, %esp
  401003: 8b 44 24 20                  	movl	32(%esp), %eax
  401007: 8b 00                        	movl	(%eax), %eax
  401009: 8b 00                        	movl	(%eax), %eax
  40100b: 3d 93 00 00 c0               	cmpl	$3221225619, %eax
  401010: 74 1b                        	je	0x40102d <.text+0x2d>
  401012: 77 4c                        	ja	0x401060 <.text+0x60>
  401014: 3d 1d 00 00 c0               	cmpl	$3221225501, %eax
  401019: 0f 84 cc 00 00 00            	je	0x4010eb <.text+0xeb>
  40101f: 76 7f                        	jbe	0x4010a0 <.text+0xa0>
  401021: 05 73 ff ff 3f               	addl	$1073741683, %eax
  401026: 31 d2                        	xorl	%edx, %edx
  401028: 83 f8 04                     	cmpl	$4, %eax
  40102b: 77 27                        	ja	0x401054 <.text+0x54>
  40102d: c7 44 24 04 00 00 00 00      	movl	$0, 4(%esp)
  401035: c7 04 24 08 00 00 00         	movl	$8, (%esp)
  40103c: e8 5b 2e 00 00               	calll	0x403e9c <_signal>
  401041: 83 f8 01                     	cmpl	$1, %eax
  401044: 0f 84 d6 00 00 00            	je	0x401120 <.text+0x120>
  40104a: 85 c0                        	testl	%eax, %eax
  40104c: 0f 85 fe 00 00 00            	jne	0x401150 <.text+0x150>
  401052: 31 d2                        	xorl	%edx, %edx
  401054: 89 d0                        	movl	%edx, %eax
  401056: 83 c4 1c                     	addl	$28, %esp
  401059: c2 04 00                     	retl	$4
  40105c: 8d 74 26 00                  	leal	(%esi,%eiz), %esi
  401060: 3d 94 00 00 c0               	cmpl	$3221225620, %eax
  401065: 75 79                        	jne	0x4010e0 <.text+0xe0>
  401067: c7 44 24 04 00 00 00 00      	movl	$0, 4(%esp)
  40106f: c7 04 24 08 00 00 00         	movl	$8, (%esp)
  401076: e8 21 2e 00 00               	calll	0x403e9c <_signal>
  40107b: 83 f8 01                     	cmpl	$1, %eax
  40107e: 75 ca                        	jne	0x40104a <.text+0x4a>
  401080: c7 44 24 04 01 00 00 00      	movl	$1, 4(%esp)
  401088: c7 04 24 08 00 00 00         	movl	$8, (%esp)
  40108f: e8 08 2e 00 00               	calll	0x403e9c <_signal>
  401094: ba ff ff ff ff               	movl	$4294967295, %edx
  401099: eb b9                        	jmp	0x401054 <.text+0x54>
  40109b: 8d 74 26 00                  	leal	(%esi,%eiz), %esi
  40109f: 90                           	nop
  4010a0: 3d 05 00 00 c0               	cmpl	$3221225477, %eax
  4010a5: 75 ab                        	jne	0x401052 <.text+0x52>
  4010a7: c7 44 24 04 00 00 00 00      	movl	$0, 4(%esp)
  4010af: c7 04 24 0b 00 00 00         	movl	$11, (%esp)
  4010b6: e8 e1 2d 00 00               	calll	0x403e9c <_signal>
  4010bb: 83 f8 01                     	cmpl	$1, %eax
  4010be: 0f 84 9f 00 00 00            	je	0x401163 <.text+0x163>
  4010c4: 85 c0                        	testl	%eax, %eax
  4010c6: 74 8a                        	je	0x401052 <.text+0x52>
  4010c8: c7 04 24 0b 00 00 00         	movl	$11, (%esp)
  4010cf: ff d0                        	calll	*%eax
  4010d1: ba ff ff ff ff               	movl	$4294967295, %edx
  4010d6: e9 79 ff ff ff               	jmp	0x401054 <.text+0x54>
  4010db: 8d 74 26 00                  	leal	(%esi,%eiz), %esi
  4010df: 90                           	nop
  4010e0: 3d 96 00 00 c0               	cmpl	$3221225622, %eax
  4010e5: 0f 85 67 ff ff ff            	jne	0x401052 <.text+0x52>
  4010eb: c7 44 24 04 00 00 00 00      	movl	$0, 4(%esp)
  4010f3: c7 04 24 04 00 00 00         	movl	$4, (%esp)
  4010fa: e8 9d 2d 00 00               	calll	0x403e9c <_signal>
  4010ff: 83 f8 01                     	cmpl	$1, %eax
  401102: 74 7b                        	je	0x40117f <.text+0x17f>
  401104: 85 c0                        	testl	%eax, %eax
  401106: 0f 84 46 ff ff ff            	je	0x401052 <.text+0x52>
  40110c: c7 04 24 04 00 00 00         	movl	$4, (%esp)
  401113: ff d0                        	calll	*%eax
  401115: ba ff ff ff ff               	movl	$4294967295, %edx
  40111a: e9 35 ff ff ff               	jmp	0x401054 <.text+0x54>
  40111f: 90                           	nop
  401120: c7 44 24 04 01 00 00 00      	movl	$1, 4(%esp)
  401128: c7 04 24 08 00 00 00         	movl	$8, (%esp)
  40112f: e8 68 2d 00 00               	calll	0x403e9c <_signal>
  401134: c7 04 24 00 00 00 00         	movl	$0, (%esp)
  40113b: e8 a0 0f 00 00               	calll	0x4020e0 <_fesetenv>
  401140: ba ff ff ff ff               	movl	$4294967295, %edx
  401145: e9 0a ff ff ff               	jmp	0x401054 <.text+0x54>
  40114a: 8d b6 00 00 00 00            	leal	(%esi), %esi
  401150: c7 04 24 08 00 00 00         	movl	$8, (%esp)
  401157: ff d0                        	calll	*%eax
  401159: ba ff ff ff ff               	movl	$4294967295, %edx
  40115e: e9 f1 fe ff ff               	jmp	0x401054 <.text+0x54>
  401163: c7 44 24 04 01 00 00 00      	movl	$1, 4(%esp)
  40116b: c7 04 24 0b 00 00 00         	movl	$11, (%esp)
  401172: e8 25 2d 00 00               	calll	0x403e9c <_signal>
  401177: 83 ca ff                     	orl	$-1, %edx
  40117a: e9 d5 fe ff ff               	jmp	0x401054 <.text+0x54>
  40117f: c7 44 24 04 01 00 00 00      	movl	$1, 4(%esp)
  401187: c7 04 24 04 00 00 00         	movl	$4, (%esp)
  40118e: e8 09 2d 00 00               	calll	0x403e9c <_signal>
  401193: 83 ca ff                     	orl	$-1, %edx
  401196: e9 b9 fe ff ff               	jmp	0x401054 <.text+0x54>
  40119b: 8d 74 26 00                  	leal	(%esi,%eiz), %esi
  40119f: 90                           	nop
  4011a0: 53                           	pushl	%ebx
  4011a1: 83 ec 18                     	subl	$24, %esp
  4011a4: a1 14 62 40 00               	movl	4219412, %eax
  4011a9: 85 c0                        	testl	%eax, %eax
  4011ab: 74 1c                        	je	0x4011c9 <.text+0x1c9>
  4011ad: c7 44 24 08 00 00 00 00      	movl	$0, 8(%esp)
  4011b5: c7 44 24 04 02 00 00 00      	movl	$2, 4(%esp)
  4011bd: c7 04 24 00 00 00 00         	movl	$0, (%esp)
  4011c4: ff d0                        	calll	*%eax
  4011c6: 83 ec 0c                     	subl	$12, %esp
  4011c9: c7 04 24 00 10 40 00         	movl	$4198400, (%esp)
  4011d0: e8 87 2d 00 00               	calll	0x403f5c <_SetUnhandledExceptionFilter@4>
  4011d5: 83 ec 04                     	subl	$4, %esp
  4011d8: e8 c3 06 00 00               	calll	0x4018a0 <___cpu_features_init>
  4011dd: a1 08 50 40 00               	movl	4214792, %eax
  4011e2: 89 04 24                     	movl	%eax, (%esp)
  4011e5: e8 f6 0e 00 00               	calll	0x4020e0 <_fesetenv>
  4011ea: e8 11 03 00 00               	calll	0x401500 <__setargv>
  4011ef: a1 20 80 40 00               	movl	4227104, %eax
  4011f4: 85 c0                        	testl	%eax, %eax
  4011f6: 75 4a                        	jne	0x401242 <.text+0x242>
  4011f8: e8 2f 2d 00 00               	calll	0x403f2c <___p__fmode>
  4011fd: 8b 15 0c 50 40 00            	movl	4214796, %edx
  401203: 89 10                        	movl	%edx, (%eax)
  401205: e8 e6 0c 00 00               	calll	0x401ef0 <__pei386_runtime_relocator>
  40120a: 83 e4 f0                     	andl	$-16, %esp
  40120d: e8 3e 08 00 00               	calll	0x401a50 <___main>
  401212: e8 1d 2d 00 00               	calll	0x403f34 <___p__environ>
  401217: 8b 00                        	movl	(%eax), %eax
  401219: 89 44 24 08                  	movl	%eax, 8(%esp)
  40121d: a1 00 80 40 00               	movl	4227072, %eax
  401222: 89 44 24 04                  	movl	%eax, 4(%esp)
  401226: a1 04 80 40 00               	movl	4227076, %eax
  40122b: 89 04 24                     	movl	%eax, (%esp)
  40122e: e8 dd 01 00 00               	calll	0x401410 <_main>
  401233: 89 c3                        	movl	%eax, %ebx
  401235: e8 ea 2c 00 00               	calll	0x403f24 <__cexit>
  40123a: 89 1c 24                     	movl	%ebx, (%esp)
  40123d: e8 7a 2d 00 00               	calll	0x403fbc <_ExitProcess@4>
  401242: 8b 1d b8 91 40 00            	movl	4231608, %ebx
  401248: 89 44 24 04                  	movl	%eax, 4(%esp)
  40124c: a3 0c 50 40 00               	movl	%eax, 4214796
  401251: 8b 43 10                     	movl	16(%ebx), %eax
  401254: 89 04 24                     	movl	%eax, (%esp)
  401257: e8 a0 2c 00 00               	calll	0x403efc <__setmode>
  40125c: a1 20 80 40 00               	movl	4227104, %eax
  401261: 89 44 24 04                  	movl	%eax, 4(%esp)
  401265: 8b 43 30                     	movl	48(%ebx), %eax
  401268: 89 04 24                     	movl	%eax, (%esp)
  40126b: e8 8c 2c 00 00               	calll	0x403efc <__setmode>
  401270: a1 20 80 40 00               	movl	4227104, %eax
  401275: 89 44 24 04                  	movl	%eax, 4(%esp)
  401279: 8b 43 50                     	movl	80(%ebx), %eax
  40127c: 89 04 24                     	movl	%eax, (%esp)
  40127f: e8 78 2c 00 00               	calll	0x403efc <__setmode>
  401284: e9 6f ff ff ff               	jmp	0x4011f8 <.text+0x1f8>
  401289: 8d b4 26 00 00 00 00         	leal	(%esi,%eiz), %esi

00401290 <__mingw32_init_mainargs>:
  401290: 83 ec 3c                     	subl	$60, %esp
  401293: 8d 44 24 2c                  	leal	44(%esp), %eax
  401297: c7 44 24 04 00 80 40 00      	movl	$4227072, 4(%esp)
  40129f: 89 44 24 10                  	movl	%eax, 16(%esp)
  4012a3: a1 04 50 40 00               	movl	4214788, %eax
  4012a8: c7 04 24 04 80 40 00         	movl	$4227076, (%esp)
  4012af: 83 e0 01                     	andl	$1, %eax
  4012b2: c7 44 24 2c 00 00 00 00      	movl	$0, 44(%esp)
  4012ba: 89 44 24 0c                  	movl	%eax, 12(%esp)
  4012be: 8d 44 24 28                  	leal	40(%esp), %eax
  4012c2: 89 44 24 08                  	movl	%eax, 8(%esp)
  4012c6: e8 71 2c 00 00               	calll	0x403f3c <___getmainargs>
  4012cb: 83 c4 3c                     	addl	$60, %esp
  4012ce: c3                           	retl
  4012cf: 90                           	nop

004012d0 <_mainCRTStartup>:
  4012d0: 83 ec 1c                     	subl	$28, %esp
  4012d3: c7 04 24 01 00 00 00         	movl	$1, (%esp)
  4012da: ff 15 a4 91 40 00            	calll	*4231588
  4012e0: e8 bb fe ff ff               	calll	0x4011a0 <.text+0x1a0>
  4012e5: 8d b4 26 00 00 00 00         	leal	(%esi,%eiz), %esi
  4012ec: 8d 74 26 00                  	leal	(%esi,%eiz), %esi

004012f0 <_WinMainCRTStartup>:
  4012f0: 83 ec 1c                     	subl	$28, %esp
  4012f3: c7 04 24 02 00 00 00         	movl	$2, (%esp)
  4012fa: ff 15 a4 91 40 00            	calll	*4231588
  401300: e8 9b fe ff ff               	calll	0x4011a0 <.text+0x1a0>
  401305: 8d b4 26 00 00 00 00         	leal	(%esi,%eiz), %esi
  40130c: 8d 74 26 00                  	leal	(%esi,%eiz), %esi

00401310 <_atexit>:
  401310: ff 25 d4 91 40 00            	jmpl	*4231636
  401316: 8d b4 26 00 00 00 00         	leal	(%esi,%eiz), %esi
  40131d: 8d 76 00                     	leal	(%esi), %esi

00401320 <__onexit>:
  401320: ff 25 c4 91 40 00            	jmpl	*4231620
  401326: 90                           	nop
  401327: 90                           	nop
  401328: 90                           	nop
  401329: 90                           	nop
  40132a: 90                           	nop
  40132b: 90                           	nop
  40132c: 90                           	nop
  40132d: 90                           	nop
  40132e: 90                           	nop
  40132f: 90                           	nop

00401330 <___gcc_register_frame>:
  401330: 55                           	pushl	%ebp
  401331: 89 e5                        	movl	%esp, %ebp
  401333: 56                           	pushl	%esi
  401334: 53                           	pushl	%ebx
  401335: 83 ec 10                     	subl	$16, %esp
  401338: c7 04 24 00 60 40 00         	movl	$4218880, (%esp)
  40133f: e8 40 2c 00 00               	calll	0x403f84 <_GetModuleHandleA@4>
  401344: 83 ec 04                     	subl	$4, %esp
  401347: 85 c0                        	testl	%eax, %eax
  401349: 74 75                        	je	0x4013c0 <___gcc_register_frame+0x90>
  40134b: c7 04 24 00 60 40 00         	movl	$4218880, (%esp)
  401352: 89 c3                        	movl	%eax, %ebx
  401354: e8 0b 2c 00 00               	calll	0x403f64 <_LoadLibraryA@4>
  401359: 83 ec 04                     	subl	$4, %esp
  40135c: a3 70 80 40 00               	movl	%eax, 4227184
  401361: c7 44 24 04 13 60 40 00      	movl	$4218899, 4(%esp)
  401369: 89 1c 24                     	movl	%ebx, (%esp)
  40136c: e8 0b 2c 00 00               	calll	0x403f7c <_GetProcAddress@8>
  401371: 83 ec 08                     	subl	$8, %esp
  401374: 89 c6                        	movl	%eax, %esi
  401376: c7 44 24 04 29 60 40 00      	movl	$4218921, 4(%esp)
  40137e: 89 1c 24                     	movl	%ebx, (%esp)
  401381: e8 f6 2b 00 00               	calll	0x403f7c <_GetProcAddress@8>
  401386: a3 00 50 40 00               	movl	%eax, 4214784
  40138b: 83 ec 08                     	subl	$8, %esp
  40138e: 85 f6                        	testl	%esi, %esi
  401390: 74 11                        	je	0x4013a3 <___gcc_register_frame+0x73>
  401392: c7 44 24 04 08 80 40 00      	movl	$4227080, 4(%esp)
  40139a: c7 04 24 c8 70 40 00         	movl	$4223176, (%esp)
  4013a1: ff d6                        	calll	*%esi
  4013a3: c7 04 24 e0 13 40 00         	movl	$4199392, (%esp)
  4013aa: e8 61 ff ff ff               	calll	0x401310 <_atexit>
  4013af: 8d 65 f8                     	leal	-8(%ebp), %esp
  4013b2: 5b                           	popl	%ebx
  4013b3: 5e                           	popl	%esi
  4013b4: 5d                           	popl	%ebp
  4013b5: c3                           	retl
  4013b6: 8d b4 26 00 00 00 00         	leal	(%esi,%eiz), %esi
  4013bd: 8d 76 00                     	leal	(%esi), %esi
  4013c0: c7 05 00 50 40 00 00 00 00 00	movl	$0, 4214784
  4013ca: be 00 00 00 00               	movl	$0, %esi
  4013cf: eb bd                        	jmp	0x40138e <___gcc_register_frame+0x5e>
  4013d1: 8d b4 26 00 00 00 00         	leal	(%esi,%eiz), %esi
  4013d8: 8d b4 26 00 00 00 00         	leal	(%esi,%eiz), %esi
  4013df: 90                           	nop

004013e0 <___gcc_deregister_frame>:
  4013e0: 55                           	pushl	%ebp
  4013e1: 89 e5                        	movl	%esp, %ebp
  4013e3: 83 ec 18                     	subl	$24, %esp
  4013e6: a1 00 50 40 00               	movl	4214784, %eax
  4013eb: 85 c0                        	testl	%eax, %eax
  4013ed: 74 09                        	je	0x4013f8 <___gcc_deregister_frame+0x18>
  4013ef: c7 04 24 c8 70 40 00         	movl	$4223176, (%esp)
  4013f6: ff d0                        	calll	*%eax
  4013f8: a1 70 80 40 00               	movl	4227184, %eax
  4013fd: 85 c0                        	testl	%eax, %eax
  4013ff: 74 0b                        	je	0x40140c <___gcc_deregister_frame+0x2c>
  401401: 89 04 24                     	movl	%eax, (%esp)
  401404: e8 93 2b 00 00               	calll	0x403f9c <_FreeLibrary@4>
  401409: 83 ec 04                     	subl	$4, %esp
  40140c: c9                           	leave
  40140d: c3                           	retl
  40140e: 90                           	nop
  40140f: 90                           	nop

00401410 <_main>:
  401410: 55                           	pushl	%ebp
  401411: 89 e5                        	movl	%esp, %ebp
  401413: 83 e4 f0                     	andl	$-16, %esp
  401416: 83 ec 50                     	subl	$80, %esp
  401419: e8 32 06 00 00               	calll	0x401a50 <___main>
  40141e: c7 44 24 38 70 61 73 73      	movl	$1936941424, 56(%esp)
  401426: c7 44 24 3c 77 6f 72 64      	movl	$1685221239, 60(%esp)
  40142e: c7 44 24 40 31 32 33 00      	movl	$3355185, 64(%esp)
  401436: c7 04 24 44 60 40 00         	movl	$4218948, (%esp)
  40143d: e8 72 2a 00 00               	calll	0x403eb4 <_puts>
  401442: c7 44 24 4c 01 00 00 00      	movl	$1, 76(%esp)
  40144a: e9 9e 00 00 00               	jmp	0x4014ed <_main+0xdd>
  40144f: c7 04 24 5c 60 40 00         	movl	$4218972, (%esp)
  401456: e8 59 2a 00 00               	calll	0x403eb4 <_puts>
  40145b: c7 04 24 97 60 40 00         	movl	$4219031, (%esp)
  401462: e8 55 2a 00 00               	calll	0x403ebc <_printf>
  401467: 8d 44 24 1a                  	leal	26(%esp), %eax
  40146b: 89 44 24 04                  	movl	%eax, 4(%esp)
  40146f: c7 04 24 ab 60 40 00         	movl	$4219051, (%esp)
  401476: e8 31 2a 00 00               	calll	0x403eac <_scanf>
  40147b: 8d 44 24 1a                  	leal	26(%esp), %eax
  40147f: 89 44 24 04                  	movl	%eax, 4(%esp)
  401483: 8d 44 24 38                  	leal	56(%esp), %eax
  401487: 89 04 24                     	movl	%eax, (%esp)
  40148a: e8 05 2a 00 00               	calll	0x403e94 <_strcmp>
  40148f: 89 44 24 48                  	movl	%eax, 72(%esp)
  401493: 83 7c 24 48 00               	cmpl	$0, 72(%esp)
  401498: 75 0e                        	jne	0x4014a8 <_main+0x98>
  40149a: c7 04 24 b0 60 40 00         	movl	$4219056, (%esp)
  4014a1: e8 0e 2a 00 00               	calll	0x403eb4 <_puts>
  4014a6: eb 50                        	jmp	0x4014f8 <_main+0xe8>
  4014a8: c7 04 24 d2 60 40 00         	movl	$4219090, (%esp)
  4014af: e8 00 2a 00 00               	calll	0x403eb4 <_puts>
  4014b4: b8 05 00 00 00               	movl	$5, %eax
  4014b9: 2b 44 24 4c                  	subl	76(%esp), %eax
  4014bd: 89 44 24 44                  	movl	%eax, 68(%esp)
  4014c1: 8b 44 24 44                  	movl	68(%esp), %eax
  4014c5: 89 44 24 04                  	movl	%eax, 4(%esp)
  4014c9: c7 04 24 df 60 40 00         	movl	$4219103, (%esp)
  4014d0: e8 e7 29 00 00               	calll	0x403ebc <_printf>
  4014d5: 83 7c 24 44 00               	cmpl	$0, 68(%esp)
  4014da: 75 0c                        	jne	0x4014e8 <_main+0xd8>
  4014dc: c7 04 24 f0 60 40 00         	movl	$4219120, (%esp)
  4014e3: e8 d4 29 00 00               	calll	0x403ebc <_printf>
  4014e8: 83 44 24 4c 01               	addl	$1, 76(%esp)
  4014ed: 83 7c 24 4c 05               	cmpl	$5, 76(%esp)
  4014f2: 0f 8e 57 ff ff ff            	jle	0x40144f <_main+0x3f>
  4014f8: b8 00 00 00 00               	movl	$0, %eax
  4014fd: c9                           	leave
  4014fe: c3                           	retl
  4014ff: 90                           	nop

00401500 <__setargv>:
  401500: 55                           	pushl	%ebp
  401501: 89 e5                        	movl	%esp, %ebp
  401503: 57                           	pushl	%edi
  401504: 56                           	pushl	%esi
  401505: 53                           	pushl	%ebx
  401506: 83 ec 4c                     	subl	$76, %esp
  401509: f6 05 04 50 40 00 02         	testb	$2, 4214788
  401510: 75 0e                        	jne	0x401520 <__setargv+0x20>
  401512: e8 79 fd ff ff               	calll	0x401290 <__mingw32_init_mainargs>
  401517: 8d 65 f4                     	leal	-12(%ebp), %esp
  40151a: 5b                           	popl	%ebx
  40151b: 5e                           	popl	%esi
  40151c: 5f                           	popl	%edi
  40151d: 5d                           	popl	%ebp
  40151e: c3                           	retl
  40151f: 90                           	nop
  401520: e8 6f 2a 00 00               	calll	0x403f94 <_GetCommandLineA@0>
  401525: 89 65 c0                     	movl	%esp, -64(%ebp)
  401528: 89 04 24                     	movl	%eax, (%esp)
  40152b: 89 c3                        	movl	%eax, %ebx
  40152d: e8 52 29 00 00               	calll	0x403e84 <_strlen>
  401532: 8d 44 00 11                  	leal	17(%eax,%eax), %eax
  401536: c1 e8 04                     	shrl	$4, %eax
  401539: c1 e0 04                     	shll	$4, %eax
  40153c: e8 ef 28 00 00               	calll	0x403e30 <___chkstk_ms>
  401541: 29 c4                        	subl	%eax, %esp
  401543: a1 04 50 40 00               	movl	4214788, %eax
  401548: c7 45 e4 00 00 00 00         	movl	$0, -28(%ebp)
  40154f: 0f be 3b                     	movsbl	(%ebx), %edi
  401552: 8d 74 24 10                  	leal	16(%esp), %esi
  401556: 25 00 44 00 00               	andl	$17408, %eax
  40155b: 89 75 c8                     	movl	%esi, -56(%ebp)
  40155e: 83 c8 10                     	orl	$16, %eax
  401561: 89 45 c4                     	movl	%eax, -60(%ebp)
  401564: 8d 43 01                     	leal	1(%ebx), %eax
  401567: 89 fb                        	movl	%edi, %ebx
  401569: 89 45 d4                     	movl	%eax, -44(%ebp)
  40156c: 85 ff                        	testl	%edi, %edi
  40156e: 0f 84 cc 00 00 00            	je	0x401640 <__setargv+0x140>
  401574: c7 45 cc 00 00 00 00         	movl	$0, -52(%ebp)
  40157b: 89 f0                        	movl	%esi, %eax
  40157d: 31 d2                        	xorl	%edx, %edx
  40157f: c7 45 d0 00 00 00 00         	movl	$0, -48(%ebp)
  401586: 8d b4 26 00 00 00 00         	leal	(%esi,%eiz), %esi
  40158d: 8d 76 00                     	leal	(%esi), %esi
  401590: 80 fb 3f                     	cmpb	$63, %bl
  401593: 0f 8f 57 02 00 00            	jg	0x4017f0 <__setargv+0x2f0>
  401599: 80 fb 21                     	cmpb	$33, %bl
  40159c: 0f 8f 5e 01 00 00            	jg	0x401700 <__setargv+0x200>
  4015a2: 8d 34 10                     	leal	(%eax,%edx), %esi
  4015a5: 85 d2                        	testl	%edx, %edx
  4015a7: 0f 84 d2 02 00 00            	je	0x40187f <__setargv+0x37f>
  4015ad: 8d 76 00                     	leal	(%esi), %esi
  4015b0: 83 c0 01                     	addl	$1, %eax
  4015b3: c6 40 ff 5c                  	movb	$92, -1(%eax)
  4015b7: 39 f0                        	cmpl	%esi, %eax
  4015b9: 75 f5                        	jne	0x4015b0 <__setargv+0xb0>
  4015bb: 8b 4d d0                     	movl	-48(%ebp), %ecx
  4015be: 85 c9                        	testl	%ecx, %ecx
  4015c0: 0f 85 c2 00 00 00            	jne	0x401688 <__setargv+0x188>
  4015c6: a1 98 91 40 00               	movl	4231576, %eax
  4015cb: 83 38 01                     	cmpl	$1, (%eax)
  4015ce: 0f 85 8c 00 00 00            	jne	0x401660 <__setargv+0x160>
  4015d4: a1 c8 91 40 00               	movl	4231624, %eax
  4015d9: 8b 00                        	movl	(%eax), %eax
  4015db: f6 04 78 40                  	testb	$64, (%eax,%edi,2)
  4015df: 0f 84 93 00 00 00            	je	0x401678 <__setargv+0x178>
  4015e5: 39 75 c8                     	cmpl	%esi, -56(%ebp)
  4015e8: 0f 82 d2 00 00 00            	jb	0x4016c0 <__setargv+0x1c0>
  4015ee: 8b 55 cc                     	movl	-52(%ebp), %edx
  4015f1: 85 d2                        	testl	%edx, %edx
  4015f3: 0f 85 c7 00 00 00            	jne	0x4016c0 <__setargv+0x1c0>
  4015f9: c7 45 cc 00 00 00 00         	movl	$0, -52(%ebp)
  401600: 89 f0                        	movl	%esi, %eax
  401602: 31 d2                        	xorl	%edx, %edx
  401604: e9 86 00 00 00               	jmp	0x40168f <__setargv+0x18f>
  401609: 89 c2                        	movl	%eax, %edx
  40160b: 8d 74 26 00                  	leal	(%esi,%eiz), %esi
  40160f: 90                           	nop
  401610: 39 55 c8                     	cmpl	%edx, -56(%ebp)
  401613: 72 07                        	jb	0x40161c <__setargv+0x11c>
  401615: 8b 45 cc                     	movl	-52(%ebp), %eax
  401618: 85 c0                        	testl	%eax, %eax
  40161a: 74 24                        	je	0x401640 <__setargv+0x140>
  40161c: 8d 45 d8                     	leal	-40(%ebp), %eax
  40161f: c6 02 00                     	movb	$0, (%edx)
  401622: 89 44 24 0c                  	movl	%eax, 12(%esp)
  401626: c7 44 24 08 00 00 00 00      	movl	$0, 8(%esp)
  40162e: 8b 45 c4                     	movl	-60(%ebp), %eax
  401631: 89 44 24 04                  	movl	%eax, 4(%esp)
  401635: 8b 45 c8                     	movl	-56(%ebp), %eax
  401638: 89 04 24                     	movl	%eax, (%esp)
  40163b: e8 f0 1a 00 00               	calll	0x403130 <___mingw_glob>
  401640: 8b 45 dc                     	movl	-36(%ebp), %eax
  401643: a3 04 80 40 00               	movl	%eax, 4227076
  401648: 8b 45 e0                     	movl	-32(%ebp), %eax
  40164b: a3 00 80 40 00               	movl	%eax, 4227072
  401650: 8b 65 c0                     	movl	-64(%ebp), %esp
  401653: 8d 65 f4                     	leal	-12(%ebp), %esp
  401656: 5b                           	popl	%ebx
  401657: 5e                           	popl	%esi
  401658: 5f                           	popl	%edi
  401659: 5d                           	popl	%ebp
  40165a: c3                           	retl
  40165b: 8d 74 26 00                  	leal	(%esi,%eiz), %esi
  40165f: 90                           	nop
  401660: c7 44 24 04 40 00 00 00      	movl	$64, 4(%esp)
  401668: 89 3c 24                     	movl	%edi, (%esp)
  40166b: e8 9c 28 00 00               	calll	0x403f0c <__isctype>
  401670: 85 c0                        	testl	%eax, %eax
  401672: 0f 85 6d ff ff ff            	jne	0x4015e5 <__setargv+0xe5>
  401678: 83 ff 09                     	cmpl	$9, %edi
  40167b: 0f 84 64 ff ff ff            	je	0x4015e5 <__setargv+0xe5>
  401681: 8d b4 26 00 00 00 00         	leal	(%esi,%eiz), %esi
  401688: 88 1e                        	movb	%bl, (%esi)
  40168a: 8d 46 01                     	leal	1(%esi), %eax
  40168d: 31 d2                        	xorl	%edx, %edx
  40168f: 83 45 d4 01                  	addl	$1, -44(%ebp)
  401693: 8b 7d d4                     	movl	-44(%ebp), %edi
  401696: 0f be 7f ff                  	movsbl	-1(%edi), %edi
  40169a: 89 fb                        	movl	%edi, %ebx
  40169c: 85 ff                        	testl	%edi, %edi
  40169e: 0f 85 ec fe ff ff            	jne	0x401590 <__setargv+0x90>
  4016a4: 85 d2                        	testl	%edx, %edx
  4016a6: 0f 84 5d ff ff ff            	je	0x401609 <__setargv+0x109>
  4016ac: 01 c2                        	addl	%eax, %edx
  4016ae: 66 90                        	nop
  4016b0: 83 c0 01                     	addl	$1, %eax
  4016b3: c6 40 ff 5c                  	movb	$92, -1(%eax)
  4016b7: 39 d0                        	cmpl	%edx, %eax
  4016b9: 75 f5                        	jne	0x4016b0 <__setargv+0x1b0>
  4016bb: e9 50 ff ff ff               	jmp	0x401610 <__setargv+0x110>
  4016c0: 8d 45 d8                     	leal	-40(%ebp), %eax
  4016c3: c6 06 00                     	movb	$0, (%esi)
  4016c6: 89 44 24 0c                  	movl	%eax, 12(%esp)
  4016ca: c7 44 24 08 00 00 00 00      	movl	$0, 8(%esp)
  4016d2: 8b 75 c4                     	movl	-60(%ebp), %esi
  4016d5: 89 74 24 04                  	movl	%esi, 4(%esp)
  4016d9: 8b 7d c8                     	movl	-56(%ebp), %edi
  4016dc: 83 ce 01                     	orl	$1, %esi
  4016df: 89 3c 24                     	movl	%edi, (%esp)
  4016e2: e8 49 1a 00 00               	calll	0x403130 <___mingw_glob>
  4016e7: 89 75 c4                     	movl	%esi, -60(%ebp)
  4016ea: 89 f8                        	movl	%edi, %eax
  4016ec: 31 d2                        	xorl	%edx, %edx
  4016ee: c7 45 cc 00 00 00 00         	movl	$0, -52(%ebp)
  4016f5: eb 98                        	jmp	0x40168f <__setargv+0x18f>
  4016f7: 8d b4 26 00 00 00 00         	leal	(%esi,%eiz), %esi
  4016fe: 66 90                        	nop
  401700: 8d 4b de                     	leal	-34(%ebx), %ecx
  401703: 80 f9 1d                     	cmpb	$29, %cl
  401706: 0f 87 96 fe ff ff            	ja	0x4015a2 <__setargv+0xa2>
  40170c: 0f b6 c9                     	movzbl	%cl, %ecx
  40170f: ff 24 8d 08 61 40 00         	jmpl	*4219144(,%ecx,4)
  401716: 8d 72 ff                     	leal	-1(%edx), %esi
  401719: 83 ff 7f                     	cmpl	$127, %edi
  40171c: 0f 94 c1                     	sete	%cl
  40171f: 89 cf                        	movl	%ecx, %edi
  401721: 8b 4d d0                     	movl	-48(%ebp), %ecx
  401724: 85 c9                        	testl	%ecx, %ecx
  401726: 0f 95 c1                     	setne	%cl
  401729: 09 f9                        	orl	%edi, %ecx
  40172b: 85 d2                        	testl	%edx, %edx
  40172d: 0f 84 53 01 00 00            	je	0x401886 <__setargv+0x386>
  401733: 8d 54 30 01                  	leal	1(%eax,%esi), %edx
  401737: 8d b4 26 00 00 00 00         	leal	(%esi,%eiz), %esi
  40173e: 66 90                        	nop
  401740: 83 c0 01                     	addl	$1, %eax
  401743: c6 40 ff 5c                  	movb	$92, -1(%eax)
  401747: 39 d0                        	cmpl	%edx, %eax
  401749: 75 f5                        	jne	0x401740 <__setargv+0x240>
  40174b: 89 d6                        	movl	%edx, %esi
  40174d: 84 c9                        	testb	%cl, %cl
  40174f: 0f 84 33 ff ff ff            	je	0x401688 <__setargv+0x188>
  401755: c6 02 7f                     	movb	$127, (%edx)
  401758: 8d 72 01                     	leal	1(%edx), %esi
  40175b: e9 28 ff ff ff               	jmp	0x401688 <__setargv+0x188>
  401760: f6 05 04 50 40 00 10         	testb	$16, 4214788
  401767: 0f 84 35 fe ff ff            	je	0x4015a2 <__setargv+0xa2>
  40176d: 89 d1                        	movl	%edx, %ecx
  40176f: d1 f9                        	sarl	%ecx
  401771: 0f 84 1d 01 00 00            	je	0x401894 <__setargv+0x394>
  401777: 01 c1                        	addl	%eax, %ecx
  401779: 8d b4 26 00 00 00 00         	leal	(%esi,%eiz), %esi
  401780: 83 c0 01                     	addl	$1, %eax
  401783: c6 40 ff 5c                  	movb	$92, -1(%eax)
  401787: 39 c8                        	cmpl	%ecx, %eax
  401789: 75 f5                        	jne	0x401780 <__setargv+0x280>
  40178b: 83 7d d0 22                  	cmpl	$34, -48(%ebp)
  40178f: 74 09                        	je	0x40179a <__setargv+0x29a>
  401791: 83 e2 01                     	andl	$1, %edx
  401794: 0f 84 d1 00 00 00            	je	0x40186b <__setargv+0x36b>
  40179a: c6 01 27                     	movb	$39, (%ecx)
  40179d: 8d 41 01                     	leal	1(%ecx), %eax
  4017a0: 31 d2                        	xorl	%edx, %edx
  4017a2: c7 45 cc 01 00 00 00         	movl	$1, -52(%ebp)
  4017a9: e9 e1 fe ff ff               	jmp	0x40168f <__setargv+0x18f>
  4017ae: 89 d1                        	movl	%edx, %ecx
  4017b0: d1 f9                        	sarl	%ecx
  4017b2: 0f 84 d5 00 00 00            	je	0x40188d <__setargv+0x38d>
  4017b8: 01 c1                        	addl	%eax, %ecx
  4017ba: 8d b6 00 00 00 00            	leal	(%esi), %esi
  4017c0: 83 c0 01                     	addl	$1, %eax
  4017c3: c6 40 ff 5c                  	movb	$92, -1(%eax)
  4017c7: 39 c8                        	cmpl	%ecx, %eax
  4017c9: 75 f5                        	jne	0x4017c0 <__setargv+0x2c0>
  4017cb: 83 7d d0 27                  	cmpl	$39, -48(%ebp)
  4017cf: 74 77                        	je	0x401848 <__setargv+0x348>
  4017d1: 83 e2 01                     	andl	$1, %edx
  4017d4: 75 72                        	jne	0x401848 <__setargv+0x348>
  4017d6: 83 75 d0 22                  	xorl	$34, -48(%ebp)
  4017da: 89 c8                        	movl	%ecx, %eax
  4017dc: 31 d2                        	xorl	%edx, %edx
  4017de: c7 45 cc 01 00 00 00         	movl	$1, -52(%ebp)
  4017e5: e9 a5 fe ff ff               	jmp	0x40168f <__setargv+0x18f>
  4017ea: 8d b6 00 00 00 00            	leal	(%esi), %esi
  4017f0: 80 fb 5a                     	cmpb	$90, %bl
  4017f3: 0f 8e a9 fd ff ff            	jle	0x4015a2 <__setargv+0xa2>
  4017f9: 8d 4b a5                     	leal	-91(%ebx), %ecx
  4017fc: 80 f9 24                     	cmpb	$36, %cl
  4017ff: 0f 87 9d fd ff ff            	ja	0x4015a2 <__setargv+0xa2>
  401805: 0f b6 c9                     	movzbl	%cl, %ecx
  401808: ff 24 8d 80 61 40 00         	jmpl	*4219264(,%ecx,4)
  40180f: 83 7d d0 27                  	cmpl	$39, -48(%ebp)
  401813: 74 4b                        	je	0x401860 <__setargv+0x360>
  401815: 83 c2 01                     	addl	$1, %edx
  401818: e9 72 fe ff ff               	jmp	0x40168f <__setargv+0x18f>
  40181d: 8d 72 ff                     	leal	-1(%edx), %esi
  401820: f6 05 04 50 40 00 20         	testb	$32, 4214788
  401827: 0f 85 ec fe ff ff            	jne	0x401719 <__setargv+0x219>
  40182d: b9 01 00 00 00               	movl	$1, %ecx
  401832: 85 d2                        	testl	%edx, %edx
  401834: 0f 85 f9 fe ff ff            	jne	0x401733 <__setargv+0x233>
  40183a: 89 c2                        	movl	%eax, %edx
  40183c: e9 14 ff ff ff               	jmp	0x401755 <__setargv+0x255>
  401841: 8d b4 26 00 00 00 00         	leal	(%esi,%eiz), %esi
  401848: c6 01 22                     	movb	$34, (%ecx)
  40184b: 8d 41 01                     	leal	1(%ecx), %eax
  40184e: 31 d2                        	xorl	%edx, %edx
  401850: c7 45 cc 01 00 00 00         	movl	$1, -52(%ebp)
  401857: e9 33 fe ff ff               	jmp	0x40168f <__setargv+0x18f>
  40185c: 8d 74 26 00                  	leal	(%esi,%eiz), %esi
  401860: c6 00 5c                     	movb	$92, (%eax)
  401863: 83 c0 01                     	addl	$1, %eax
  401866: e9 24 fe ff ff               	jmp	0x40168f <__setargv+0x18f>
  40186b: 83 75 d0 27                  	xorl	$39, -48(%ebp)
  40186f: 89 c8                        	movl	%ecx, %eax
  401871: 31 d2                        	xorl	%edx, %edx
  401873: c7 45 cc 01 00 00 00         	movl	$1, -52(%ebp)
  40187a: e9 10 fe ff ff               	jmp	0x40168f <__setargv+0x18f>
  40187f: 89 c6                        	movl	%eax, %esi
  401881: e9 35 fd ff ff               	jmp	0x4015bb <__setargv+0xbb>
  401886: 89 c2                        	movl	%eax, %edx
  401888: e9 be fe ff ff               	jmp	0x40174b <__setargv+0x24b>
  40188d: 89 c1                        	movl	%eax, %ecx
  40188f: e9 37 ff ff ff               	jmp	0x4017cb <__setargv+0x2cb>
  401894: 89 c1                        	movl	%eax, %ecx
  401896: e9 f0 fe ff ff               	jmp	0x40178b <__setargv+0x28b>
  40189b: 90                           	nop
  40189c: 90                           	nop
  40189d: 90                           	nop
  40189e: 90                           	nop
  40189f: 90                           	nop

004018a0 <___cpu_features_init>:
  4018a0: 9c                           	pushfl
  4018a1: 9c                           	pushfl
  4018a2: 58                           	popl	%eax
  4018a3: 89 c2                        	movl	%eax, %edx
  4018a5: 35 00 00 20 00               	xorl	$2097152, %eax
  4018aa: 50                           	pushl	%eax
  4018ab: 9d                           	popfl
  4018ac: 9c                           	pushfl
  4018ad: 58                           	popl	%eax
  4018ae: 9d                           	popfl
  4018af: 31 d0                        	xorl	%edx, %eax
  4018b1: a9 00 00 20 00               	testl	$2097152, %eax
  4018b6: 0f 84 e9 00 00 00            	je	0x4019a5 <___cpu_features_init+0x105>
  4018bc: 53                           	pushl	%ebx
  4018bd: 31 c0                        	xorl	%eax, %eax
  4018bf: 0f a2                        	cpuid
  4018c1: 85 c0                        	testl	%eax, %eax
  4018c3: 0f 84 db 00 00 00            	je	0x4019a4 <___cpu_features_init+0x104>
  4018c9: b8 01 00 00 00               	movl	$1, %eax
  4018ce: 0f a2                        	cpuid
  4018d0: 31 c0                        	xorl	%eax, %eax
  4018d2: f6 c6 01                     	testb	$1, %dh
  4018d5: 74 03                        	je	0x4018da <___cpu_features_init+0x3a>
  4018d7: 83 c8 01                     	orl	$1, %eax
  4018da: f6 c5 20                     	testb	$32, %ch
  4018dd: 74 05                        	je	0x4018e4 <___cpu_features_init+0x44>
  4018df: 0d 80 00 00 00               	orl	$128, %eax
  4018e4: f6 c6 80                     	testb	$-128, %dh
  4018e7: 74 03                        	je	0x4018ec <___cpu_features_init+0x4c>
  4018e9: 83 c8 02                     	orl	$2, %eax
  4018ec: f7 c2 00 00 80 00            	testl	$8388608, %edx
  4018f2: 74 03                        	je	0x4018f7 <___cpu_features_init+0x57>
  4018f4: 83 c8 04                     	orl	$4, %eax
  4018f7: f7 c2 00 00 00 01            	testl	$16777216, %edx
  4018fd: 74 6d                        	je	0x40196c <___cpu_features_init+0xcc>
  4018ff: 83 c8 08                     	orl	$8, %eax
  401902: 55                           	pushl	%ebp
  401903: 89 e5                        	movl	%esp, %ebp
  401905: 81 ec 00 02 00 00            	subl	$512, %esp
  40190b: 83 e4 f0                     	andl	$-16, %esp
  40190e: 0f ae 04 24                  	fxsave	(%esp)
  401912: 8b 9c 24 c8 00 00 00         	movl	200(%esp), %ebx
  401919: 81 b4 24 c8 00 00 00 de c0 13 00     	xorl	$1294558, 200(%esp)
  401924: 0f ae 0c 24                  	fxrstor	(%esp)
  401928: 89 9c 24 c8 00 00 00         	movl	%ebx, 200(%esp)
  40192f: 0f ae 04 24                  	fxsave	(%esp)
  401933: 87 9c 24 c8 00 00 00         	xchgl	%ebx, 200(%esp)
  40193a: 0f ae 0c 24                  	fxrstor	(%esp)
  40193e: 33 9c 24 c8 00 00 00         	xorl	200(%esp), %ebx
  401945: c9                           	leave
  401946: 81 fb de c0 13 00            	cmpl	$1294558, %ebx
  40194c: 75 1e                        	jne	0x40196c <___cpu_features_init+0xcc>
  40194e: f7 c2 00 00 00 02            	testl	$33554432, %edx
  401954: 74 03                        	je	0x401959 <___cpu_features_init+0xb9>
  401956: 83 c8 10                     	orl	$16, %eax
  401959: f7 c2 00 00 00 04            	testl	$67108864, %edx
  40195f: 74 03                        	je	0x401964 <___cpu_features_init+0xc4>
  401961: 83 c8 20                     	orl	$32, %eax
  401964: f6 c1 01                     	testb	$1, %cl
  401967: 74 03                        	je	0x40196c <___cpu_features_init+0xcc>
  401969: 83 c8 40                     	orl	$64, %eax
  40196c: a3 24 80 40 00               	movl	%eax, 4227108
  401971: b8 00 00 00 80               	movl	$2147483648, %eax
  401976: 0f a2                        	cpuid
  401978: 3d 00 00 00 80               	cmpl	$2147483648, %eax
  40197d: 76 25                        	jbe	0x4019a4 <___cpu_features_init+0x104>
  40197f: b8 01 00 00 80               	movl	$2147483649, %eax
  401984: 0f a2                        	cpuid
  401986: 31 c0                        	xorl	%eax, %eax
  401988: 85 d2                        	testl	%edx, %edx
  40198a: 79 05                        	jns	0x401991 <___cpu_features_init+0xf1>
  40198c: b8 00 01 00 00               	movl	$256, %eax
  401991: f7 c2 00 00 00 40            	testl	$1073741824, %edx
  401997: 74 05                        	je	0x40199e <___cpu_features_init+0xfe>
  401999: 0d 00 02 00 00               	orl	$512, %eax
  40199e: 09 05 24 80 40 00            	orl	%eax, 4227108
  4019a4: 5b                           	popl	%ebx
  4019a5: f3 c3                        	rep		retl
  4019a7: 90                           	nop
  4019a8: 90                           	nop
  4019a9: 90                           	nop
  4019aa: 90                           	nop
  4019ab: 90                           	nop
  4019ac: 90                           	nop
  4019ad: 90                           	nop
  4019ae: 90                           	nop
  4019af: 90                           	nop

004019b0 <___do_global_dtors>:
  4019b0: a1 10 50 40 00               	movl	4214800, %eax
  4019b5: 8b 00                        	movl	(%eax), %eax
  4019b7: 85 c0                        	testl	%eax, %eax
  4019b9: 74 25                        	je	0x4019e0 <___do_global_dtors+0x30>
  4019bb: 83 ec 0c                     	subl	$12, %esp
  4019be: 66 90                        	nop
  4019c0: ff d0                        	calll	*%eax
  4019c2: a1 10 50 40 00               	movl	4214800, %eax
  4019c7: 8d 50 04                     	leal	4(%eax), %edx
  4019ca: 8b 40 04                     	movl	4(%eax), %eax
  4019cd: 89 15 10 50 40 00            	movl	%edx, 4214800
  4019d3: 85 c0                        	testl	%eax, %eax
  4019d5: 75 e9                        	jne	0x4019c0 <___do_global_dtors+0x10>
  4019d7: 83 c4 0c                     	addl	$12, %esp
  4019da: c3                           	retl
  4019db: 8d 74 26 00                  	leal	(%esi,%eiz), %esi
  4019df: 90                           	nop
  4019e0: c3                           	retl
  4019e1: 8d b4 26 00 00 00 00         	leal	(%esi,%eiz), %esi
  4019e8: 8d b4 26 00 00 00 00         	leal	(%esi,%eiz), %esi
  4019ef: 90                           	nop

004019f0 <___do_global_ctors>:
  4019f0: 53                           	pushl	%ebx
  4019f1: 83 ec 18                     	subl	$24, %esp
  4019f4: 8b 1d f0 3f 40 00            	movl	4210672, %ebx
  4019fa: 83 fb ff                     	cmpl	$-1, %ebx
  4019fd: 74 29                        	je	0x401a28 <___do_global_ctors+0x38>
  4019ff: 85 db                        	testl	%ebx, %ebx
  401a01: 74 11                        	je	0x401a14 <___do_global_ctors+0x24>
  401a03: 8d 74 26 00                  	leal	(%esi,%eiz), %esi
  401a07: 90                           	nop
  401a08: ff 14 9d f0 3f 40 00         	calll	*4210672(,%ebx,4)
  401a0f: 83 eb 01                     	subl	$1, %ebx
  401a12: 75 f4                        	jne	0x401a08 <___do_global_ctors+0x18>
  401a14: c7 04 24 b0 19 40 00         	movl	$4200880, (%esp)
  401a1b: e8 f0 f8 ff ff               	calll	0x401310 <_atexit>
  401a20: 83 c4 18                     	addl	$24, %esp
  401a23: 5b                           	popl	%ebx
  401a24: c3                           	retl
  401a25: 8d 76 00                     	leal	(%esi), %esi
  401a28: 31 c0                        	xorl	%eax, %eax
  401a2a: 8d b6 00 00 00 00            	leal	(%esi), %esi
  401a30: 89 c3                        	movl	%eax, %ebx
  401a32: 83 c0 01                     	addl	$1, %eax
  401a35: 8b 14 85 f0 3f 40 00         	movl	4210672(,%eax,4), %edx
  401a3c: 85 d2                        	testl	%edx, %edx
  401a3e: 75 f0                        	jne	0x401a30 <___do_global_ctors+0x40>
  401a40: eb bd                        	jmp	0x4019ff <___do_global_ctors+0xf>
  401a42: 8d b4 26 00 00 00 00         	leal	(%esi,%eiz), %esi
  401a49: 8d b4 26 00 00 00 00         	leal	(%esi,%eiz), %esi

00401a50 <___main>:
  401a50: a1 28 80 40 00               	movl	4227112, %eax
  401a55: 85 c0                        	testl	%eax, %eax
  401a57: 74 07                        	je	0x401a60 <___main+0x10>
  401a59: c3                           	retl
  401a5a: 8d b6 00 00 00 00            	leal	(%esi), %esi
  401a60: c7 05 28 80 40 00 01 00 00 00	movl	$1, 4227112
  401a6a: eb 84                        	jmp	0x4019f0 <___do_global_ctors>
  401a6c: 90                           	nop
  401a6d: 90                           	nop
  401a6e: 90                           	nop
  401a6f: 90                           	nop

00401a70 <.text>:
  401a70: 83 ec 1c                     	subl	$28, %esp
  401a73: 8b 44 24 24                  	movl	36(%esp), %eax
  401a77: 83 f8 03                     	cmpl	$3, %eax
  401a7a: 74 14                        	je	0x401a90 <.text+0x20>
  401a7c: 85 c0                        	testl	%eax, %eax
  401a7e: 74 10                        	je	0x401a90 <.text+0x20>
  401a80: b8 01 00 00 00               	movl	$1, %eax
  401a85: 83 c4 1c                     	addl	$28, %esp
  401a88: c2 0c 00                     	retl	$12
  401a8b: 8d 74 26 00                  	leal	(%esi,%eiz), %esi
  401a8f: 90                           	nop
  401a90: 89 44 24 04                  	movl	%eax, 4(%esp)
  401a94: 8b 54 24 28                  	movl	40(%esp), %edx
  401a98: 8b 44 24 20                  	movl	32(%esp), %eax
  401a9c: 89 54 24 08                  	movl	%edx, 8(%esp)
  401aa0: 89 04 24                     	movl	%eax, (%esp)
  401aa3: e8 48 02 00 00               	calll	0x401cf0 <___mingw_TLScallback>
  401aa8: b8 01 00 00 00               	movl	$1, %eax
  401aad: 83 c4 1c                     	addl	$28, %esp
  401ab0: c2 0c 00                     	retl	$12
  401ab3: 8d b4 26 00 00 00 00         	leal	(%esi,%eiz), %esi
  401aba: 8d b6 00 00 00 00            	leal	(%esi), %esi

00401ac0 <___dyn_tls_init@12>:
  401ac0: 56                           	pushl	%esi
  401ac1: 53                           	pushl	%ebx
  401ac2: 83 ec 14                     	subl	$20, %esp
  401ac5: 83 3d 64 80 40 00 02         	cmpl	$2, 4227172
  401acc: 8b 44 24 24                  	movl	36(%esp), %eax
  401ad0: 74 0a                        	je	0x401adc <___dyn_tls_init@12+0x1c>
  401ad2: c7 05 64 80 40 00 02 00 00 00	movl	$2, 4227172
  401adc: 83 f8 02                     	cmpl	$2, %eax
  401adf: 74 17                        	je	0x401af8 <___dyn_tls_init@12+0x38>
  401ae1: 83 f8 01                     	cmpl	$1, %eax
  401ae4: 74 52                        	je	0x401b38 <___dyn_tls_init@12+0x78>
  401ae6: 83 c4 14                     	addl	$20, %esp
  401ae9: b8 01 00 00 00               	movl	$1, %eax
  401aee: 5b                           	popl	%ebx
  401aef: 5e                           	popl	%esi
  401af0: c2 0c 00                     	retl	$12
  401af3: 8d 74 26 00                  	leal	(%esi,%eiz), %esi
  401af7: 90                           	nop
  401af8: b8 14 a0 40 00               	movl	$4235284, %eax
  401afd: 2d 14 a0 40 00               	subl	$4235284, %eax
  401b02: 89 c6                        	movl	%eax, %esi
  401b04: c1 fe 02                     	sarl	$2, %esi
  401b07: 85 c0                        	testl	%eax, %eax
  401b09: 7e db                        	jle	0x401ae6 <___dyn_tls_init@12+0x26>
  401b0b: 31 db                        	xorl	%ebx, %ebx
  401b0d: 8d 76 00                     	leal	(%esi), %esi
  401b10: 8b 04 9d 14 a0 40 00         	movl	4235284(,%ebx,4), %eax
  401b17: 85 c0                        	testl	%eax, %eax
  401b19: 74 02                        	je	0x401b1d <___dyn_tls_init@12+0x5d>
  401b1b: ff d0                        	calll	*%eax
  401b1d: 83 c3 01                     	addl	$1, %ebx
  401b20: 39 de                        	cmpl	%ebx, %esi
  401b22: 7f ec                        	jg	0x401b10 <___dyn_tls_init@12+0x50>
  401b24: 83 c4 14                     	addl	$20, %esp
  401b27: b8 01 00 00 00               	movl	$1, %eax
  401b2c: 5b                           	popl	%ebx
  401b2d: 5e                           	popl	%esi
  401b2e: c2 0c 00                     	retl	$12
  401b31: 8d b4 26 00 00 00 00         	leal	(%esi,%eiz), %esi
  401b38: 8b 44 24 28                  	movl	40(%esp), %eax
  401b3c: c7 44 24 04 01 00 00 00      	movl	$1, 4(%esp)
  401b44: 89 44 24 08                  	movl	%eax, 8(%esp)
  401b48: 8b 44 24 20                  	movl	32(%esp), %eax
  401b4c: 89 04 24                     	movl	%eax, (%esp)
  401b4f: e8 9c 01 00 00               	calll	0x401cf0 <___mingw_TLScallback>
  401b54: 83 c4 14                     	addl	$20, %esp
  401b57: b8 01 00 00 00               	movl	$1, %eax
  401b5c: 5b                           	popl	%ebx
  401b5d: 5e                           	popl	%esi
  401b5e: c2 0c 00                     	retl	$12
  401b61: 8d b4 26 00 00 00 00         	leal	(%esi,%eiz), %esi
  401b68: 8d b4 26 00 00 00 00         	leal	(%esi,%eiz), %esi
  401b6f: 90                           	nop

00401b70 <___tlregdtor>:
  401b70: 31 c0                        	xorl	%eax, %eax
  401b72: c3                           	retl
  401b73: 90                           	nop
  401b74: 90                           	nop
  401b75: 90                           	nop
  401b76: 90                           	nop
  401b77: 90                           	nop
  401b78: 90                           	nop
  401b79: 90                           	nop
  401b7a: 90                           	nop
  401b7b: 90                           	nop
  401b7c: 90                           	nop
  401b7d: 90                           	nop
  401b7e: 90                           	nop
  401b7f: 90                           	nop

00401b80 <.text>:
  401b80: 56                           	pushl	%esi
  401b81: 53                           	pushl	%ebx
  401b82: 83 ec 14                     	subl	$20, %esp
  401b85: c7 04 24 44 80 40 00         	movl	$4227140, (%esp)
  401b8c: e8 33 24 00 00               	calll	0x403fc4 <_EnterCriticalSection@4>
  401b91: 8b 1d 3c 80 40 00            	movl	4227132, %ebx
  401b97: 83 ec 04                     	subl	$4, %esp
  401b9a: 85 db                        	testl	%ebx, %ebx
  401b9c: 74 2d                        	je	0x401bcb <.text+0x4b>
  401b9e: 66 90                        	nop
  401ba0: 8b 03                        	movl	(%ebx), %eax
  401ba2: 89 04 24                     	movl	%eax, (%esp)
  401ba5: e8 aa 23 00 00               	calll	0x403f54 <_TlsGetValue@4>
  401baa: 83 ec 04                     	subl	$4, %esp
  401bad: 89 c6                        	movl	%eax, %esi
  401baf: e8 d8 23 00 00               	calll	0x403f8c <_GetLastError@0>
  401bb4: 85 c0                        	testl	%eax, %eax
  401bb6: 75 0c                        	jne	0x401bc4 <.text+0x44>
  401bb8: 85 f6                        	testl	%esi, %esi
  401bba: 74 08                        	je	0x401bc4 <.text+0x44>
  401bbc: 8b 43 04                     	movl	4(%ebx), %eax
  401bbf: 89 34 24                     	movl	%esi, (%esp)
  401bc2: ff d0                        	calll	*%eax
  401bc4: 8b 5b 08                     	movl	8(%ebx), %ebx
  401bc7: 85 db                        	testl	%ebx, %ebx
  401bc9: 75 d5                        	jne	0x401ba0 <.text+0x20>
  401bcb: c7 04 24 44 80 40 00         	movl	$4227140, (%esp)
  401bd2: e8 95 23 00 00               	calll	0x403f6c <_LeaveCriticalSection@4>
  401bd7: 83 ec 04                     	subl	$4, %esp
  401bda: 83 c4 14                     	addl	$20, %esp
  401bdd: 5b                           	popl	%ebx
  401bde: 5e                           	popl	%esi
  401bdf: c3                           	retl

00401be0 <____w64_mingwthr_add_key_dtor>:
  401be0: a1 40 80 40 00               	movl	4227136, %eax
  401be5: 85 c0                        	testl	%eax, %eax
  401be7: 75 07                        	jne	0x401bf0 <____w64_mingwthr_add_key_dtor+0x10>
  401be9: c3                           	retl
  401bea: 8d b6 00 00 00 00            	leal	(%esi), %esi
  401bf0: 53                           	pushl	%ebx
  401bf1: 83 ec 18                     	subl	$24, %esp
  401bf4: c7 44 24 04 0c 00 00 00      	movl	$12, 4(%esp)
  401bfc: c7 04 24 01 00 00 00         	movl	$1, (%esp)
  401c03: e8 e4 22 00 00               	calll	0x403eec <_calloc>
  401c08: 89 c3                        	movl	%eax, %ebx
  401c0a: 85 c0                        	testl	%eax, %eax
  401c0c: 74 40                        	je	0x401c4e <____w64_mingwthr_add_key_dtor+0x6e>
  401c0e: 8b 44 24 20                  	movl	32(%esp), %eax
  401c12: c7 04 24 44 80 40 00         	movl	$4227140, (%esp)
  401c19: 89 03                        	movl	%eax, (%ebx)
  401c1b: 8b 44 24 24                  	movl	36(%esp), %eax
  401c1f: 89 43 04                     	movl	%eax, 4(%ebx)
  401c22: e8 9d 23 00 00               	calll	0x403fc4 <_EnterCriticalSection@4>
  401c27: a1 3c 80 40 00               	movl	4227132, %eax
  401c2c: 89 1d 3c 80 40 00            	movl	%ebx, 4227132
  401c32: 83 ec 04                     	subl	$4, %esp
  401c35: c7 04 24 44 80 40 00         	movl	$4227140, (%esp)
  401c3c: 89 43 08                     	movl	%eax, 8(%ebx)
  401c3f: e8 28 23 00 00               	calll	0x403f6c <_LeaveCriticalSection@4>
  401c44: 31 c0                        	xorl	%eax, %eax
  401c46: 83 ec 04                     	subl	$4, %esp
  401c49: 83 c4 18                     	addl	$24, %esp
  401c4c: 5b                           	popl	%ebx
  401c4d: c3                           	retl
  401c4e: 83 c8 ff                     	orl	$-1, %eax
  401c51: eb f6                        	jmp	0x401c49 <____w64_mingwthr_add_key_dtor+0x69>
  401c53: 8d b4 26 00 00 00 00         	leal	(%esi,%eiz), %esi
  401c5a: 8d b6 00 00 00 00            	leal	(%esi), %esi

00401c60 <____w64_mingwthr_remove_key_dtor>:
  401c60: 53                           	pushl	%ebx
  401c61: 83 ec 18                     	subl	$24, %esp
  401c64: a1 40 80 40 00               	movl	4227136, %eax
  401c69: 8b 5c 24 20                  	movl	32(%esp), %ebx
  401c6d: 85 c0                        	testl	%eax, %eax
  401c6f: 75 0f                        	jne	0x401c80 <____w64_mingwthr_remove_key_dtor+0x20>
  401c71: 83 c4 18                     	addl	$24, %esp
  401c74: 31 c0                        	xorl	%eax, %eax
  401c76: 5b                           	popl	%ebx
  401c77: c3                           	retl
  401c78: 8d b4 26 00 00 00 00         	leal	(%esi,%eiz), %esi
  401c7f: 90                           	nop
  401c80: c7 04 24 44 80 40 00         	movl	$4227140, (%esp)
  401c87: e8 38 23 00 00               	calll	0x403fc4 <_EnterCriticalSection@4>
  401c8c: a1 3c 80 40 00               	movl	4227132, %eax
  401c91: 83 ec 04                     	subl	$4, %esp
  401c94: 85 c0                        	testl	%eax, %eax
  401c96: 74 28                        	je	0x401cc0 <____w64_mingwthr_remove_key_dtor+0x60>
  401c98: 31 c9                        	xorl	%ecx, %ecx
  401c9a: eb 0c                        	jmp	0x401ca8 <____w64_mingwthr_remove_key_dtor+0x48>
  401c9c: 8d 74 26 00                  	leal	(%esi,%eiz), %esi
  401ca0: 89 c1                        	movl	%eax, %ecx
  401ca2: 85 d2                        	testl	%edx, %edx
  401ca4: 74 1a                        	je	0x401cc0 <____w64_mingwthr_remove_key_dtor+0x60>
  401ca6: 89 d0                        	movl	%edx, %eax
  401ca8: 8b 10                        	movl	(%eax), %edx
  401caa: 39 da                        	cmpl	%ebx, %edx
  401cac: 8b 50 08                     	movl	8(%eax), %edx
  401caf: 75 ef                        	jne	0x401ca0 <____w64_mingwthr_remove_key_dtor+0x40>
  401cb1: 85 c9                        	testl	%ecx, %ecx
  401cb3: 74 2b                        	je	0x401ce0 <____w64_mingwthr_remove_key_dtor+0x80>
  401cb5: 89 51 08                     	movl	%edx, 8(%ecx)
  401cb8: 89 04 24                     	movl	%eax, (%esp)
  401cbb: e8 a0 04 00 00               	calll	0x402160 <___mingw_free>
  401cc0: c7 04 24 44 80 40 00         	movl	$4227140, (%esp)
  401cc7: e8 a0 22 00 00               	calll	0x403f6c <_LeaveCriticalSection@4>
  401ccc: 31 c0                        	xorl	%eax, %eax
  401cce: 83 ec 04                     	subl	$4, %esp
  401cd1: 83 c4 18                     	addl	$24, %esp
  401cd4: 5b                           	popl	%ebx
  401cd5: c3                           	retl
  401cd6: 8d b4 26 00 00 00 00         	leal	(%esi,%eiz), %esi
  401cdd: 8d 76 00                     	leal	(%esi), %esi
  401ce0: 89 15 3c 80 40 00            	movl	%edx, 4227132
  401ce6: eb d0                        	jmp	0x401cb8 <____w64_mingwthr_remove_key_dtor+0x58>
  401ce8: 8d b4 26 00 00 00 00         	leal	(%esi,%eiz), %esi
  401cef: 90                           	nop

00401cf0 <___mingw_TLScallback>:
  401cf0: 83 ec 1c                     	subl	$28, %esp
  401cf3: 8b 44 24 24                  	movl	36(%esp), %eax
  401cf7: 83 f8 01                     	cmpl	$1, %eax
  401cfa: 74 14                        	je	0x401d10 <___mingw_TLScallback+0x20>
  401cfc: 83 f8 03                     	cmpl	$3, %eax
  401cff: 74 5f                        	je	0x401d60 <___mingw_TLScallback+0x70>
  401d01: 85 c0                        	testl	%eax, %eax
  401d03: 74 2b                        	je	0x401d30 <___mingw_TLScallback+0x40>
  401d05: b8 01 00 00 00               	movl	$1, %eax
  401d0a: 83 c4 1c                     	addl	$28, %esp
  401d0d: c3                           	retl
  401d0e: 66 90                        	nop
  401d10: a1 40 80 40 00               	movl	4227136, %eax
  401d15: 85 c0                        	testl	%eax, %eax
  401d17: 74 7f                        	je	0x401d98 <___mingw_TLScallback+0xa8>
  401d19: c7 05 40 80 40 00 01 00 00 00	movl	$1, 4227136
  401d23: b8 01 00 00 00               	movl	$1, %eax
  401d28: 83 c4 1c                     	addl	$28, %esp
  401d2b: c3                           	retl
  401d2c: 8d 74 26 00                  	leal	(%esi,%eiz), %esi
  401d30: a1 40 80 40 00               	movl	4227136, %eax
  401d35: 85 c0                        	testl	%eax, %eax
  401d37: 75 47                        	jne	0x401d80 <___mingw_TLScallback+0x90>
  401d39: a1 40 80 40 00               	movl	4227136, %eax
  401d3e: 83 f8 01                     	cmpl	$1, %eax
  401d41: 75 c2                        	jne	0x401d05 <___mingw_TLScallback+0x15>
  401d43: c7 04 24 44 80 40 00         	movl	$4227140, (%esp)
  401d4a: c7 05 40 80 40 00 00 00 00 00	movl	$0, 4227136
  401d54: e8 73 22 00 00               	calll	0x403fcc <_DeleteCriticalSection@4>
  401d59: 83 ec 04                     	subl	$4, %esp
  401d5c: eb a7                        	jmp	0x401d05 <___mingw_TLScallback+0x15>
  401d5e: 66 90                        	nop
  401d60: a1 40 80 40 00               	movl	4227136, %eax
  401d65: 85 c0                        	testl	%eax, %eax
  401d67: 74 9c                        	je	0x401d05 <___mingw_TLScallback+0x15>
  401d69: e8 12 fe ff ff               	calll	0x401b80 <.text>
  401d6e: b8 01 00 00 00               	movl	$1, %eax
  401d73: 83 c4 1c                     	addl	$28, %esp
  401d76: c3                           	retl
  401d77: 8d b4 26 00 00 00 00         	leal	(%esi,%eiz), %esi
  401d7e: 66 90                        	nop
  401d80: e8 fb fd ff ff               	calll	0x401b80 <.text>
  401d85: a1 40 80 40 00               	movl	4227136, %eax
  401d8a: 83 f8 01                     	cmpl	$1, %eax
  401d8d: 0f 85 72 ff ff ff            	jne	0x401d05 <___mingw_TLScallback+0x15>
  401d93: eb ae                        	jmp	0x401d43 <___mingw_TLScallback+0x53>
  401d95: 8d 76 00                     	leal	(%esi), %esi
  401d98: c7 04 24 44 80 40 00         	movl	$4227140, (%esp)
  401d9f: e8 d0 21 00 00               	calll	0x403f74 <_InitializeCriticalSection@4>
  401da4: 83 ec 04                     	subl	$4, %esp
  401da7: e9 6d ff ff ff               	jmp	0x401d19 <___mingw_TLScallback+0x29>
  401dac: 90                           	nop
  401dad: 90                           	nop
  401dae: 90                           	nop
  401daf: 90                           	nop

00401db0 <.text>:
  401db0: 56                           	pushl	%esi
  401db1: 53                           	pushl	%ebx
  401db2: 83 ec 14                     	subl	$20, %esp
  401db5: a1 b8 91 40 00               	movl	4231608, %eax
  401dba: c7 44 24 08 17 00 00 00      	movl	$23, 8(%esp)
  401dc2: 8d 74 24 24                  	leal	36(%esp), %esi
  401dc6: 8d 58 40                     	leal	64(%eax), %ebx
  401dc9: c7 44 24 04 01 00 00 00      	movl	$1, 4(%esp)
  401dd1: 89 5c 24 0c                  	movl	%ebx, 12(%esp)
  401dd5: c7 04 24 18 62 40 00         	movl	$4219416, (%esp)
  401ddc: e8 03 21 00 00               	calll	0x403ee4 <_fwrite>
  401de1: 8b 44 24 20                  	movl	32(%esp), %eax
  401de5: 89 74 24 08                  	movl	%esi, 8(%esp)
  401de9: 89 1c 24                     	movl	%ebx, (%esp)
  401dec: 89 44 24 04                  	movl	%eax, 4(%esp)
  401df0: e8 7f 20 00 00               	calll	0x403e74 <_vfprintf>
  401df5: e8 fa 20 00 00               	calll	0x403ef4 <_abort>
  401dfa: 8d b6 00 00 00 00            	leal	(%esi), %esi
  401e00: 55                           	pushl	%ebp
  401e01: 57                           	pushl	%edi
  401e02: 89 d7                        	movl	%edx, %edi
  401e04: 56                           	pushl	%esi
  401e05: 89 ce                        	movl	%ecx, %esi
  401e07: 53                           	pushl	%ebx
  401e08: 89 c3                        	movl	%eax, %ebx
  401e0a: 83 ec 3c                     	subl	$60, %esp
  401e0d: 8d 44 24 14                  	leal	20(%esp), %eax
  401e11: c7 44 24 08 1c 00 00 00      	movl	$28, 8(%esp)
  401e19: 89 44 24 04                  	movl	%eax, 4(%esp)
  401e1d: 89 1c 24                     	movl	%ebx, (%esp)
  401e20: e8 1f 21 00 00               	calll	0x403f44 <_VirtualQuery@12>
  401e25: 83 ec 0c                     	subl	$12, %esp
  401e28: 85 c0                        	testl	%eax, %eax
  401e2a: 0f 84 a4 00 00 00            	je	0x401ed4 <.text+0x124>
  401e30: 8b 44 24 28                  	movl	40(%esp), %eax
  401e34: 83 f8 40                     	cmpl	$64, %eax
  401e37: 74 05                        	je	0x401e3e <.text+0x8e>
  401e39: 83 f8 04                     	cmpl	$4, %eax
  401e3c: 75 22                        	jne	0x401e60 <.text+0xb0>
  401e3e: 85 f6                        	testl	%esi, %esi
  401e40: 74 10                        	je	0x401e52 <.text+0xa2>
  401e42: 31 c0                        	xorl	%eax, %eax
  401e44: 0f b6 0c 07                  	movzbl	(%edi,%eax), %ecx
  401e48: 88 0c 03                     	movb	%cl, (%ebx,%eax)
  401e4b: 83 c0 01                     	addl	$1, %eax
  401e4e: 39 f0                        	cmpl	%esi, %eax
  401e50: 72 f2                        	jb	0x401e44 <.text+0x94>
  401e52: 83 c4 3c                     	addl	$60, %esp
  401e55: 5b                           	popl	%ebx
  401e56: 5e                           	popl	%esi
  401e57: 5f                           	popl	%edi
  401e58: 5d                           	popl	%ebp
  401e59: c3                           	retl
  401e5a: 8d b6 00 00 00 00            	leal	(%esi), %esi
  401e60: 8b 44 24 20                  	movl	32(%esp), %eax
  401e64: 8d 6c 24 10                  	leal	16(%esp), %ebp
  401e68: c7 44 24 08 40 00 00 00      	movl	$64, 8(%esp)
  401e70: 89 6c 24 0c                  	movl	%ebp, 12(%esp)
  401e74: 89 44 24 04                  	movl	%eax, 4(%esp)
  401e78: 8b 44 24 14                  	movl	20(%esp), %eax
  401e7c: 89 04 24                     	movl	%eax, (%esp)
  401e7f: e8 c8 20 00 00               	calll	0x403f4c <_VirtualProtect@16>
  401e84: 83 ec 10                     	subl	$16, %esp
  401e87: 8b 4c 24 28                  	movl	40(%esp), %ecx
  401e8b: 85 f6                        	testl	%esi, %esi
  401e8d: 74 10                        	je	0x401e9f <.text+0xef>
  401e8f: 31 d2                        	xorl	%edx, %edx
  401e91: 0f b6 04 17                  	movzbl	(%edi,%edx), %eax
  401e95: 88 04 13                     	movb	%al, (%ebx,%edx)
  401e98: 83 c2 01                     	addl	$1, %edx
  401e9b: 39 f2                        	cmpl	%esi, %edx
  401e9d: 72 f2                        	jb	0x401e91 <.text+0xe1>
  401e9f: 83 f9 40                     	cmpl	$64, %ecx
  401ea2: 74 ae                        	je	0x401e52 <.text+0xa2>
  401ea4: 83 f9 04                     	cmpl	$4, %ecx
  401ea7: 74 a9                        	je	0x401e52 <.text+0xa2>
  401ea9: 8b 44 24 10                  	movl	16(%esp), %eax
  401ead: 89 6c 24 0c                  	movl	%ebp, 12(%esp)
  401eb1: 89 44 24 08                  	movl	%eax, 8(%esp)
  401eb5: 8b 44 24 20                  	movl	32(%esp), %eax
  401eb9: 89 44 24 04                  	movl	%eax, 4(%esp)
  401ebd: 8b 44 24 14                  	movl	20(%esp), %eax
  401ec1: 89 04 24                     	movl	%eax, (%esp)
  401ec4: e8 83 20 00 00               	calll	0x403f4c <_VirtualProtect@16>
  401ec9: 83 ec 10                     	subl	$16, %esp
  401ecc: 83 c4 3c                     	addl	$60, %esp
  401ecf: 5b                           	popl	%ebx
  401ed0: 5e                           	popl	%esi
  401ed1: 5f                           	popl	%edi
  401ed2: 5d                           	popl	%ebp
  401ed3: c3                           	retl
  401ed4: 89 5c 24 08                  	movl	%ebx, 8(%esp)
  401ed8: c7 44 24 04 1c 00 00 00      	movl	$28, 4(%esp)
  401ee0: c7 04 24 30 62 40 00         	movl	$4219440, (%esp)
  401ee7: e8 c4 fe ff ff               	calll	0x401db0 <.text>
  401eec: 8d 74 26 00                  	leal	(%esi,%eiz), %esi

00401ef0 <__pei386_runtime_relocator>:
  401ef0: a1 5c 80 40 00               	movl	4227164, %eax
  401ef5: 85 c0                        	testl	%eax, %eax
  401ef7: 74 07                        	je	0x401f00 <__pei386_runtime_relocator+0x10>
  401ef9: c3                           	retl
  401efa: 8d b6 00 00 00 00            	leal	(%esi), %esi
  401f00: c7 05 5c 80 40 00 01 00 00 00	movl	$1, 4227164
  401f0a: b8 e4 67 40 00               	movl	$4220900, %eax
  401f0f: 2d e4 67 40 00               	subl	$4220900, %eax
  401f14: 83 f8 07                     	cmpl	$7, %eax
  401f17: 7e e0                        	jle	0x401ef9 <__pei386_runtime_relocator+0x9>
  401f19: 57                           	pushl	%edi
  401f1a: 56                           	pushl	%esi
  401f1b: 53                           	pushl	%ebx
  401f1c: 83 ec 20                     	subl	$32, %esp
  401f1f: 8b 15 e4 67 40 00            	movl	4220900, %edx
  401f25: 83 f8 0b                     	cmpl	$11, %eax
  401f28: 0f 8f 92 00 00 00            	jg	0x401fc0 <__pei386_runtime_relocator+0xd0>
  401f2e: bb e4 67 40 00               	movl	$4220900, %ebx
  401f33: 85 d2                        	testl	%edx, %edx
  401f35: 0f 85 3a 01 00 00            	jne	0x402075 <__pei386_runtime_relocator+0x185>
  401f3b: 8b 43 04                     	movl	4(%ebx), %eax
  401f3e: 85 c0                        	testl	%eax, %eax
  401f40: 0f 85 2f 01 00 00            	jne	0x402075 <__pei386_runtime_relocator+0x185>
  401f46: 8b 43 08                     	movl	8(%ebx), %eax
  401f49: 83 f8 01                     	cmpl	$1, %eax
  401f4c: 0f 85 78 01 00 00            	jne	0x4020ca <__pei386_runtime_relocator+0x1da>
  401f52: 8d b6 00 00 00 00            	leal	(%esi), %esi
  401f58: 83 c3 0c                     	addl	$12, %ebx
  401f5b: 81 fb e4 67 40 00            	cmpl	$4220900, %ebx
  401f61: 73 4c                        	jae	0x401faf <__pei386_runtime_relocator+0xbf>
  401f63: 8b 03                        	movl	(%ebx), %eax
  401f65: 8b 4b 04                     	movl	4(%ebx), %ecx
  401f68: 0f b6 53 08                  	movzbl	8(%ebx), %edx
  401f6c: 8d b8 00 00 40 00            	leal	4194304(%eax), %edi
  401f72: 8d b1 00 00 40 00            	leal	4194304(%ecx), %esi
  401f78: 8b 80 00 00 40 00            	movl	4194304(%eax), %eax
  401f7e: 83 fa 10                     	cmpl	$16, %edx
  401f81: 0f 84 89 00 00 00            	je	0x402010 <__pei386_runtime_relocator+0x120>
  401f87: 83 fa 20                     	cmpl	$32, %edx
  401f8a: 75 64                        	jne	0x401ff0 <__pei386_runtime_relocator+0x100>
  401f8c: 29 f8                        	subl	%edi, %eax
  401f8e: 03 06                        	addl	(%esi), %eax
  401f90: b9 04 00 00 00               	movl	$4, %ecx
  401f95: 83 c3 0c                     	addl	$12, %ebx
  401f98: 89 44 24 1c                  	movl	%eax, 28(%esp)
  401f9c: 8d 54 24 1c                  	leal	28(%esp), %edx
  401fa0: 89 f0                        	movl	%esi, %eax
  401fa2: e8 59 fe ff ff               	calll	0x401e00 <.text+0x50>
  401fa7: 81 fb e4 67 40 00            	cmpl	$4220900, %ebx
  401fad: 72 b4                        	jb	0x401f63 <__pei386_runtime_relocator+0x73>
  401faf: 83 c4 20                     	addl	$32, %esp
  401fb2: 5b                           	popl	%ebx
  401fb3: 5e                           	popl	%esi
  401fb4: 5f                           	popl	%edi
  401fb5: c3                           	retl
  401fb6: 8d b4 26 00 00 00 00         	leal	(%esi,%eiz), %esi
  401fbd: 8d 76 00                     	leal	(%esi), %esi
  401fc0: 85 d2                        	testl	%edx, %edx
  401fc2: 0f 85 a8 00 00 00            	jne	0x402070 <__pei386_runtime_relocator+0x180>
  401fc8: a1 e8 67 40 00               	movl	4220904, %eax
  401fcd: 89 c7                        	movl	%eax, %edi
  401fcf: 0b 3d ec 67 40 00            	orl	4220908, %edi
  401fd5: 0f 85 e5 00 00 00            	jne	0x4020c0 <__pei386_runtime_relocator+0x1d0>
  401fdb: 8b 15 f0 67 40 00            	movl	4220912, %edx
  401fe1: bb f0 67 40 00               	movl	$4220912, %ebx
  401fe6: e9 48 ff ff ff               	jmp	0x401f33 <__pei386_runtime_relocator+0x43>
  401feb: 8d 74 26 00                  	leal	(%esi,%eiz), %esi
  401fef: 90                           	nop
  401ff0: 83 fa 08                     	cmpl	$8, %edx
  401ff3: 74 4b                        	je	0x402040 <__pei386_runtime_relocator+0x150>
  401ff5: 89 54 24 04                  	movl	%edx, 4(%esp)
  401ff9: c7 04 24 98 62 40 00         	movl	$4219544, (%esp)
  402000: c7 44 24 1c 00 00 00 00      	movl	$0, 28(%esp)
  402008: e8 a3 fd ff ff               	calll	0x401db0 <.text>
  40200d: 8d 76 00                     	leal	(%esi), %esi
  402010: 0f b7 91 00 00 40 00         	movzwl	4194304(%ecx), %edx
  402017: 66 85 d2                     	testw	%dx, %dx
  40201a: 79 06                        	jns	0x402022 <__pei386_runtime_relocator+0x132>
  40201c: 81 ca 00 00 ff ff            	orl	$4294901760, %edx
  402022: 29 fa                        	subl	%edi, %edx
  402024: b9 02 00 00 00               	movl	$2, %ecx
  402029: 01 d0                        	addl	%edx, %eax
  40202b: 8d 54 24 1c                  	leal	28(%esp), %edx
  40202f: 89 44 24 1c                  	movl	%eax, 28(%esp)
  402033: 89 f0                        	movl	%esi, %eax
  402035: e8 c6 fd ff ff               	calll	0x401e00 <.text+0x50>
  40203a: e9 19 ff ff ff               	jmp	0x401f58 <__pei386_runtime_relocator+0x68>
  40203f: 90                           	nop
  402040: 0f b6 0e                     	movzbl	(%esi), %ecx
  402043: 84 c9                        	testb	%cl, %cl
  402045: 79 06                        	jns	0x40204d <__pei386_runtime_relocator+0x15d>
  402047: 81 c9 00 ff ff ff            	orl	$4294967040, %ecx
  40204d: 29 f9                        	subl	%edi, %ecx
  40204f: 8d 54 24 1c                  	leal	28(%esp), %edx
  402053: 01 c8                        	addl	%ecx, %eax
  402055: b9 01 00 00 00               	movl	$1, %ecx
  40205a: 89 44 24 1c                  	movl	%eax, 28(%esp)
  40205e: 89 f0                        	movl	%esi, %eax
  402060: e8 9b fd ff ff               	calll	0x401e00 <.text+0x50>
  402065: e9 ee fe ff ff               	jmp	0x401f58 <__pei386_runtime_relocator+0x68>
  40206a: 8d b6 00 00 00 00            	leal	(%esi), %esi
  402070: bb e4 67 40 00               	movl	$4220900, %ebx
  402075: 81 fb e4 67 40 00            	cmpl	$4220900, %ebx
  40207b: 0f 83 2e ff ff ff            	jae	0x401faf <__pei386_runtime_relocator+0xbf>
  402081: 8d b4 26 00 00 00 00         	leal	(%esi,%eiz), %esi
  402088: 8b 53 04                     	movl	4(%ebx), %edx
  40208b: 8b 03                        	movl	(%ebx), %eax
  40208d: b9 04 00 00 00               	movl	$4, %ecx
  402092: 83 c3 08                     	addl	$8, %ebx
  402095: 03 82 00 00 40 00            	addl	4194304(%edx), %eax
  40209b: 8d b2 00 00 40 00            	leal	4194304(%edx), %esi
  4020a1: 8d 54 24 1c                  	leal	28(%esp), %edx
  4020a5: 89 44 24 1c                  	movl	%eax, 28(%esp)
  4020a9: 89 f0                        	movl	%esi, %eax
  4020ab: e8 50 fd ff ff               	calll	0x401e00 <.text+0x50>
  4020b0: 81 fb e4 67 40 00            	cmpl	$4220900, %ebx
  4020b6: 72 d0                        	jb	0x402088 <__pei386_runtime_relocator+0x198>
  4020b8: 83 c4 20                     	addl	$32, %esp
  4020bb: 5b                           	popl	%ebx
  4020bc: 5e                           	popl	%esi
  4020bd: 5f                           	popl	%edi
  4020be: c3                           	retl
  4020bf: 90                           	nop
  4020c0: bb e4 67 40 00               	movl	$4220900, %ebx
  4020c5: e9 74 fe ff ff               	jmp	0x401f3e <__pei386_runtime_relocator+0x4e>
  4020ca: 89 44 24 04                  	movl	%eax, 4(%esp)
  4020ce: c7 04 24 64 62 40 00         	movl	$4219492, (%esp)
  4020d5: e8 d6 fc ff ff               	calll	0x401db0 <.text>
  4020da: 90                           	nop
  4020db: 90                           	nop
  4020dc: 90                           	nop
  4020dd: 90                           	nop
  4020de: 90                           	nop
  4020df: 90                           	nop

004020e0 <_fesetenv>:
  4020e0: 83 ec 1c                     	subl	$28, %esp
  4020e3: 8b 44 24 20                  	movl	32(%esp), %eax
  4020e7: c7 44 24 0c 80 1f 00 00      	movl	$8064, 12(%esp)
  4020ef: 83 f8 fd                     	cmpl	$-3, %eax
  4020f2: 74 4c                        	je	0x402140 <_fesetenv+0x60>
  4020f4: 83 f8 fc                     	cmpl	$-4, %eax
  4020f7: 74 2f                        	je	0x402128 <_fesetenv+0x48>
  4020f9: 85 c0                        	testl	%eax, %eax
  4020fb: 74 53                        	je	0x402150 <_fesetenv+0x70>
  4020fd: 83 f8 ff                     	cmpl	$-1, %eax
  402100: 74 48                        	je	0x40214a <_fesetenv+0x6a>
  402102: 83 f8 fe                     	cmpl	$-2, %eax
  402105: 74 2b                        	je	0x402132 <_fesetenv+0x52>
  402107: d9 20                        	fldenv	(%eax)
  402109: 0f b7 40 1c                  	movzwl	28(%eax), %eax
  40210d: 89 44 24 0c                  	movl	%eax, 12(%esp)
  402111: f6 05 24 80 40 00 10         	testb	$16, 4227108
  402118: 74 05                        	je	0x40211f <_fesetenv+0x3f>
  40211a: 0f ae 54 24 0c               	ldmxcsr	12(%esp)
  40211f: 31 c0                        	xorl	%eax, %eax
  402121: 83 c4 1c                     	addl	$28, %esp
  402124: c3                           	retl
  402125: 8d 76 00                     	leal	(%esi), %esi
  402128: c7 05 14 50 40 00 fe ff ff ff	movl	$4294967294, 4214804
  402132: ff 15 b0 91 40 00            	calll	*4231600
  402138: eb d7                        	jmp	0x402111 <_fesetenv+0x31>
  40213a: 8d b6 00 00 00 00            	leal	(%esi), %esi
  402140: c7 05 14 50 40 00 ff ff ff ff	movl	$4294967295, 4214804
  40214a: db e3                        	fninit
  40214c: eb c3                        	jmp	0x402111 <_fesetenv+0x31>
  40214e: 66 90                        	nop
  402150: a1 14 50 40 00               	movl	4214804, %eax
  402155: eb a6                        	jmp	0x4020fd <_fesetenv+0x1d>
  402157: 90                           	nop
  402158: 90                           	nop
  402159: 90                           	nop
  40215a: 90                           	nop
  40215b: 90                           	nop
  40215c: 90                           	nop
  40215d: 90                           	nop
  40215e: 90                           	nop
  40215f: 90                           	nop

00402160 <___mingw_free>:
  402160: 83 ec 2c                     	subl	$44, %esp
  402163: 8d 44 24 10                  	leal	16(%esp), %eax
  402167: 89 44 24 04                  	movl	%eax, 4(%esp)
  40216b: 8b 44 24 30                  	movl	48(%esp), %eax
  40216f: 89 04 24                     	movl	%eax, (%esp)
  402172: e8 99 1a 00 00               	calll	0x403c10 <___mingw_memalign_base>
  402177: 89 04 24                     	movl	%eax, (%esp)
  40217a: ff 15 1c 92 40 00            	calll	*4231708
  402180: 83 c4 2c                     	addl	$44, %esp
  402183: c3                           	retl
  402184: 90                           	nop
  402185: 90                           	nop
  402186: 90                           	nop
  402187: 90                           	nop
  402188: 90                           	nop
  402189: 90                           	nop
  40218a: 90                           	nop
  40218b: 90                           	nop
  40218c: 90                           	nop
  40218d: 90                           	nop
  40218e: 90                           	nop
  40218f: 90                           	nop

00402190 <.text>:
  402190: 55                           	pushl	%ebp
  402191: 57                           	pushl	%edi
  402192: 56                           	pushl	%esi
  402193: 53                           	pushl	%ebx
  402194: 83 ec 3c                     	subl	$60, %esp
  402197: 0f be 28                     	movsbl	(%eax), %ebp
  40219a: 89 54 24 1c                  	movl	%edx, 28(%esp)
  40219e: 89 4c 24 28                  	movl	%ecx, 40(%esp)
  4021a2: 89 eb                        	movl	%ebp, %ebx
  4021a4: 83 fd 2d                     	cmpl	$45, %ebp
  4021a7: 0f 84 db 00 00 00            	je	0x402288 <.text+0xf8>
  4021ad: 89 c2                        	movl	%eax, %edx
  4021af: 83 fd 5d                     	cmpl	$93, %ebp
  4021b2: 0f 84 d0 00 00 00            	je	0x402288 <.text+0xf8>
  4021b8: 8b 44 24 28                  	movl	40(%esp), %eax
  4021bc: 25 00 40 00 00               	andl	$16384, %eax
  4021c1: 89 44 24 20                  	movl	%eax, 32(%esp)
  4021c5: 89 e8                        	movl	%ebp, %eax
  4021c7: 89 d5                        	movl	%edx, %ebp
  4021c9: 89 da                        	movl	%ebx, %edx
  4021cb: 89 c3                        	movl	%eax, %ebx
  4021cd: eb 0b                        	jmp	0x4021da <.text+0x4a>
  4021cf: 90                           	nop
  4021d0: 89 d6                        	movl	%edx, %esi
  4021d2: 2b 74 24 1c                  	subl	28(%esp), %esi
  4021d6: 85 f6                        	testl	%esi, %esi
  4021d8: 74 64                        	je	0x40223e <.text+0xae>
  4021da: 8d 7d 01                     	leal	1(%ebp), %edi
  4021dd: 89 de                        	movl	%ebx, %esi
  4021df: 83 fb 5d                     	cmpl	$93, %ebx
  4021e2: 0f 84 d0 00 00 00            	je	0x4022b8 <.text+0x128>
  4021e8: 83 fb 2d                     	cmpl	$45, %ebx
  4021eb: 0f 84 b7 00 00 00            	je	0x4022a8 <.text+0x118>
  4021f1: 85 db                        	testl	%ebx, %ebx
  4021f3: 0f 84 bf 00 00 00            	je	0x4022b8 <.text+0x128>
  4021f9: 83 fe 2f                     	cmpl	$47, %esi
  4021fc: 0f 84 b6 00 00 00            	je	0x4022b8 <.text+0x128>
  402202: 83 fe 5c                     	cmpl	$92, %esi
  402205: 0f 84 ad 00 00 00            	je	0x4022b8 <.text+0x128>
  40220b: 0f be 1f                     	movsbl	(%edi), %ebx
  40220e: 89 fd                        	movl	%edi, %ebp
  402210: 89 f2                        	movl	%esi, %edx
  402212: 8b 44 24 20                  	movl	32(%esp), %eax
  402216: 85 c0                        	testl	%eax, %eax
  402218: 75 b6                        	jne	0x4021d0 <.text+0x40>
  40221a: 89 14 24                     	movl	%edx, (%esp)
  40221d: 89 54 24 24                  	movl	%edx, 36(%esp)
  402221: e8 56 1c 00 00               	calll	0x403e7c <_tolower>
  402226: 89 c6                        	movl	%eax, %esi
  402228: 8b 44 24 1c                  	movl	28(%esp), %eax
  40222c: 89 04 24                     	movl	%eax, (%esp)
  40222f: e8 48 1c 00 00               	calll	0x403e7c <_tolower>
  402234: 8b 54 24 24                  	movl	36(%esp), %edx
  402238: 29 c6                        	subl	%eax, %esi
  40223a: 85 f6                        	testl	%esi, %esi
  40223c: 75 9c                        	jne	0x4021da <.text+0x4a>
  40223e: 89 d9                        	movl	%ebx, %ecx
  402240: 8b 5c 24 28                  	movl	40(%esp), %ebx
  402244: 89 ea                        	movl	%ebp, %edx
  402246: 83 e3 20                     	andl	$32, %ebx
  402249: 8d 42 01                     	leal	1(%edx), %eax
  40224c: 80 f9 5d                     	cmpb	$93, %cl
  40224f: 74 69                        	je	0x4022ba <.text+0x12a>
  402251: 80 f9 7f                     	cmpb	$127, %cl
  402254: 74 17                        	je	0x40226d <.text+0xdd>
  402256: 84 c9                        	testb	%cl, %cl
  402258: 74 5e                        	je	0x4022b8 <.text+0x128>
  40225a: 0f b6 4a 01                  	movzbl	1(%edx), %ecx
  40225e: 89 c2                        	movl	%eax, %edx
  402260: 8d 42 01                     	leal	1(%edx), %eax
  402263: 80 f9 5d                     	cmpb	$93, %cl
  402266: 74 52                        	je	0x4022ba <.text+0x12a>
  402268: 80 f9 7f                     	cmpb	$127, %cl
  40226b: 75 e9                        	jne	0x402256 <.text+0xc6>
  40226d: 0f b6 4a 01                  	movzbl	1(%edx), %ecx
  402271: 85 db                        	testl	%ebx, %ebx
  402273: 0f 85 1f 02 00 00            	jne	0x402498 <.text+0x308>
  402279: 8d 72 02                     	leal	2(%edx), %esi
  40227c: 89 c2                        	movl	%eax, %edx
  40227e: 89 f0                        	movl	%esi, %eax
  402280: eb d4                        	jmp	0x402256 <.text+0xc6>
  402282: 8d b6 00 00 00 00            	leal	(%esi), %esi
  402288: 0f b6 48 01                  	movzbl	1(%eax), %ecx
  40228c: 8d 50 01                     	leal	1(%eax), %edx
  40228f: 3b 6c 24 1c                  	cmpl	28(%esp), %ebp
  402293: 0f 84 a7 01 00 00            	je	0x402440 <.text+0x2b0>
  402299: 0f be e9                     	movsbl	%cl, %ebp
  40229c: e9 17 ff ff ff               	jmp	0x4021b8 <.text+0x28>
  4022a1: 8d b4 26 00 00 00 00         	leal	(%esi,%eiz), %esi
  4022a8: 0f be 5d 01                  	movsbl	1(%ebp), %ebx
  4022ac: 80 fb 5d                     	cmpb	$93, %bl
  4022af: 74 17                        	je	0x4022c8 <.text+0x138>
  4022b1: 0f be f3                     	movsbl	%bl, %esi
  4022b4: 85 f6                        	testl	%esi, %esi
  4022b6: 75 20                        	jne	0x4022d8 <.text+0x148>
  4022b8: 31 c0                        	xorl	%eax, %eax
  4022ba: 83 c4 3c                     	addl	$60, %esp
  4022bd: 5b                           	popl	%ebx
  4022be: 5e                           	popl	%esi
  4022bf: 5f                           	popl	%edi
  4022c0: 5d                           	popl	%ebp
  4022c1: c3                           	retl
  4022c2: 8d b6 00 00 00 00            	leal	(%esi), %esi
  4022c8: 89 fd                        	movl	%edi, %ebp
  4022ca: ba 2d 00 00 00               	movl	$45, %edx
  4022cf: e9 3e ff ff ff               	jmp	0x402212 <.text+0x82>
  4022d4: 8d 74 26 00                  	leal	(%esi,%eiz), %esi
  4022d8: 8d 7d 02                     	leal	2(%ebp), %edi
  4022db: 89 6c 24 24                  	movl	%ebp, 36(%esp)
  4022df: 89 d5                        	movl	%edx, %ebp
  4022e1: 89 7c 24 2c                  	movl	%edi, 44(%esp)
  4022e5: 89 f7                        	movl	%esi, %edi
  4022e7: 8b 74 24 20                  	movl	32(%esp), %esi
  4022eb: eb 10                        	jmp	0x4022fd <.text+0x16d>
  4022ed: 8d 76 00                     	leal	(%esi), %esi
  4022f0: 89 eb                        	movl	%ebp, %ebx
  4022f2: 2b 5c 24 1c                  	subl	28(%esp), %ebx
  4022f6: 83 c5 01                     	addl	$1, %ebp
  4022f9: 85 db                        	testl	%ebx, %ebx
  4022fb: 74 27                        	je	0x402324 <.text+0x194>
  4022fd: 39 fd                        	cmpl	%edi, %ebp
  4022ff: 7d 7f                        	jge	0x402380 <.text+0x1f0>
  402301: 85 f6                        	testl	%esi, %esi
  402303: 75 eb                        	jne	0x4022f0 <.text+0x160>
  402305: 89 2c 24                     	movl	%ebp, (%esp)
  402308: 83 c5 01                     	addl	$1, %ebp
  40230b: e8 6c 1b 00 00               	calll	0x403e7c <_tolower>
  402310: 89 c3                        	movl	%eax, %ebx
  402312: 8b 44 24 1c                  	movl	28(%esp), %eax
  402316: 89 04 24                     	movl	%eax, (%esp)
  402319: e8 5e 1b 00 00               	calll	0x403e7c <_tolower>
  40231e: 29 c3                        	subl	%eax, %ebx
  402320: 85 db                        	testl	%ebx, %ebx
  402322: 75 d9                        	jne	0x4022fd <.text+0x16d>
  402324: 8b 54 24 24                  	movl	36(%esp), %edx
  402328: 8b 4c 24 28                  	movl	40(%esp), %ecx
  40232c: 8b 7c 24 2c                  	movl	44(%esp), %edi
  402330: 0f b6 52 02                  	movzbl	2(%edx), %edx
  402334: 83 e1 20                     	andl	$32, %ecx
  402337: 8d 47 01                     	leal	1(%edi), %eax
  40233a: 80 fa 5d                     	cmpb	$93, %dl
  40233d: 0f 84 77 ff ff ff            	je	0x4022ba <.text+0x12a>
  402343: 80 fa 7f                     	cmpb	$127, %dl
  402346: 74 1f                        	je	0x402367 <.text+0x1d7>
  402348: 84 d2                        	testb	%dl, %dl
  40234a: 0f 84 68 ff ff ff            	je	0x4022b8 <.text+0x128>
  402350: 0f b6 57 01                  	movzbl	1(%edi), %edx
  402354: 89 c7                        	movl	%eax, %edi
  402356: 8d 47 01                     	leal	1(%edi), %eax
  402359: 80 fa 5d                     	cmpb	$93, %dl
  40235c: 0f 84 58 ff ff ff            	je	0x4022ba <.text+0x12a>
  402362: 80 fa 7f                     	cmpb	$127, %dl
  402365: 75 e1                        	jne	0x402348 <.text+0x1b8>
  402367: 0f b6 57 01                  	movzbl	1(%edi), %edx
  40236b: 85 c9                        	testl	%ecx, %ecx
  40236d: 0f 85 bd 00 00 00            	jne	0x402430 <.text+0x2a0>
  402373: 8d 5f 02                     	leal	2(%edi), %ebx
  402376: 89 c7                        	movl	%eax, %edi
  402378: 89 d8                        	movl	%ebx, %eax
  40237a: eb cc                        	jmp	0x402348 <.text+0x1b8>
  40237c: 8d 74 26 00                  	leal	(%esi,%eiz), %esi
  402380: 89 fe                        	movl	%edi, %esi
  402382: 89 ea                        	movl	%ebp, %edx
  402384: 8b 7c 24 2c                  	movl	44(%esp), %edi
  402388: 8b 6c 24 24                  	movl	36(%esp), %ebp
  40238c: 89 7c 24 24                  	movl	%edi, 36(%esp)
  402390: 89 f7                        	movl	%esi, %edi
  402392: 89 d6                        	movl	%edx, %esi
  402394: 89 6c 24 2c                  	movl	%ebp, 44(%esp)
  402398: 8b 6c 24 20                  	movl	32(%esp), %ebp
  40239c: eb 0f                        	jmp	0x4023ad <.text+0x21d>
  40239e: 66 90                        	nop
  4023a0: 89 f3                        	movl	%esi, %ebx
  4023a2: 2b 5c 24 1c                  	subl	28(%esp), %ebx
  4023a6: 83 ee 01                     	subl	$1, %esi
  4023a9: 85 db                        	testl	%ebx, %ebx
  4023ab: 74 2b                        	je	0x4023d8 <.text+0x248>
  4023ad: 39 fe                        	cmpl	%edi, %esi
  4023af: 0f 8e eb 00 00 00            	jle	0x4024a0 <.text+0x310>
  4023b5: 85 ed                        	testl	%ebp, %ebp
  4023b7: 75 e7                        	jne	0x4023a0 <.text+0x210>
  4023b9: 89 34 24                     	movl	%esi, (%esp)
  4023bc: 83 ee 01                     	subl	$1, %esi
  4023bf: e8 b8 1a 00 00               	calll	0x403e7c <_tolower>
  4023c4: 89 c3                        	movl	%eax, %ebx
  4023c6: 8b 44 24 1c                  	movl	28(%esp), %eax
  4023ca: 89 04 24                     	movl	%eax, (%esp)
  4023cd: e8 aa 1a 00 00               	calll	0x403e7c <_tolower>
  4023d2: 29 c3                        	subl	%eax, %ebx
  4023d4: 85 db                        	testl	%ebx, %ebx
  4023d6: 75 d5                        	jne	0x4023ad <.text+0x21d>
  4023d8: 8b 54 24 2c                  	movl	44(%esp), %edx
  4023dc: 8b 4c 24 28                  	movl	40(%esp), %ecx
  4023e0: 8b 7c 24 24                  	movl	36(%esp), %edi
  4023e4: 0f b6 52 02                  	movzbl	2(%edx), %edx
  4023e8: 83 e1 20                     	andl	$32, %ecx
  4023eb: 8d 47 01                     	leal	1(%edi), %eax
  4023ee: 80 fa 5d                     	cmpb	$93, %dl
  4023f1: 0f 84 c3 fe ff ff            	je	0x4022ba <.text+0x12a>
  4023f7: 80 fa 7f                     	cmpb	$127, %dl
  4023fa: 74 1f                        	je	0x40241b <.text+0x28b>
  4023fc: 84 d2                        	testb	%dl, %dl
  4023fe: 0f 84 b4 fe ff ff            	je	0x4022b8 <.text+0x128>
  402404: 0f b6 57 01                  	movzbl	1(%edi), %edx
  402408: 89 c7                        	movl	%eax, %edi
  40240a: 8d 47 01                     	leal	1(%edi), %eax
  40240d: 80 fa 5d                     	cmpb	$93, %dl
  402410: 0f 84 a4 fe ff ff            	je	0x4022ba <.text+0x12a>
  402416: 80 fa 7f                     	cmpb	$127, %dl
  402419: 75 e1                        	jne	0x4023fc <.text+0x26c>
  40241b: 0f b6 57 01                  	movzbl	1(%edi), %edx
  40241f: 85 c9                        	testl	%ecx, %ecx
  402421: 0f 85 89 00 00 00            	jne	0x4024b0 <.text+0x320>
  402427: 8d 5f 02                     	leal	2(%edi), %ebx
  40242a: 89 c7                        	movl	%eax, %edi
  40242c: 89 d8                        	movl	%ebx, %eax
  40242e: eb cc                        	jmp	0x4023fc <.text+0x26c>
  402430: 89 c7                        	movl	%eax, %edi
  402432: e9 00 ff ff ff               	jmp	0x402337 <.text+0x1a7>
  402437: 8d b4 26 00 00 00 00         	leal	(%esi,%eiz), %esi
  40243e: 66 90                        	nop
  402440: 8b 5c 24 28                  	movl	40(%esp), %ebx
  402444: 83 e3 20                     	andl	$32, %ebx
  402447: 8d 42 01                     	leal	1(%edx), %eax
  40244a: 80 f9 5d                     	cmpb	$93, %cl
  40244d: 0f 84 67 fe ff ff            	je	0x4022ba <.text+0x12a>
  402453: 80 f9 7f                     	cmpb	$127, %cl
  402456: 74 1f                        	je	0x402477 <.text+0x2e7>
  402458: 84 c9                        	testb	%cl, %cl
  40245a: 0f 84 58 fe ff ff            	je	0x4022b8 <.text+0x128>
  402460: 0f b6 4a 01                  	movzbl	1(%edx), %ecx
  402464: 89 c2                        	movl	%eax, %edx
  402466: 8d 42 01                     	leal	1(%edx), %eax
  402469: 80 f9 5d                     	cmpb	$93, %cl
  40246c: 0f 84 48 fe ff ff            	je	0x4022ba <.text+0x12a>
  402472: 80 f9 7f                     	cmpb	$127, %cl
  402475: 75 e1                        	jne	0x402458 <.text+0x2c8>
  402477: 0f b6 4a 01                  	movzbl	1(%edx), %ecx
  40247b: 85 db                        	testl	%ebx, %ebx
  40247d: 75 11                        	jne	0x402490 <.text+0x300>
  40247f: 8d 72 02                     	leal	2(%edx), %esi
  402482: 89 c2                        	movl	%eax, %edx
  402484: 89 f0                        	movl	%esi, %eax
  402486: eb d0                        	jmp	0x402458 <.text+0x2c8>
  402488: 8d b4 26 00 00 00 00         	leal	(%esi,%eiz), %esi
  40248f: 90                           	nop
  402490: 89 c2                        	movl	%eax, %edx
  402492: eb b3                        	jmp	0x402447 <.text+0x2b7>
  402494: 8d 74 26 00                  	leal	(%esi,%eiz), %esi
  402498: 89 c2                        	movl	%eax, %edx
  40249a: e9 aa fd ff ff               	jmp	0x402249 <.text+0xb9>
  40249f: 90                           	nop
  4024a0: 89 fe                        	movl	%edi, %esi
  4024a2: 8b 7c 24 24                  	movl	36(%esp), %edi
  4024a6: e9 4e fd ff ff               	jmp	0x4021f9 <.text+0x69>
  4024ab: 8d 74 26 00                  	leal	(%esi,%eiz), %esi
  4024af: 90                           	nop
  4024b0: 89 c7                        	movl	%eax, %edi
  4024b2: e9 34 ff ff ff               	jmp	0x4023eb <.text+0x25b>
  4024b7: 8d b4 26 00 00 00 00         	leal	(%esi,%eiz), %esi
  4024be: 66 90                        	nop
  4024c0: 55                           	pushl	%ebp
  4024c1: 89 c5                        	movl	%eax, %ebp
  4024c3: 57                           	pushl	%edi
  4024c4: 56                           	pushl	%esi
  4024c5: 89 d6                        	movl	%edx, %esi
  4024c7: 53                           	pushl	%ebx
  4024c8: 83 ec 2c                     	subl	$44, %esp
  4024cb: 0f b6 3a                     	movzbl	(%edx), %edi
  4024ce: 0f be 10                     	movsbl	(%eax), %edx
  4024d1: 89 fb                        	movl	%edi, %ebx
  4024d3: 89 d0                        	movl	%edx, %eax
  4024d5: 80 fb 2e                     	cmpb	$46, %bl
  4024d8: 0f 84 32 01 00 00            	je	0x402610 <.text+0x480>
  4024de: 8d 5d 01                     	leal	1(%ebp), %ebx
  4024e1: 85 d2                        	testl	%edx, %edx
  4024e3: 0f 84 f9 00 00 00            	je	0x4025e2 <.text+0x452>
  4024e9: 89 cf                        	movl	%ecx, %edi
  4024eb: 83 e7 20                     	andl	$32, %edi
  4024ee: 89 7c 24 14                  	movl	%edi, 20(%esp)
  4024f2: 89 f7                        	movl	%esi, %edi
  4024f4: 3c 3f                        	cmpb	$63, %al
  4024f6: 0f 84 f4 00 00 00            	je	0x4025f0 <.text+0x460>
  4024fc: 3c 5b                        	cmpb	$91, %al
  4024fe: 0f 84 9c 00 00 00            	je	0x4025a0 <.text+0x410>
  402504: 3c 2a                        	cmpb	$42, %al
  402506: 74 5b                        	je	0x402563 <.text+0x3d3>
  402508: f6 c1 20                     	testb	$32, %cl
  40250b: 75 09                        	jne	0x402516 <.text+0x386>
  40250d: 83 fa 7f                     	cmpl	$127, %edx
  402510: 0f 84 42 01 00 00            	je	0x402658 <.text+0x4c8>
  402516: 0f be 06                     	movsbl	(%esi), %eax
  402519: 84 c0                        	testb	%al, %al
  40251b: 74 75                        	je	0x402592 <.text+0x402>
  40251d: 89 44 24 10                  	movl	%eax, 16(%esp)
  402521: f6 c5 40                     	testb	$64, %ch
  402524: 0f 85 d6 00 00 00            	jne	0x402600 <.text+0x470>
  40252a: 89 14 24                     	movl	%edx, (%esp)
  40252d: 89 4c 24 1c                  	movl	%ecx, 28(%esp)
  402531: 89 54 24 18                  	movl	%edx, 24(%esp)
  402535: e8 42 19 00 00               	calll	0x403e7c <_tolower>
  40253a: 89 c5                        	movl	%eax, %ebp
  40253c: 8b 44 24 10                  	movl	16(%esp), %eax
  402540: 89 04 24                     	movl	%eax, (%esp)
  402543: e8 34 19 00 00               	calll	0x403e7c <_tolower>
  402548: 8b 4c 24 1c                  	movl	28(%esp), %ecx
  40254c: 8b 54 24 18                  	movl	24(%esp), %edx
  402550: 29 c5                        	subl	%eax, %ebp
  402552: 85 ed                        	testl	%ebp, %ebp
  402554: 0f 84 9f 00 00 00            	je	0x4025f9 <.text+0x469>
  40255a: 2b 54 24 10                  	subl	16(%esp), %edx
  40255e: eb 32                        	jmp	0x402592 <.text+0x402>
  402560: 83 c3 01                     	addl	$1, %ebx
  402563: 0f b6 03                     	movzbl	(%ebx), %eax
  402566: 3c 2a                        	cmpb	$42, %al
  402568: 74 f6                        	je	0x402560 <.text+0x3d0>
  40256a: 31 d2                        	xorl	%edx, %edx
  40256c: 84 c0                        	testb	%al, %al
  40256e: 74 22                        	je	0x402592 <.text+0x402>
  402570: 89 ce                        	movl	%ecx, %esi
  402572: 81 ce 00 00 01 00            	orl	$65536, %esi
  402578: 89 f1                        	movl	%esi, %ecx
  40257a: 89 fa                        	movl	%edi, %edx
  40257c: 89 d8                        	movl	%ebx, %eax
  40257e: e8 3d ff ff ff               	calll	0x4024c0 <.text+0x330>
  402583: 85 c0                        	testl	%eax, %eax
  402585: 74 09                        	je	0x402590 <.text+0x400>
  402587: 83 c7 01                     	addl	$1, %edi
  40258a: 80 7f ff 00                  	cmpb	$0, -1(%edi)
  40258e: 75 e8                        	jne	0x402578 <.text+0x3e8>
  402590: 89 c2                        	movl	%eax, %edx
  402592: 83 c4 2c                     	addl	$44, %esp
  402595: 89 d0                        	movl	%edx, %eax
  402597: 5b                           	popl	%ebx
  402598: 5e                           	popl	%esi
  402599: 5f                           	popl	%edi
  40259a: 5d                           	popl	%ebp
  40259b: c3                           	retl
  40259c: 8d 74 26 00                  	leal	(%esi,%eiz), %esi
  4025a0: 0f be 16                     	movsbl	(%esi), %edx
  4025a3: 85 d2                        	testl	%edx, %edx
  4025a5: 0f 84 32 01 00 00            	je	0x4026dd <.text+0x54d>
  4025ab: 80 7d 01 21                  	cmpb	$33, 1(%ebp)
  4025af: 74 7f                        	je	0x402630 <.text+0x4a0>
  4025b1: 89 d8                        	movl	%ebx, %eax
  4025b3: 89 4c 24 10                  	movl	%ecx, 16(%esp)
  4025b7: e8 d4 fb ff ff               	calll	0x402190 <.text>
  4025bc: 89 c5                        	movl	%eax, %ebp
  4025be: 85 c0                        	testl	%eax, %eax
  4025c0: 0f 84 03 01 00 00            	je	0x4026c9 <.text+0x539>
  4025c6: 0f b6 00                     	movzbl	(%eax), %eax
  4025c9: 8b 4c 24 10                  	movl	16(%esp), %ecx
  4025cd: 0f be d0                     	movsbl	%al, %edx
  4025d0: 8d 5d 01                     	leal	1(%ebp), %ebx
  4025d3: 83 c6 01                     	addl	$1, %esi
  4025d6: 85 d2                        	testl	%edx, %edx
  4025d8: 0f 85 14 ff ff ff            	jne	0x4024f2 <.text+0x362>
  4025de: 0f b6 7f 01                  	movzbl	1(%edi), %edi
  4025e2: 89 f8                        	movl	%edi, %eax
  4025e4: 0f be d0                     	movsbl	%al, %edx
  4025e7: f7 da                        	negl	%edx
  4025e9: eb a7                        	jmp	0x402592 <.text+0x402>
  4025eb: 8d 74 26 00                  	leal	(%esi,%eiz), %esi
  4025ef: 90                           	nop
  4025f0: 80 3e 00                     	cmpb	$0, (%esi)
  4025f3: 0f 84 da 00 00 00            	je	0x4026d3 <.text+0x543>
  4025f9: 0f b6 03                     	movzbl	(%ebx), %eax
  4025fc: 89 dd                        	movl	%ebx, %ebp
  4025fe: eb cd                        	jmp	0x4025cd <.text+0x43d>
  402600: 89 d5                        	movl	%edx, %ebp
  402602: 29 c5                        	subl	%eax, %ebp
  402604: e9 49 ff ff ff               	jmp	0x402552 <.text+0x3c2>
  402609: 8d b4 26 00 00 00 00         	leal	(%esi,%eiz), %esi
  402610: 80 fa 2e                     	cmpb	$46, %dl
  402613: 74 5b                        	je	0x402670 <.text+0x4e0>
  402615: f7 c1 00 00 01 00            	testl	$65536, %ecx
  40261b: 0f 85 bd fe ff ff            	jne	0x4024de <.text+0x34e>
  402621: 83 ea 2e                     	subl	$46, %edx
  402624: e9 69 ff ff ff               	jmp	0x402592 <.text+0x402>
  402629: 8d b4 26 00 00 00 00         	leal	(%esi,%eiz), %esi
  402630: 8d 5d 02                     	leal	2(%ebp), %ebx
  402633: 89 4c 24 10                  	movl	%ecx, 16(%esp)
  402637: 89 d8                        	movl	%ebx, %eax
  402639: e8 52 fb ff ff               	calll	0x402190 <.text>
  40263e: 8b 4c 24 10                  	movl	16(%esp), %ecx
  402642: 89 c2                        	movl	%eax, %edx
  402644: 0f b6 45 02                  	movzbl	2(%ebp), %eax
  402648: 85 d2                        	testl	%edx, %edx
  40264a: 74 2c                        	je	0x402678 <.text+0x4e8>
  40264c: 89 dd                        	movl	%ebx, %ebp
  40264e: e9 7a ff ff ff               	jmp	0x4025cd <.text+0x43d>
  402653: 8d 74 26 00                  	leal	(%esi,%eiz), %esi
  402657: 90                           	nop
  402658: 0f be 55 01                  	movsbl	1(%ebp), %edx
  40265c: 85 d2                        	testl	%edx, %edx
  40265e: 0f 84 b2 fe ff ff            	je	0x402516 <.text+0x386>
  402664: 8d 5d 02                     	leal	2(%ebp), %ebx
  402667: e9 aa fe ff ff               	jmp	0x402516 <.text+0x386>
  40266c: 8d 74 26 00                  	leal	(%esi,%eiz), %esi
  402670: 8d 5d 01                     	leal	1(%ebp), %ebx
  402673: e9 71 fe ff ff               	jmp	0x4024e9 <.text+0x359>
  402678: 3c 5d                        	cmpb	$93, %al
  40267a: 75 0c                        	jne	0x402688 <.text+0x4f8>
  40267c: 0f b6 45 03                  	movzbl	3(%ebp), %eax
  402680: 8d 5d 03                     	leal	3(%ebp), %ebx
  402683: 8d 74 26 00                  	leal	(%esi,%eiz), %esi
  402687: 90                           	nop
  402688: 8d 6b 01                     	leal	1(%ebx), %ebp
  40268b: 3c 5d                        	cmpb	$93, %al
  40268d: 74 15                        	je	0x4026a4 <.text+0x514>
  40268f: 3c 7f                        	cmpb	$127, %al
  402691: 74 1d                        	je	0x4026b0 <.text+0x520>
  402693: 84 c0                        	testb	%al, %al
  402695: 74 32                        	je	0x4026c9 <.text+0x539>
  402697: 0f b6 43 01                  	movzbl	1(%ebx), %eax
  40269b: 89 eb                        	movl	%ebp, %ebx
  40269d: 8d 6b 01                     	leal	1(%ebx), %ebp
  4026a0: 3c 5d                        	cmpb	$93, %al
  4026a2: 75 eb                        	jne	0x40268f <.text+0x4ff>
  4026a4: 0f b6 43 01                  	movzbl	1(%ebx), %eax
  4026a8: e9 20 ff ff ff               	jmp	0x4025cd <.text+0x43d>
  4026ad: 8d 76 00                     	leal	(%esi), %esi
  4026b0: 8b 54 24 14                  	movl	20(%esp), %edx
  4026b4: 0f b6 43 01                  	movzbl	1(%ebx), %eax
  4026b8: 85 d2                        	testl	%edx, %edx
  4026ba: 75 09                        	jne	0x4026c5 <.text+0x535>
  4026bc: 8d 53 02                     	leal	2(%ebx), %edx
  4026bf: 89 eb                        	movl	%ebp, %ebx
  4026c1: 89 d5                        	movl	%edx, %ebp
  4026c3: eb ce                        	jmp	0x402693 <.text+0x503>
  4026c5: 89 eb                        	movl	%ebp, %ebx
  4026c7: eb bf                        	jmp	0x402688 <.text+0x4f8>
  4026c9: ba 5d 00 00 00               	movl	$93, %edx
  4026ce: e9 bf fe ff ff               	jmp	0x402592 <.text+0x402>
  4026d3: ba 3f 00 00 00               	movl	$63, %edx
  4026d8: e9 b5 fe ff ff               	jmp	0x402592 <.text+0x402>
  4026dd: ba 5b 00 00 00               	movl	$91, %edx
  4026e2: e9 ab fe ff ff               	jmp	0x402592 <.text+0x402>
  4026e7: 8d b4 26 00 00 00 00         	leal	(%esi,%eiz), %esi
  4026ee: 66 90                        	nop
  4026f0: 57                           	pushl	%edi
  4026f1: 8d 48 01                     	leal	1(%eax), %ecx
  4026f4: 56                           	pushl	%esi
  4026f5: 53                           	pushl	%ebx
  4026f6: 89 c3                        	movl	%eax, %ebx
  4026f8: 0f be 00                     	movsbl	(%eax), %eax
  4026fb: 85 c0                        	testl	%eax, %eax
  4026fd: 74 61                        	je	0x402760 <.text+0x5d0>
  4026ff: c1 ea 05                     	shrl	$5, %edx
  402702: 31 ff                        	xorl	%edi, %edi
  402704: 89 d6                        	movl	%edx, %esi
  402706: 83 f6 01                     	xorl	$1, %esi
  402709: 83 e6 01                     	andl	$1, %esi
  40270c: eb 23                        	jmp	0x402731 <.text+0x5a1>
  40270e: 66 90                        	nop
  402710: 83 f8 2a                     	cmpl	$42, %eax
  402713: 74 6b                        	je	0x402780 <.text+0x5f0>
  402715: 83 f8 3f                     	cmpl	$63, %eax
  402718: 74 66                        	je	0x402780 <.text+0x5f0>
  40271a: 83 f8 5b                     	cmpl	$91, %eax
  40271d: 89 cb                        	movl	%ecx, %ebx
  40271f: 0f 94 c0                     	sete	%al
  402722: 0f b6 c0                     	movzbl	%al, %eax
  402725: 89 c7                        	movl	%eax, %edi
  402727: 0f be 03                     	movsbl	(%ebx), %eax
  40272a: 83 c1 01                     	addl	$1, %ecx
  40272d: 85 c0                        	testl	%eax, %eax
  40272f: 74 2f                        	je	0x402760 <.text+0x5d0>
  402731: 83 f8 7f                     	cmpl	$127, %eax
  402734: 75 06                        	jne	0x40273c <.text+0x5ac>
  402736: 89 f2                        	movl	%esi, %edx
  402738: 84 d2                        	testb	%dl, %dl
  40273a: 75 2c                        	jne	0x402768 <.text+0x5d8>
  40273c: 85 ff                        	testl	%edi, %edi
  40273e: 74 d0                        	je	0x402710 <.text+0x580>
  402740: 83 ff 01                     	cmpl	$1, %edi
  402743: 7e 05                        	jle	0x40274a <.text+0x5ba>
  402745: 83 f8 5d                     	cmpl	$93, %eax
  402748: 74 36                        	je	0x402780 <.text+0x5f0>
  40274a: 89 cb                        	movl	%ecx, %ebx
  40274c: 83 f8 21                     	cmpl	$33, %eax
  40274f: 74 d6                        	je	0x402727 <.text+0x597>
  402751: 89 cb                        	movl	%ecx, %ebx
  402753: 83 c7 01                     	addl	$1, %edi
  402756: 83 c1 01                     	addl	$1, %ecx
  402759: 0f be 03                     	movsbl	(%ebx), %eax
  40275c: 85 c0                        	testl	%eax, %eax
  40275e: 75 d1                        	jne	0x402731 <.text+0x5a1>
  402760: 5b                           	popl	%ebx
  402761: 5e                           	popl	%esi
  402762: 5f                           	popl	%edi
  402763: c3                           	retl
  402764: 8d 74 26 00                  	leal	(%esi,%eiz), %esi
  402768: 80 7b 01 00                  	cmpb	$0, 1(%ebx)
  40276c: 8d 4b 02                     	leal	2(%ebx), %ecx
  40276f: 74 18                        	je	0x402789 <.text+0x5f9>
  402771: 85 ff                        	testl	%edi, %edi
  402773: 74 a5                        	je	0x40271a <.text+0x58a>
  402775: eb da                        	jmp	0x402751 <.text+0x5c1>
  402777: 8d b4 26 00 00 00 00         	leal	(%esi,%eiz), %esi
  40277e: 66 90                        	nop
  402780: 5b                           	popl	%ebx
  402781: b8 01 00 00 00               	movl	$1, %eax
  402786: 5e                           	popl	%esi
  402787: 5f                           	popl	%edi
  402788: c3                           	retl
  402789: 31 c0                        	xorl	%eax, %eax
  40278b: eb d3                        	jmp	0x402760 <.text+0x5d0>
  40278d: 8d 76 00                     	leal	(%esi), %esi
  402790: 57                           	pushl	%edi
  402791: 56                           	pushl	%esi
  402792: 89 c6                        	movl	%eax, %esi
  402794: 53                           	pushl	%ebx
  402795: 89 d3                        	movl	%edx, %ebx
  402797: 83 ec 10                     	subl	$16, %esp
  40279a: 8b 42 0c                     	movl	12(%edx), %eax
  40279d: 03 42 04                     	addl	4(%edx), %eax
  4027a0: 8d 04 85 08 00 00 00         	leal	8(,%eax,4), %eax
  4027a7: 89 44 24 04                  	movl	%eax, 4(%esp)
  4027ab: 8b 42 08                     	movl	8(%edx), %eax
  4027ae: 89 04 24                     	movl	%eax, (%esp)
  4027b1: e8 1a 15 00 00               	calll	0x403cd0 <___mingw_realloc>
  4027b6: 85 c0                        	testl	%eax, %eax
  4027b8: 74 26                        	je	0x4027e0 <.text+0x650>
  4027ba: 8b 4b 04                     	movl	4(%ebx), %ecx
  4027bd: 8b 53 0c                     	movl	12(%ebx), %edx
  4027c0: 89 43 08                     	movl	%eax, 8(%ebx)
  4027c3: 8d 79 01                     	leal	1(%ecx), %edi
  4027c6: 01 d1                        	addl	%edx, %ecx
  4027c8: 01 fa                        	addl	%edi, %edx
  4027ca: 89 7b 04                     	movl	%edi, 4(%ebx)
  4027cd: 89 34 88                     	movl	%esi, (%eax,%ecx,4)
  4027d0: c7 04 90 00 00 00 00         	movl	$0, (%eax,%edx,4)
  4027d7: 83 c4 10                     	addl	$16, %esp
  4027da: 31 c0                        	xorl	%eax, %eax
  4027dc: 5b                           	popl	%ebx
  4027dd: 5e                           	popl	%esi
  4027de: 5f                           	popl	%edi
  4027df: c3                           	retl
  4027e0: 83 c4 10                     	addl	$16, %esp
  4027e3: b8 01 00 00 00               	movl	$1, %eax
  4027e8: 5b                           	popl	%ebx
  4027e9: 5e                           	popl	%esi
  4027ea: 5f                           	popl	%edi
  4027eb: c3                           	retl
  4027ec: 8d 74 26 00                  	leal	(%esi,%eiz), %esi
  4027f0: 56                           	pushl	%esi
  4027f1: 89 d6                        	movl	%edx, %esi
  4027f3: 53                           	pushl	%ebx
  4027f4: 89 c3                        	movl	%eax, %ebx
  4027f6: 83 ec 14                     	subl	$20, %esp
  4027f9: 8b 00                        	movl	(%eax), %eax
  4027fb: 85 c0                        	testl	%eax, %eax
  4027fd: 74 05                        	je	0x402804 <.text+0x674>
  4027ff: e8 ec ff ff ff               	calll	0x4027f0 <.text+0x660>
  402804: 8b 43 08                     	movl	8(%ebx), %eax
  402807: 85 c0                        	testl	%eax, %eax
  402809: 74 04                        	je	0x40280f <.text+0x67f>
  40280b: 85 f6                        	testl	%esi, %esi
  40280d: 75 21                        	jne	0x402830 <.text+0x6a0>
  40280f: 8b 43 04                     	movl	4(%ebx), %eax
  402812: 85 c0                        	testl	%eax, %eax
  402814: 74 07                        	je	0x40281d <.text+0x68d>
  402816: 89 f2                        	movl	%esi, %edx
  402818: e8 d3 ff ff ff               	calll	0x4027f0 <.text+0x660>
  40281d: 89 1c 24                     	movl	%ebx, (%esp)
  402820: e8 3b f9 ff ff               	calll	0x402160 <___mingw_free>
  402825: 83 c4 14                     	addl	$20, %esp
  402828: 5b                           	popl	%ebx
  402829: 5e                           	popl	%esi
  40282a: c3                           	retl
  40282b: 8d 74 26 00                  	leal	(%esi,%eiz), %esi
  40282f: 90                           	nop
  402830: 89 f2                        	movl	%esi, %edx
  402832: e8 59 ff ff ff               	calll	0x402790 <.text+0x600>
  402837: eb d6                        	jmp	0x40280f <.text+0x67f>
  402839: 8d b4 26 00 00 00 00         	leal	(%esi,%eiz), %esi
  402840: 56                           	pushl	%esi
  402841: 89 c6                        	movl	%eax, %esi
  402843: 53                           	pushl	%ebx
  402844: 83 ec 14                     	subl	$20, %esp
  402847: 8b 40 0c                     	movl	12(%eax), %eax
  40284a: 8d 58 01                     	leal	1(%eax), %ebx
  40284d: 8d 04 9d 00 00 00 00         	leal	(,%ebx,4), %eax
  402854: 89 04 24                     	movl	%eax, (%esp)
  402857: e8 80 16 00 00               	calll	0x403edc <_malloc>
  40285c: 89 46 08                     	movl	%eax, 8(%esi)
  40285f: 85 c0                        	testl	%eax, %eax
  402861: 74 21                        	je	0x402884 <.text+0x6f4>
  402863: c7 46 04 00 00 00 00         	movl	$0, 4(%esi)
  40286a: 85 db                        	testl	%ebx, %ebx
  40286c: 7e 0e                        	jle	0x40287c <.text+0x6ec>
  40286e: 66 90                        	nop
  402870: 83 eb 01                     	subl	$1, %ebx
  402873: c7 04 98 00 00 00 00         	movl	$0, (%eax,%ebx,4)
  40287a: 75 f4                        	jne	0x402870 <.text+0x6e0>
  40287c: 31 c0                        	xorl	%eax, %eax
  40287e: 83 c4 14                     	addl	$20, %esp
  402881: 5b                           	popl	%ebx
  402882: 5e                           	popl	%esi
  402883: c3                           	retl
  402884: b8 03 00 00 00               	movl	$3, %eax
  402889: eb f3                        	jmp	0x40287e <.text+0x6ee>
  40288b: 8d 74 26 00                  	leal	(%esi,%eiz), %esi
  40288f: 90                           	nop
  402890: 55                           	pushl	%ebp
  402891: 89 e5                        	movl	%esp, %ebp
  402893: 57                           	pushl	%edi
  402894: 56                           	pushl	%esi
  402895: 53                           	pushl	%ebx
  402896: 83 ec 6c                     	subl	$108, %esp
  402899: 89 45 c4                     	movl	%eax, -60(%ebp)
  40289c: 89 55 d0                     	movl	%edx, -48(%ebp)
  40289f: 89 4d c8                     	movl	%ecx, -56(%ebp)
  4028a2: 80 e6 04                     	andb	$4, %dh
  4028a5: 0f 85 3d 01 00 00            	jne	0x4029e8 <.text+0x858>
  4028ab: 8b 7d c4                     	movl	-60(%ebp), %edi
  4028ae: 89 65 bc                     	movl	%esp, -68(%ebp)
  4028b1: 89 3c 24                     	movl	%edi, (%esp)
  4028b4: e8 cb 15 00 00               	calll	0x403e84 <_strlen>
  4028b9: 8d 50 01                     	leal	1(%eax), %edx
  4028bc: 83 c0 10                     	addl	$16, %eax
  4028bf: c1 e8 04                     	shrl	$4, %eax
  4028c2: c1 e0 04                     	shll	$4, %eax
  4028c5: e8 66 15 00 00               	calll	0x403e30 <___chkstk_ms>
  4028ca: 29 c4                        	subl	%eax, %esp
  4028cc: 8d 44 24 0c                  	leal	12(%esp), %eax
  4028d0: 89 54 24 08                  	movl	%edx, 8(%esp)
  4028d4: 89 7c 24 04                  	movl	%edi, 4(%esp)
  4028d8: 89 04 24                     	movl	%eax, (%esp)
  4028db: e8 ec 15 00 00               	calll	0x403ecc <_memcpy>
  4028e0: 89 04 24                     	movl	%eax, (%esp)
  4028e3: e8 a8 09 00 00               	calll	0x403290 <___mingw_dirname>
  4028e8: c7 45 e4 00 00 00 00         	movl	$0, -28(%ebp)
  4028ef: 89 45 c0                     	movl	%eax, -64(%ebp)
  4028f2: 89 c7                        	movl	%eax, %edi
  4028f4: 8d 45 d8                     	leal	-40(%ebp), %eax
  4028f7: e8 44 ff ff ff               	calll	0x402840 <.text+0x6b0>
  4028fc: 89 45 d4                     	movl	%eax, -44(%ebp)
  4028ff: 85 c0                        	testl	%eax, %eax
  402901: 0f 85 81 03 00 00            	jne	0x402c88 <.text+0xaf8>
  402907: 85 ff                        	testl	%edi, %edi
  402909: 74 12                        	je	0x40291d <.text+0x78d>
  40290b: 8b 55 d0                     	movl	-48(%ebp), %edx
  40290e: 89 f8                        	movl	%edi, %eax
  402910: e8 db fd ff ff               	calll	0x4026f0 <.text+0x560>
  402915: 85 c0                        	testl	%eax, %eax
  402917: 0f 85 f9 05 00 00            	jne	0x402f16 <.text+0xd86>
  40291d: 8b 75 c0                     	movl	-64(%ebp), %esi
  402920: 89 e3                        	movl	%esp, %ebx
  402922: 89 34 24                     	movl	%esi, (%esp)
  402925: e8 5a 15 00 00               	calll	0x403e84 <_strlen>
  40292a: 83 c0 10                     	addl	$16, %eax
  40292d: c1 e8 04                     	shrl	$4, %eax
  402930: c1 e0 04                     	shll	$4, %eax
  402933: e8 f8 14 00 00               	calll	0x403e30 <___chkstk_ms>
  402938: 29 c4                        	subl	%eax, %esp
  40293a: 89 f2                        	movl	%esi, %edx
  40293c: 8d 7c 24 0c                  	leal	12(%esp), %edi
  402940: 89 f9                        	movl	%edi, %ecx
  402942: eb 10                        	jmp	0x402954 <.text+0x7c4>
  402944: 8d 74 26 00                  	leal	(%esi,%eiz), %esi
  402948: 83 c1 01                     	addl	$1, %ecx
  40294b: 89 f2                        	movl	%esi, %edx
  40294d: 88 41 ff                     	movb	%al, -1(%ecx)
  402950: 84 c0                        	testb	%al, %al
  402952: 74 1b                        	je	0x40296f <.text+0x7df>
  402954: 0f b6 02                     	movzbl	(%edx), %eax
  402957: 8d 72 01                     	leal	1(%edx), %esi
  40295a: 3c 7f                        	cmpb	$127, %al
  40295c: 75 ea                        	jne	0x402948 <.text+0x7b8>
  40295e: 0f b6 42 01                  	movzbl	1(%edx), %eax
  402962: 83 c1 01                     	addl	$1, %ecx
  402965: 83 c2 02                     	addl	$2, %edx
  402968: 88 41 ff                     	movb	%al, -1(%ecx)
  40296b: 84 c0                        	testb	%al, %al
  40296d: 75 e5                        	jne	0x402954 <.text+0x7c4>
  40296f: 89 3c 24                     	movl	%edi, (%esp)
  402972: e8 ed 14 00 00               	calll	0x403e64 <_strdup>
  402977: c7 45 d4 01 00 00 00         	movl	$1, -44(%ebp)
  40297e: 89 dc                        	movl	%ebx, %esp
  402980: 85 c0                        	testl	%eax, %eax
  402982: 0f 84 00 03 00 00            	je	0x402c88 <.text+0xaf8>
  402988: 8d 55 d8                     	leal	-40(%ebp), %edx
  40298b: e8 00 fe ff ff               	calll	0x402790 <.text+0x600>
  402990: 89 45 d4                     	movl	%eax, -44(%ebp)
  402993: 8b 4d d4                     	movl	-44(%ebp), %ecx
  402996: 85 c9                        	testl	%ecx, %ecx
  402998: 0f 85 ea 02 00 00            	jne	0x402c88 <.text+0xaf8>
  40299e: 8b 5d c4                     	movl	-60(%ebp), %ebx
  4029a1: 0f b6 43 01                  	movzbl	1(%ebx), %eax
  4029a5: 3c 2f                        	cmpb	$47, %al
  4029a7: 0f 84 33 03 00 00            	je	0x402ce0 <.text+0xb50>
  4029ad: 3c 5c                        	cmpb	$92, %al
  4029af: 0f 84 2b 03 00 00            	je	0x402ce0 <.text+0xb50>
  4029b5: 8b 45 c0                     	movl	-64(%ebp), %eax
  4029b8: 80 38 2e                     	cmpb	$46, (%eax)
  4029bb: 0f 85 1f 03 00 00            	jne	0x402ce0 <.text+0xb50>
  4029c1: 80 78 01 00                  	cmpb	$0, 1(%eax)
  4029c5: 0f 85 15 03 00 00            	jne	0x402ce0 <.text+0xb50>
  4029cb: f6 45 d0 10                  	testb	$16, -48(%ebp)
  4029cf: 0f 85 af 06 00 00            	jne	0x403084 <.text+0xef4>
  4029d5: c6 45 9f 5c                  	movb	$92, -97(%ebp)
  4029d9: c7 45 c0 00 00 00 00         	movl	$0, -64(%ebp)
  4029e0: e9 4e 03 00 00               	jmp	0x402d33 <.text+0xba3>
  4029e5: 8d 76 00                     	leal	(%esi), %esi
  4029e8: 89 65 b8                     	movl	%esp, -72(%ebp)
  4029eb: 89 c6                        	movl	%eax, %esi
  4029ed: 89 04 24                     	movl	%eax, (%esp)
  4029f0: e8 8f 14 00 00               	calll	0x403e84 <_strlen>
  4029f5: 83 c0 10                     	addl	$16, %eax
  4029f8: c1 e8 04                     	shrl	$4, %eax
  4029fb: c1 e0 04                     	shll	$4, %eax
  4029fe: e8 2d 14 00 00               	calll	0x403e30 <___chkstk_ms>
  402a03: 0f b6 1e                     	movzbl	(%esi), %ebx
  402a06: 29 c4                        	subl	%eax, %esp
  402a08: 8d 7c 24 0c                  	leal	12(%esp), %edi
  402a0c: 89 7d bc                     	movl	%edi, -68(%ebp)
  402a0f: 8d 4e 01                     	leal	1(%esi), %ecx
  402a12: 80 fb 7f                     	cmpb	$127, %bl
  402a15: 74 22                        	je	0x402a39 <.text+0x8a9>
  402a17: 80 fb 7b                     	cmpb	$123, %bl
  402a1a: 74 44                        	je	0x402a60 <.text+0x8d0>
  402a1c: 88 1f                        	movb	%bl, (%edi)
  402a1e: 8d 47 01                     	leal	1(%edi), %eax
  402a21: 84 db                        	testb	%bl, %bl
  402a23: 0f 84 99 02 00 00            	je	0x402cc2 <.text+0xb32>
  402a29: 0f b6 5e 01                  	movzbl	1(%esi), %ebx
  402a2d: 89 ce                        	movl	%ecx, %esi
  402a2f: 89 c7                        	movl	%eax, %edi
  402a31: 8d 4e 01                     	leal	1(%esi), %ecx
  402a34: 80 fb 7f                     	cmpb	$127, %bl
  402a37: 75 de                        	jne	0x402a17 <.text+0x887>
  402a39: 0f b6 5e 01                  	movzbl	1(%esi), %ebx
  402a3d: c6 07 7f                     	movb	$127, (%edi)
  402a40: 84 db                        	testb	%bl, %bl
  402a42: 75 0c                        	jne	0x402a50 <.text+0x8c0>
  402a44: 8d 46 02                     	leal	2(%esi), %eax
  402a47: 83 c7 01                     	addl	$1, %edi
  402a4a: 89 ce                        	movl	%ecx, %esi
  402a4c: 89 c1                        	movl	%eax, %ecx
  402a4e: eb cc                        	jmp	0x402a1c <.text+0x88c>
  402a50: 88 5f 01                     	movb	%bl, 1(%edi)
  402a53: 83 c6 02                     	addl	$2, %esi
  402a56: 0f b6 1e                     	movzbl	(%esi), %ebx
  402a59: 83 c7 02                     	addl	$2, %edi
  402a5c: eb b1                        	jmp	0x402a0f <.text+0x87f>
  402a5e: 66 90                        	nop
  402a60: 0f b6 5e 01                  	movzbl	1(%esi), %ebx
  402a64: 89 f2                        	movl	%esi, %edx
  402a66: 89 75 c0                     	movl	%esi, -64(%ebp)
  402a69: 89 4d d4                     	movl	%ecx, -44(%ebp)
  402a6c: 8d 72 01                     	leal	1(%edx), %esi
  402a6f: b9 01 00 00 00               	movl	$1, %ecx
  402a74: 89 d8                        	movl	%ebx, %eax
  402a76: c7 45 cc 2c 00 00 00         	movl	$44, -52(%ebp)
  402a7d: 3c 7b                        	cmpb	$123, %al
  402a7f: 74 2b                        	je	0x402aac <.text+0x91c>
  402a81: 8d b4 26 00 00 00 00         	leal	(%esi,%eiz), %esi
  402a88: 7f 36                        	jg	0x402ac0 <.text+0x930>
  402a8a: 84 c0                        	testb	%al, %al
  402a8c: 0f 84 1e 01 00 00            	je	0x402bb0 <.text+0xa20>
  402a92: 3c 2c                        	cmpb	$44, %al
  402a94: 75 09                        	jne	0x402a9f <.text+0x90f>
  402a96: 83 f9 01                     	cmpl	$1, %ecx
  402a99: 0f 84 11 02 00 00            	je	0x402cb0 <.text+0xb20>
  402a9f: 0f b6 42 02                  	movzbl	2(%edx), %eax
  402aa3: 89 f2                        	movl	%esi, %edx
  402aa5: 8d 72 01                     	leal	1(%edx), %esi
  402aa8: 3c 7b                        	cmpb	$123, %al
  402aaa: 75 dc                        	jne	0x402a88 <.text+0x8f8>
  402aac: 0f b6 42 02                  	movzbl	2(%edx), %eax
  402ab0: 83 c1 01                     	addl	$1, %ecx
  402ab3: 89 f2                        	movl	%esi, %edx
  402ab5: eb ee                        	jmp	0x402aa5 <.text+0x915>
  402ab7: 8d b4 26 00 00 00 00         	leal	(%esi,%eiz), %esi
  402abe: 66 90                        	nop
  402ac0: 3c 7d                        	cmpb	$125, %al
  402ac2: 0f 85 18 01 00 00            	jne	0x402be0 <.text+0xa50>
  402ac8: 83 e9 01                     	subl	$1, %ecx
  402acb: 75 d2                        	jne	0x402a9f <.text+0x90f>
  402acd: 83 7d cc 7b                  	cmpl	$123, -52(%ebp)
  402ad1: 8b 75 c0                     	movl	-64(%ebp), %esi
  402ad4: 8b 4d d4                     	movl	-44(%ebp), %ecx
  402ad7: 0f 85 d6 00 00 00            	jne	0x402bb3 <.text+0xa23>
  402add: 89 7d d4                     	movl	%edi, -44(%ebp)
  402ae0: 8b 7d d0                     	movl	-48(%ebp), %edi
  402ae3: 8b 45 d4                     	movl	-44(%ebp), %eax
  402ae6: ba 01 00 00 00               	movl	$1, %edx
  402aeb: 80 fb 7f                     	cmpb	$127, %bl
  402aee: 0f 84 98 00 00 00            	je	0x402b8c <.text+0x9fc>
  402af4: 8d 74 26 00                  	leal	(%esi,%eiz), %esi
  402af8: 83 c6 01                     	addl	$1, %esi
  402afb: 89 c1                        	movl	%eax, %ecx
  402afd: 80 fb 7d                     	cmpb	$125, %bl
  402b00: 74 6e                        	je	0x402b70 <.text+0x9e0>
  402b02: 80 fb 2c                     	cmpb	$44, %bl
  402b05: 0f 85 b5 00 00 00            	jne	0x402bc0 <.text+0xa30>
  402b0b: 83 fa 01                     	cmpl	$1, %edx
  402b0e: 0f 85 ac 00 00 00            	jne	0x402bc0 <.text+0xa30>
  402b14: 89 f2                        	movl	%esi, %edx
  402b16: bb 01 00 00 00               	movl	$1, %ebx
  402b1b: 8d 74 26 00                  	leal	(%esi,%eiz), %esi
  402b1f: 90                           	nop
  402b20: 8d 42 01                     	leal	1(%edx), %eax
  402b23: 0f b6 52 01                  	movzbl	1(%edx), %edx
  402b27: 80 fa 7f                     	cmpb	$127, %dl
  402b2a: 74 1c                        	je	0x402b48 <.text+0x9b8>
  402b2c: e9 ef 00 00 00               	jmp	0x402c20 <.text+0xa90>
  402b31: 8d b4 26 00 00 00 00         	leal	(%esi,%eiz), %esi
  402b38: 0f b6 50 02                  	movzbl	2(%eax), %edx
  402b3c: 83 c0 02                     	addl	$2, %eax
  402b3f: 80 fa 7f                     	cmpb	$127, %dl
  402b42: 0f 85 d8 00 00 00            	jne	0x402c20 <.text+0xa90>
  402b48: 80 78 01 00                  	cmpb	$0, 1(%eax)
  402b4c: 75 ea                        	jne	0x402b38 <.text+0x9a8>
  402b4e: c6 01 00                     	movb	$0, (%ecx)
  402b51: c7 45 d4 01 00 00 00         	movl	$1, -44(%ebp)
  402b58: 8b 65 b8                     	movl	-72(%ebp), %esp
  402b5b: 8b 45 d4                     	movl	-44(%ebp), %eax
  402b5e: 8d 65 f4                     	leal	-12(%ebp), %esp
  402b61: 5b                           	popl	%ebx
  402b62: 5e                           	popl	%esi
  402b63: 5f                           	popl	%edi
  402b64: 5d                           	popl	%ebp
  402b65: c3                           	retl
  402b66: 8d b4 26 00 00 00 00         	leal	(%esi,%eiz), %esi
  402b6d: 8d 76 00                     	leal	(%esi), %esi
  402b70: 83 ea 01                     	subl	$1, %edx
  402b73: 0f 84 c7 00 00 00            	je	0x402c40 <.text+0xab0>
  402b79: c6 01 7d                     	movb	$125, (%ecx)
  402b7c: 8d 41 01                     	leal	1(%ecx), %eax
  402b7f: 0f b6 5e 01                  	movzbl	1(%esi), %ebx
  402b83: 80 fb 7f                     	cmpb	$127, %bl
  402b86: 0f 85 6c ff ff ff            	jne	0x402af8 <.text+0x968>
  402b8c: 0f b6 5e 02                  	movzbl	2(%esi), %ebx
  402b90: c6 00 7f                     	movb	$127, (%eax)
  402b93: 8d 48 02                     	leal	2(%eax), %ecx
  402b96: 88 58 01                     	movb	%bl, 1(%eax)
  402b99: 84 db                        	testb	%bl, %bl
  402b9b: 74 6b                        	je	0x402c08 <.text+0xa78>
  402b9d: 0f b6 5e 03                  	movzbl	3(%esi), %ebx
  402ba1: 83 c6 03                     	addl	$3, %esi
  402ba4: e9 54 ff ff ff               	jmp	0x402afd <.text+0x96d>
  402ba9: 8d b4 26 00 00 00 00         	leal	(%esi,%eiz), %esi
  402bb0: 8b 4d d4                     	movl	-44(%ebp), %ecx
  402bb3: c6 07 7b                     	movb	$123, (%edi)
  402bb6: 89 ce                        	movl	%ecx, %esi
  402bb8: 83 c7 01                     	addl	$1, %edi
  402bbb: e9 4f fe ff ff               	jmp	0x402a0f <.text+0x87f>
  402bc0: 8d 41 01                     	leal	1(%ecx), %eax
  402bc3: 80 fb 7b                     	cmpb	$123, %bl
  402bc6: 75 08                        	jne	0x402bd0 <.text+0xa40>
  402bc8: c6 01 7b                     	movb	$123, (%ecx)
  402bcb: 83 c2 01                     	addl	$1, %edx
  402bce: eb af                        	jmp	0x402b7f <.text+0x9ef>
  402bd0: 88 19                        	movb	%bl, (%ecx)
  402bd2: 84 db                        	testb	%bl, %bl
  402bd4: 75 a9                        	jne	0x402b7f <.text+0x9ef>
  402bd6: eb 34                        	jmp	0x402c0c <.text+0xa7c>
  402bd8: 8d b4 26 00 00 00 00         	leal	(%esi,%eiz), %esi
  402bdf: 90                           	nop
  402be0: 3c 7f                        	cmpb	$127, %al
  402be2: 0f 85 b7 fe ff ff            	jne	0x402a9f <.text+0x90f>
  402be8: 0f b6 42 02                  	movzbl	2(%edx), %eax
  402bec: 84 c0                        	testb	%al, %al
  402bee: 0f 84 af fe ff ff            	je	0x402aa3 <.text+0x913>
  402bf4: 8d 72 02                     	leal	2(%edx), %esi
  402bf7: 0f b6 42 03                  	movzbl	3(%edx), %eax
  402bfb: 89 f2                        	movl	%esi, %edx
  402bfd: e9 a3 fe ff ff               	jmp	0x402aa5 <.text+0x915>
  402c02: 8d b6 00 00 00 00            	leal	(%esi), %esi
  402c08: c6 40 02 00                  	movb	$0, 2(%eax)
  402c0c: c7 45 d4 01 00 00 00         	movl	$1, -44(%ebp)
  402c13: e9 40 ff ff ff               	jmp	0x402b58 <.text+0x9c8>
  402c18: 8d b4 26 00 00 00 00         	leal	(%esi,%eiz), %esi
  402c1f: 90                           	nop
  402c20: 80 fa 7b                     	cmpb	$123, %dl
  402c23: 74 7b                        	je	0x402ca0 <.text+0xb10>
  402c25: 80 fa 7d                     	cmpb	$125, %dl
  402c28: 0f 84 a2 00 00 00            	je	0x402cd0 <.text+0xb40>
  402c2e: 84 d2                        	testb	%dl, %dl
  402c30: 0f 84 18 ff ff ff            	je	0x402b4e <.text+0x9be>
  402c36: 89 c2                        	movl	%eax, %edx
  402c38: e9 e3 fe ff ff               	jmp	0x402b20 <.text+0x990>
  402c3d: 8d 76 00                     	leal	(%esi), %esi
  402c40: 89 f0                        	movl	%esi, %eax
  402c42: 83 c0 01                     	addl	$1, %eax
  402c45: 8d 76 00                     	leal	(%esi), %esi
  402c48: 0f b6 10                     	movzbl	(%eax), %edx
  402c4b: 83 c1 01                     	addl	$1, %ecx
  402c4e: 83 c0 01                     	addl	$1, %eax
  402c51: 88 51 ff                     	movb	%dl, -1(%ecx)
  402c54: 84 d2                        	testb	%dl, %dl
  402c56: 75 f0                        	jne	0x402c48 <.text+0xab8>
  402c58: 8b 45 08                     	movl	8(%ebp), %eax
  402c5b: 89 fa                        	movl	%edi, %edx
  402c5d: 83 cf 01                     	orl	$1, %edi
  402c60: 89 04 24                     	movl	%eax, (%esp)
  402c63: 8b 4d c8                     	movl	-56(%ebp), %ecx
  402c66: 8b 45 bc                     	movl	-68(%ebp), %eax
  402c69: e8 22 fc ff ff               	calll	0x402890 <.text+0x700>
  402c6e: 83 f8 01                     	cmpl	$1, %eax
  402c71: 74 99                        	je	0x402c0c <.text+0xa7c>
  402c73: 80 3e 2c                     	cmpb	$44, (%esi)
  402c76: 0f 85 92 02 00 00            	jne	0x402f0e <.text+0xd7e>
  402c7c: 0f b6 5e 01                  	movzbl	1(%esi), %ebx
  402c80: e9 5e fe ff ff               	jmp	0x402ae3 <.text+0x953>
  402c85: 8d 76 00                     	leal	(%esi), %esi
  402c88: 8b 45 d4                     	movl	-44(%ebp), %eax
  402c8b: 8b 65 bc                     	movl	-68(%ebp), %esp
  402c8e: 8d 65 f4                     	leal	-12(%ebp), %esp
  402c91: 5b                           	popl	%ebx
  402c92: 5e                           	popl	%esi
  402c93: 5f                           	popl	%edi
  402c94: 5d                           	popl	%ebp
  402c95: c3                           	retl
  402c96: 8d b4 26 00 00 00 00         	leal	(%esi,%eiz), %esi
  402c9d: 8d 76 00                     	leal	(%esi), %esi
  402ca0: 83 c3 01                     	addl	$1, %ebx
  402ca3: 89 c2                        	movl	%eax, %edx
  402ca5: e9 76 fe ff ff               	jmp	0x402b20 <.text+0x990>
  402caa: 8d b6 00 00 00 00            	leal	(%esi), %esi
  402cb0: 0f b6 42 02                  	movzbl	2(%edx), %eax
  402cb4: c7 45 cc 7b 00 00 00         	movl	$123, -52(%ebp)
  402cbb: 89 f2                        	movl	%esi, %edx
  402cbd: e9 e3 fd ff ff               	jmp	0x402aa5 <.text+0x915>
  402cc2: 8b 65 b8                     	movl	-72(%ebp), %esp
  402cc5: e9 e1 fb ff ff               	jmp	0x4028ab <.text+0x71b>
  402cca: 8d b6 00 00 00 00            	leal	(%esi), %esi
  402cd0: 83 eb 01                     	subl	$1, %ebx
  402cd3: 0f 84 69 ff ff ff            	je	0x402c42 <.text+0xab2>
  402cd9: 89 c2                        	movl	%eax, %edx
  402cdb: e9 40 fe ff ff               	jmp	0x402b20 <.text+0x990>
  402ce0: 8b 45 c0                     	movl	-64(%ebp), %eax
  402ce3: 89 04 24                     	movl	%eax, (%esp)
  402ce6: e8 99 11 00 00               	calll	0x403e84 <_strlen>
  402ceb: 8b 7d c4                     	movl	-60(%ebp), %edi
  402cee: 8b 55 c4                     	movl	-60(%ebp), %edx
  402cf1: 8d 1c 07                     	leal	(%edi,%eax), %ebx
  402cf4: 0f b6 03                     	movzbl	(%ebx), %eax
  402cf7: 39 df                        	cmpl	%ebx, %edi
  402cf9: 73 17                        	jae	0x402d12 <.text+0xb82>
  402cfb: 8d 74 26 00                  	leal	(%esi,%eiz), %esi
  402cff: 90                           	nop
  402d00: 3c 2f                        	cmpb	$47, %al
  402d02: 74 1c                        	je	0x402d20 <.text+0xb90>
  402d04: 3c 5c                        	cmpb	$92, %al
  402d06: 74 0a                        	je	0x402d12 <.text+0xb82>
  402d08: 83 eb 01                     	subl	$1, %ebx
  402d0b: 0f b6 03                     	movzbl	(%ebx), %eax
  402d0e: 39 da                        	cmpl	%ebx, %edx
  402d10: 75 ee                        	jne	0x402d00 <.text+0xb70>
  402d12: 3c 2f                        	cmpb	$47, %al
  402d14: 74 0a                        	je	0x402d20 <.text+0xb90>
  402d16: 3c 5c                        	cmpb	$92, %al
  402d18: 74 06                        	je	0x402d20 <.text+0xb90>
  402d1a: c6 45 9f 5c                  	movb	$92, -97(%ebp)
  402d1e: eb 13                        	jmp	0x402d33 <.text+0xba3>
  402d20: 83 c3 01                     	addl	$1, %ebx
  402d23: 89 c2                        	movl	%eax, %edx
  402d25: 0f b6 03                     	movzbl	(%ebx), %eax
  402d28: 3c 2f                        	cmpb	$47, %al
  402d2a: 74 f4                        	je	0x402d20 <.text+0xb90>
  402d2c: 3c 5c                        	cmpb	$92, %al
  402d2e: 74 f0                        	je	0x402d20 <.text+0xb90>
  402d30: 88 55 9f                     	movb	%dl, -97(%ebp)
  402d33: 8b 7d e0                     	movl	-32(%ebp), %edi
  402d36: c7 45 d4 02 00 00 00         	movl	$2, -44(%ebp)
  402d3d: 8b 07                        	movl	(%edi), %eax
  402d3f: 85 c0                        	testl	%eax, %eax
  402d41: 0f 84 36 02 00 00            	je	0x402f7d <.text+0xded>
  402d47: 8b 4d d0                     	movl	-48(%ebp), %ecx
  402d4a: 89 5d b8                     	movl	%ebx, -72(%ebp)
  402d4d: 89 fb                        	movl	%edi, %ebx
  402d4f: 81 e1 00 80 00 00            	andl	$32768, %ecx
  402d55: 89 4d c4                     	movl	%ecx, -60(%ebp)
  402d58: eb 4c                        	jmp	0x402da6 <.text+0xc16>
  402d5a: 8d b6 00 00 00 00            	leal	(%esi), %esi
  402d60: f6 45 d0 04                  	testb	$4, -48(%ebp)
  402d64: 75 22                        	jne	0x402d88 <.text+0xbf8>
  402d66: 8b 7d c8                     	movl	-56(%ebp), %edi
  402d69: 85 ff                        	testl	%edi, %edi
  402d6b: 74 22                        	je	0x402d8f <.text+0xbff>
  402d6d: e8 aa 11 00 00               	calll	0x403f1c <__errno>
  402d72: 8b 00                        	movl	(%eax), %eax
  402d74: 89 44 24 04                  	movl	%eax, 4(%esp)
  402d78: 8b 03                        	movl	(%ebx), %eax
  402d7a: 89 04 24                     	movl	%eax, (%esp)
  402d7d: ff d7                        	calll	*%edi
  402d7f: 85 c0                        	testl	%eax, %eax
  402d81: 74 0c                        	je	0x402d8f <.text+0xbff>
  402d83: 8d 74 26 00                  	leal	(%esi,%eiz), %esi
  402d87: 90                           	nop
  402d88: c7 45 d4 01 00 00 00         	movl	$1, -44(%ebp)
  402d8f: 8b 03                        	movl	(%ebx), %eax
  402d91: 83 c3 04                     	addl	$4, %ebx
  402d94: 89 04 24                     	movl	%eax, (%esp)
  402d97: e8 c4 f3 ff ff               	calll	0x402160 <___mingw_free>
  402d9c: 8b 03                        	movl	(%ebx), %eax
  402d9e: 85 c0                        	testl	%eax, %eax
  402da0: 0f 84 e7 01 00 00            	je	0x402f8d <.text+0xdfd>
  402da6: 83 7d d4 01                  	cmpl	$1, -44(%ebp)
  402daa: 74 dc                        	je	0x402d88 <.text+0xbf8>
  402dac: 89 04 24                     	movl	%eax, (%esp)
  402daf: e8 ac 0a 00 00               	calll	0x403860 <___mingw_opendir>
  402db4: 89 45 cc                     	movl	%eax, -52(%ebp)
  402db7: 85 c0                        	testl	%eax, %eax
  402db9: 74 a5                        	je	0x402d60 <.text+0xbd0>
  402dbb: 8b 45 c0                     	movl	-64(%ebp), %eax
  402dbe: c7 45 b4 00 00 00 00         	movl	$0, -76(%ebp)
  402dc5: 85 c0                        	testl	%eax, %eax
  402dc7: 74 0d                        	je	0x402dd6 <.text+0xc46>
  402dc9: 8b 03                        	movl	(%ebx), %eax
  402dcb: 89 04 24                     	movl	%eax, (%esp)
  402dce: e8 b1 10 00 00               	calll	0x403e84 <_strlen>
  402dd3: 89 45 b4                     	movl	%eax, -76(%ebp)
  402dd6: 8b 45 b4                     	movl	-76(%ebp), %eax
  402dd9: c7 45 b0 00 00 00 00         	movl	$0, -80(%ebp)
  402de0: 83 c0 02                     	addl	$2, %eax
  402de3: 89 45 a0                     	movl	%eax, -96(%ebp)
  402de6: 8d b4 26 00 00 00 00         	leal	(%esi,%eiz), %esi
  402ded: 8d 76 00                     	leal	(%esi), %esi
  402df0: 8b 45 cc                     	movl	-52(%ebp), %eax
  402df3: 89 04 24                     	movl	%eax, (%esp)
  402df6: e8 65 0c 00 00               	calll	0x403a60 <___mingw_readdir>
  402dfb: 89 c6                        	movl	%eax, %esi
  402dfd: 85 c0                        	testl	%eax, %eax
  402dff: 0f 84 30 01 00 00            	je	0x402f35 <.text+0xda5>
  402e05: 8b 7d c4                     	movl	-60(%ebp), %edi
  402e08: 85 ff                        	testl	%edi, %edi
  402e0a: 74 06                        	je	0x402e12 <.text+0xc82>
  402e0c: 83 7e 08 10                  	cmpl	$16, 8(%esi)
  402e10: 75 de                        	jne	0x402df0 <.text+0xc60>
  402e12: 8d 7e 0c                     	leal	12(%esi), %edi
  402e15: 8b 4d d0                     	movl	-48(%ebp), %ecx
  402e18: 8b 45 b8                     	movl	-72(%ebp), %eax
  402e1b: 89 fa                        	movl	%edi, %edx
  402e1d: e8 9e f6 ff ff               	calll	0x4024c0 <.text+0x330>
  402e22: 85 c0                        	testl	%eax, %eax
  402e24: 75 ca                        	jne	0x402df0 <.text+0xc60>
  402e26: 0f b7 4e 06                  	movzwl	6(%esi), %ecx
  402e2a: 8b 45 a0                     	movl	-96(%ebp), %eax
  402e2d: 89 65 ac                     	movl	%esp, -84(%ebp)
  402e30: 8d 44 01 0f                  	leal	15(%ecx,%eax), %eax
  402e34: c1 e8 04                     	shrl	$4, %eax
  402e37: c1 e0 04                     	shll	$4, %eax
  402e3a: e8 f1 0f 00 00               	calll	0x403e30 <___chkstk_ms>
  402e3f: 8b 75 b4                     	movl	-76(%ebp), %esi
  402e42: 29 c4                        	subl	%eax, %esp
  402e44: 8d 54 24 0c                  	leal	12(%esp), %edx
  402e48: 89 55 a8                     	movl	%edx, -88(%ebp)
  402e4b: 89 d0                        	movl	%edx, %eax
  402e4d: 85 f6                        	testl	%esi, %esi
  402e4f: 0f 85 3f 01 00 00            	jne	0x402f94 <.text+0xe04>
  402e55: 83 c1 01                     	addl	$1, %ecx
  402e58: 89 55 a4                     	movl	%edx, -92(%ebp)
  402e5b: 89 4c 24 08                  	movl	%ecx, 8(%esp)
  402e5f: 89 7c 24 04                  	movl	%edi, 4(%esp)
  402e63: 89 e7                        	movl	%esp, %edi
  402e65: 89 04 24                     	movl	%eax, (%esp)
  402e68: e8 5f 10 00 00               	calll	0x403ecc <_memcpy>
  402e6d: 8b 55 a4                     	movl	-92(%ebp), %edx
  402e70: 89 14 24                     	movl	%edx, (%esp)
  402e73: e8 0c 10 00 00               	calll	0x403e84 <_strlen>
  402e78: 83 c0 10                     	addl	$16, %eax
  402e7b: c1 e8 04                     	shrl	$4, %eax
  402e7e: c1 e0 04                     	shll	$4, %eax
  402e81: e8 aa 0f 00 00               	calll	0x403e30 <___chkstk_ms>
  402e86: 8b 75 a8                     	movl	-88(%ebp), %esi
  402e89: 29 c4                        	subl	%eax, %esp
  402e8b: 8d 44 24 0c                  	leal	12(%esp), %eax
  402e8f: 89 45 a4                     	movl	%eax, -92(%ebp)
  402e92: 89 c2                        	movl	%eax, %edx
  402e94: eb 16                        	jmp	0x402eac <.text+0xd1c>
  402e96: 8d b4 26 00 00 00 00         	leal	(%esi,%eiz), %esi
  402e9d: 8d 76 00                     	leal	(%esi), %esi
  402ea0: 83 c2 01                     	addl	$1, %edx
  402ea3: 89 ce                        	movl	%ecx, %esi
  402ea5: 88 42 ff                     	movb	%al, -1(%edx)
  402ea8: 84 c0                        	testb	%al, %al
  402eaa: 74 1b                        	je	0x402ec7 <.text+0xd37>
  402eac: 0f b6 06                     	movzbl	(%esi), %eax
  402eaf: 8d 4e 01                     	leal	1(%esi), %ecx
  402eb2: 3c 7f                        	cmpb	$127, %al
  402eb4: 75 ea                        	jne	0x402ea0 <.text+0xd10>
  402eb6: 0f b6 46 01                  	movzbl	1(%esi), %eax
  402eba: 83 c2 01                     	addl	$1, %edx
  402ebd: 83 c6 02                     	addl	$2, %esi
  402ec0: 88 42 ff                     	movb	%al, -1(%edx)
  402ec3: 84 c0                        	testb	%al, %al
  402ec5: 75 e5                        	jne	0x402eac <.text+0xd1c>
  402ec7: 8b 45 a4                     	movl	-92(%ebp), %eax
  402eca: 89 04 24                     	movl	%eax, (%esp)
  402ecd: e8 92 0f 00 00               	calll	0x403e64 <_strdup>
  402ed2: 89 fc                        	movl	%edi, %esp
  402ed4: 89 c6                        	movl	%eax, %esi
  402ed6: 85 c0                        	testl	%eax, %eax
  402ed8: 0f 84 38 02 00 00            	je	0x403116 <.text+0xf86>
  402ede: 8b 7d d4                     	movl	-44(%ebp), %edi
  402ee1: 31 c0                        	xorl	%eax, %eax
  402ee3: 83 ff 02                     	cmpl	$2, %edi
  402ee6: 0f 94 c0                     	sete	%al
  402ee9: 83 e8 01                     	subl	$1, %eax
  402eec: 21 c7                        	andl	%eax, %edi
  402eee: 89 7d d4                     	movl	%edi, -44(%ebp)
  402ef1: f6 45 d0 40                  	testb	$64, -48(%ebp)
  402ef5: 0f 84 e2 00 00 00            	je	0x402fdd <.text+0xe4d>
  402efb: 8b 55 08                     	movl	8(%ebp), %edx
  402efe: 85 d2                        	testl	%edx, %edx
  402f00: 0f 85 5e 01 00 00            	jne	0x403064 <.text+0xed4>
  402f06: 8b 65 ac                     	movl	-84(%ebp), %esp
  402f09: e9 e2 fe ff ff               	jmp	0x402df0 <.text+0xc60>
  402f0e: 89 45 d4                     	movl	%eax, -44(%ebp)
  402f11: e9 42 fc ff ff               	jmp	0x402b58 <.text+0x9c8>
  402f16: 8d 45 d8                     	leal	-40(%ebp), %eax
  402f19: 8b 55 d0                     	movl	-48(%ebp), %edx
  402f1c: 89 04 24                     	movl	%eax, (%esp)
  402f1f: 8b 4d c8                     	movl	-56(%ebp), %ecx
  402f22: 8b 45 c0                     	movl	-64(%ebp), %eax
  402f25: 80 ce 80                     	orb	$-128, %dh
  402f28: e8 63 f9 ff ff               	calll	0x402890 <.text+0x700>
  402f2d: 89 45 d4                     	movl	%eax, -44(%ebp)
  402f30: e9 5e fa ff ff               	jmp	0x402993 <.text+0x803>
  402f35: 8b 45 cc                     	movl	-52(%ebp), %eax
  402f38: 89 04 24                     	movl	%eax, (%esp)
  402f3b: e8 70 0b 00 00               	calll	0x403ab0 <___mingw_closedir>
  402f40: 8b 45 b0                     	movl	-80(%ebp), %eax
  402f43: 85 c0                        	testl	%eax, %eax
  402f45: 0f 84 44 fe ff ff            	je	0x402d8f <.text+0xbff>
  402f4b: 8b 55 08                     	movl	8(%ebp), %edx
  402f4e: 8b 45 b0                     	movl	-80(%ebp), %eax
  402f51: e8 9a f8 ff ff               	calll	0x4027f0 <.text+0x660>
  402f56: e9 34 fe ff ff               	jmp	0x402d8f <.text+0xbff>
  402f5b: 89 34 24                     	movl	%esi, (%esp)
  402f5e: e8 01 0f 00 00               	calll	0x403e64 <_strdup>
  402f63: 89 dc                        	movl	%ebx, %esp
  402f65: 85 c0                        	testl	%eax, %eax
  402f67: 74 24                        	je	0x402f8d <.text+0xdfd>
  402f69: 8b 55 08                     	movl	8(%ebp), %edx
  402f6c: 85 d2                        	testl	%edx, %edx
  402f6e: 74 1d                        	je	0x402f8d <.text+0xdfd>
  402f70: 8b 55 08                     	movl	8(%ebp), %edx
  402f73: e8 18 f8 ff ff               	calll	0x402790 <.text+0x600>
  402f78: 8b 45 e0                     	movl	-32(%ebp), %eax
  402f7b: 89 c7                        	movl	%eax, %edi
  402f7d: 89 3c 24                     	movl	%edi, (%esp)
  402f80: e8 db f1 ff ff               	calll	0x402160 <___mingw_free>
  402f85: 8b 65 bc                     	movl	-68(%ebp), %esp
  402f88: e9 ce fb ff ff               	jmp	0x402b5b <.text+0x9cb>
  402f8d: 8b 45 e0                     	movl	-32(%ebp), %eax
  402f90: 89 c7                        	movl	%eax, %edi
  402f92: eb e9                        	jmp	0x402f7d <.text+0xded>
  402f94: 8b 75 b4                     	movl	-76(%ebp), %esi
  402f97: 8b 03                        	movl	(%ebx), %eax
  402f99: 89 4d 98                     	movl	%ecx, -104(%ebp)
  402f9c: 89 14 24                     	movl	%edx, (%esp)
  402f9f: 89 74 24 08                  	movl	%esi, 8(%esp)
  402fa3: 89 44 24 04                  	movl	%eax, 4(%esp)
  402fa7: 89 55 a4                     	movl	%edx, -92(%ebp)
  402faa: e8 1d 0f 00 00               	calll	0x403ecc <_memcpy>
  402faf: 0f b6 44 34 0b               	movzbl	11(%esp,%esi), %eax
  402fb4: 8b 55 a4                     	movl	-92(%ebp), %edx
  402fb7: 8b 4d 98                     	movl	-104(%ebp), %ecx
  402fba: 3c 2f                        	cmpb	$47, %al
  402fbc: 0f 84 b1 00 00 00            	je	0x403073 <.text+0xee3>
  402fc2: 3c 5c                        	cmpb	$92, %al
  402fc4: 0f 84 a9 00 00 00            	je	0x403073 <.text+0xee3>
  402fca: 8b 75 b4                     	movl	-76(%ebp), %esi
  402fcd: 0f b6 45 9f                  	movzbl	-97(%ebp), %eax
  402fd1: 88 04 32                     	movb	%al, (%edx,%esi)
  402fd4: 8d 44 32 01                  	leal	1(%edx,%esi), %eax
  402fd8: e9 78 fe ff ff               	jmp	0x402e55 <.text+0xcc5>
  402fdd: 8b 7d b0                     	movl	-80(%ebp), %edi
  402fe0: 85 ff                        	testl	%edi, %edi
  402fe2: 0f 84 ff 00 00 00            	je	0x4030e7 <.text+0xf57>
  402fe8: 8b 45 d0                     	movl	-48(%ebp), %eax
  402feb: 89 5d a8                     	movl	%ebx, -88(%ebp)
  402fee: 25 00 40 00 00               	andl	$16384, %eax
  402ff3: 89 c3                        	movl	%eax, %ebx
  402ff5: eb 1f                        	jmp	0x403016 <.text+0xe86>
  402ff7: 8d b4 26 00 00 00 00         	leal	(%esi,%eiz), %esi
  402ffe: 66 90                        	nop
  403000: e8 87 0e 00 00               	calll	0x403e8c <_strcoll>
  403005: 8b 0f                        	movl	(%edi), %ecx
  403007: 8b 57 04                     	movl	4(%edi), %edx
  40300a: 85 c0                        	testl	%eax, %eax
  40300c: 7f 02                        	jg	0x403010 <.text+0xe80>
  40300e: 89 ca                        	movl	%ecx, %edx
  403010: 85 d2                        	testl	%edx, %edx
  403012: 74 17                        	je	0x40302b <.text+0xe9b>
  403014: 89 d7                        	movl	%edx, %edi
  403016: 8b 47 08                     	movl	8(%edi), %eax
  403019: 89 34 24                     	movl	%esi, (%esp)
  40301c: 89 44 24 04                  	movl	%eax, 4(%esp)
  403020: 85 db                        	testl	%ebx, %ebx
  403022: 75 dc                        	jne	0x403000 <.text+0xe70>
  403024: e8 33 0e 00 00               	calll	0x403e5c <_stricoll>
  403029: eb da                        	jmp	0x403005 <.text+0xe75>
  40302b: 8b 5d a8                     	movl	-88(%ebp), %ebx
  40302e: 89 45 a8                     	movl	%eax, -88(%ebp)
  403031: c7 04 24 0c 00 00 00         	movl	$12, (%esp)
  403038: e8 9f 0e 00 00               	calll	0x403edc <_malloc>
  40303d: 8b 55 a8                     	movl	-88(%ebp), %edx
  403040: 85 c0                        	testl	%eax, %eax
  403042: 0f 84 be fe ff ff            	je	0x402f06 <.text+0xd76>
  403048: 89 70 08                     	movl	%esi, 8(%eax)
  40304b: c7 40 04 00 00 00 00         	movl	$0, 4(%eax)
  403052: c7 00 00 00 00 00            	movl	$0, (%eax)
  403058: 85 d2                        	testl	%edx, %edx
  40305a: 7e 21                        	jle	0x40307d <.text+0xeed>
  40305c: 89 47 04                     	movl	%eax, 4(%edi)
  40305f: e9 a2 fe ff ff               	jmp	0x402f06 <.text+0xd76>
  403064: 8b 55 08                     	movl	8(%ebp), %edx
  403067: 89 f0                        	movl	%esi, %eax
  403069: e8 22 f7 ff ff               	calll	0x402790 <.text+0x600>
  40306e: e9 93 fe ff ff               	jmp	0x402f06 <.text+0xd76>
  403073: 8b 45 b4                     	movl	-76(%ebp), %eax
  403076: 01 d0                        	addl	%edx, %eax
  403078: e9 d8 fd ff ff               	jmp	0x402e55 <.text+0xcc5>
  40307d: 89 07                        	movl	%eax, (%edi)
  40307f: e9 82 fe ff ff               	jmp	0x402f06 <.text+0xd76>
  403084: 8b 7d c4                     	movl	-60(%ebp), %edi
  403087: 8b 55 d0                     	movl	-48(%ebp), %edx
  40308a: 89 f8                        	movl	%edi, %eax
  40308c: e8 5f f6 ff ff               	calll	0x4026f0 <.text+0x560>
  403091: 89 45 d4                     	movl	%eax, -44(%ebp)
  403094: 85 c0                        	testl	%eax, %eax
  403096: 74 08                        	je	0x4030a0 <.text+0xf10>
  403098: 8b 5d c4                     	movl	-60(%ebp), %ebx
  40309b: e9 35 f9 ff ff               	jmp	0x4029d5 <.text+0x845>
  4030a0: 89 3c 24                     	movl	%edi, (%esp)
  4030a3: 89 e3                        	movl	%esp, %ebx
  4030a5: e8 da 0d 00 00               	calll	0x403e84 <_strlen>
  4030aa: 83 c0 10                     	addl	$16, %eax
  4030ad: c1 e8 04                     	shrl	$4, %eax
  4030b0: c1 e0 04                     	shll	$4, %eax
  4030b3: e8 78 0d 00 00               	calll	0x403e30 <___chkstk_ms>
  4030b8: 29 c4                        	subl	%eax, %esp
  4030ba: 89 f9                        	movl	%edi, %ecx
  4030bc: 8d 74 24 0c                  	leal	12(%esp), %esi
  4030c0: 89 f2                        	movl	%esi, %edx
  4030c2: eb 10                        	jmp	0x4030d4 <.text+0xf44>
  4030c4: 89 f9                        	movl	%edi, %ecx
  4030c6: 83 c2 01                     	addl	$1, %edx
  4030c9: 88 42 ff                     	movb	%al, -1(%edx)
  4030cc: 84 c0                        	testb	%al, %al
  4030ce: 0f 84 87 fe ff ff            	je	0x402f5b <.text+0xdcb>
  4030d4: 0f b6 01                     	movzbl	(%ecx), %eax
  4030d7: 8d 79 01                     	leal	1(%ecx), %edi
  4030da: 3c 7f                        	cmpb	$127, %al
  4030dc: 75 e6                        	jne	0x4030c4 <.text+0xf34>
  4030de: 0f b6 41 01                  	movzbl	1(%ecx), %eax
  4030e2: 83 c1 02                     	addl	$2, %ecx
  4030e5: eb df                        	jmp	0x4030c6 <.text+0xf36>
  4030e7: c7 04 24 0c 00 00 00         	movl	$12, (%esp)
  4030ee: e8 e9 0d 00 00               	calll	0x403edc <_malloc>
  4030f3: 89 45 b0                     	movl	%eax, -80(%ebp)
  4030f6: 85 c0                        	testl	%eax, %eax
  4030f8: 0f 84 08 fe ff ff            	je	0x402f06 <.text+0xd76>
  4030fe: 8b 45 b0                     	movl	-80(%ebp), %eax
  403101: 89 70 08                     	movl	%esi, 8(%eax)
  403104: c7 40 04 00 00 00 00         	movl	$0, 4(%eax)
  40310b: c7 00 00 00 00 00            	movl	$0, (%eax)
  403111: e9 f0 fd ff ff               	jmp	0x402f06 <.text+0xd76>
  403116: c7 45 d4 03 00 00 00         	movl	$3, -44(%ebp)
  40311d: e9 e4 fd ff ff               	jmp	0x402f06 <.text+0xd76>
  403122: 8d b4 26 00 00 00 00         	leal	(%esi,%eiz), %esi
  403129: 8d b4 26 00 00 00 00         	leal	(%esi,%eiz), %esi

00403130 <___mingw_glob>:
  403130: 55                           	pushl	%ebp
  403131: 89 e5                        	movl	%esp, %ebp
  403133: 57                           	pushl	%edi
  403134: 56                           	pushl	%esi
  403135: 53                           	pushl	%ebx
  403136: 83 ec 2c                     	subl	$44, %esp
  403139: 8b 75 14                     	movl	20(%ebp), %esi
  40313c: 8b 5d 08                     	movl	8(%ebp), %ebx
  40313f: 8b 7d 0c                     	movl	12(%ebp), %edi
  403142: 85 f6                        	testl	%esi, %esi
  403144: 74 08                        	je	0x40314e <___mingw_glob+0x1e>
  403146: f7 c7 02 00 00 00            	testl	$2, %edi
  40314c: 74 3a                        	je	0x403188 <___mingw_glob+0x58>
  40314e: 81 3e c4 62 40 00            	cmpl	$4219588, (%esi)
  403154: 74 0d                        	je	0x403163 <___mingw_glob+0x33>
  403156: 89 f0                        	movl	%esi, %eax
  403158: e8 e3 f6 ff ff               	calll	0x402840 <.text+0x6b0>
  40315d: c7 06 c4 62 40 00            	movl	$4219588, (%esi)
  403163: 89 34 24                     	movl	%esi, (%esp)
  403166: 8b 4d 10                     	movl	16(%ebp), %ecx
  403169: 89 fa                        	movl	%edi, %edx
  40316b: 89 d8                        	movl	%ebx, %eax
  40316d: e8 1e f7 ff ff               	calll	0x402890 <.text+0x700>
  403172: 89 c1                        	movl	%eax, %ecx
  403174: 83 f8 02                     	cmpl	$2, %eax
  403177: 74 1f                        	je	0x403198 <___mingw_glob+0x68>
  403179: 8d 65 f4                     	leal	-12(%ebp), %esp
  40317c: 89 c8                        	movl	%ecx, %eax
  40317e: 5b                           	popl	%ebx
  40317f: 5e                           	popl	%esi
  403180: 5f                           	popl	%edi
  403181: 5d                           	popl	%ebp
  403182: c3                           	retl
  403183: 8d 74 26 00                  	leal	(%esi,%eiz), %esi
  403187: 90                           	nop
  403188: c7 46 0c 00 00 00 00         	movl	$0, 12(%esi)
  40318f: eb bd                        	jmp	0x40314e <___mingw_glob+0x1e>
  403191: 8d b4 26 00 00 00 00         	leal	(%esi,%eiz), %esi
  403198: 83 e7 10                     	andl	$16, %edi
  40319b: 74 dc                        	je	0x403179 <___mingw_glob+0x49>
  40319d: 89 45 dc                     	movl	%eax, -36(%ebp)
  4031a0: 89 65 e4                     	movl	%esp, -28(%ebp)
  4031a3: 89 1c 24                     	movl	%ebx, (%esp)
  4031a6: e8 d9 0c 00 00               	calll	0x403e84 <_strlen>
  4031ab: 83 c0 10                     	addl	$16, %eax
  4031ae: c1 e8 04                     	shrl	$4, %eax
  4031b1: c1 e0 04                     	shll	$4, %eax
  4031b4: e8 77 0c 00 00               	calll	0x403e30 <___chkstk_ms>
  4031b9: 8b 4d dc                     	movl	-36(%ebp), %ecx
  4031bc: 29 c4                        	subl	%eax, %esp
  4031be: 8d 44 24 04                  	leal	4(%esp), %eax
  4031c2: 89 45 e0                     	movl	%eax, -32(%ebp)
  4031c5: 89 c2                        	movl	%eax, %edx
  4031c7: eb 13                        	jmp	0x4031dc <___mingw_glob+0xac>
  4031c9: 8d b4 26 00 00 00 00         	leal	(%esi,%eiz), %esi
  4031d0: 83 c2 01                     	addl	$1, %edx
  4031d3: 89 fb                        	movl	%edi, %ebx
  4031d5: 88 42 ff                     	movb	%al, -1(%edx)
  4031d8: 84 c0                        	testb	%al, %al
  4031da: 74 1b                        	je	0x4031f7 <___mingw_glob+0xc7>
  4031dc: 0f b6 03                     	movzbl	(%ebx), %eax
  4031df: 8d 7b 01                     	leal	1(%ebx), %edi
  4031e2: 3c 7f                        	cmpb	$127, %al
  4031e4: 75 ea                        	jne	0x4031d0 <___mingw_glob+0xa0>
  4031e6: 0f b6 43 01                  	movzbl	1(%ebx), %eax
  4031ea: 83 c2 01                     	addl	$1, %edx
  4031ed: 83 c3 02                     	addl	$2, %ebx
  4031f0: 88 42 ff                     	movb	%al, -1(%edx)
  4031f3: 84 c0                        	testb	%al, %al
  4031f5: 75 e5                        	jne	0x4031dc <___mingw_glob+0xac>
  4031f7: 8b 45 e0                     	movl	-32(%ebp), %eax
  4031fa: 89 4d dc                     	movl	%ecx, -36(%ebp)
  4031fd: 89 04 24                     	movl	%eax, (%esp)
  403200: e8 5f 0c 00 00               	calll	0x403e64 <_strdup>
  403205: 8b 65 e4                     	movl	-28(%ebp), %esp
  403208: 8b 4d dc                     	movl	-36(%ebp), %ecx
  40320b: 85 c0                        	testl	%eax, %eax
  40320d: 0f 84 66 ff ff ff            	je	0x403179 <___mingw_glob+0x49>
  403213: 89 f2                        	movl	%esi, %edx
  403215: 89 4d e4                     	movl	%ecx, -28(%ebp)
  403218: e8 73 f5 ff ff               	calll	0x402790 <.text+0x600>
  40321d: 8b 4d e4                     	movl	-28(%ebp), %ecx
  403220: e9 54 ff ff ff               	jmp	0x403179 <___mingw_glob+0x49>
  403225: 8d b4 26 00 00 00 00         	leal	(%esi,%eiz), %esi
  40322c: 8d 74 26 00                  	leal	(%esi,%eiz), %esi

00403230 <___mingw_globfree>:
  403230: 57                           	pushl	%edi
  403231: 56                           	pushl	%esi
  403232: 53                           	pushl	%ebx
  403233: 83 ec 10                     	subl	$16, %esp
  403236: 8b 74 24 20                  	movl	32(%esp), %esi
  40323a: 81 3e c4 62 40 00            	cmpl	$4219588, (%esi)
  403240: 74 0e                        	je	0x403250 <___mingw_globfree+0x20>
  403242: 83 c4 10                     	addl	$16, %esp
  403245: 5b                           	popl	%ebx
  403246: 5e                           	popl	%esi
  403247: 5f                           	popl	%edi
  403248: c3                           	retl
  403249: 8d b4 26 00 00 00 00         	leal	(%esi,%eiz), %esi
  403250: 8b 7e 04                     	movl	4(%esi), %edi
  403253: 8b 5e 0c                     	movl	12(%esi), %ebx
  403256: 85 ff                        	testl	%edi, %edi
  403258: 7e 1b                        	jle	0x403275 <___mingw_globfree+0x45>
  40325a: 01 df                        	addl	%ebx, %edi
  40325c: 8d 74 26 00                  	leal	(%esi,%eiz), %esi
  403260: 8b 46 08                     	movl	8(%esi), %eax
  403263: 8b 04 98                     	movl	(%eax,%ebx,4), %eax
  403266: 83 c3 01                     	addl	$1, %ebx
  403269: 89 04 24                     	movl	%eax, (%esp)
  40326c: e8 ef ee ff ff               	calll	0x402160 <___mingw_free>
  403271: 39 df                        	cmpl	%ebx, %edi
  403273: 75 eb                        	jne	0x403260 <___mingw_globfree+0x30>
  403275: 8b 46 08                     	movl	8(%esi), %eax
  403278: 89 44 24 20                  	movl	%eax, 32(%esp)
  40327c: 83 c4 10                     	addl	$16, %esp
  40327f: 5b                           	popl	%ebx
  403280: 5e                           	popl	%esi
  403281: 5f                           	popl	%edi
  403282: e9 d9 ee ff ff               	jmp	0x402160 <___mingw_free>
  403287: 90                           	nop
  403288: 90                           	nop
  403289: 90                           	nop
  40328a: 90                           	nop
  40328b: 90                           	nop
  40328c: 90                           	nop
  40328d: 90                           	nop
  40328e: 90                           	nop
  40328f: 90                           	nop

00403290 <___mingw_dirname>:
  403290: 55                           	pushl	%ebp
  403291: 89 e5                        	movl	%esp, %ebp
  403293: 57                           	pushl	%edi
  403294: 56                           	pushl	%esi
  403295: 53                           	pushl	%ebx
  403296: 83 ec 2c                     	subl	$44, %esp
  403299: c7 44 24 04 00 00 00 00      	movl	$0, 4(%esp)
  4032a1: c7 04 24 02 00 00 00         	movl	$2, (%esp)
  4032a8: e8 f7 0b 00 00               	calll	0x403ea4 <_setlocale>
  4032ad: 89 c3                        	movl	%eax, %ebx
  4032af: 85 c0                        	testl	%eax, %eax
  4032b1: 74 0a                        	je	0x4032bd <___mingw_dirname+0x2d>
  4032b3: 89 04 24                     	movl	%eax, (%esp)
  4032b6: e8 a9 0b 00 00               	calll	0x403e64 <_strdup>
  4032bb: 89 c3                        	movl	%eax, %ebx
  4032bd: c7 44 24 04 d8 62 40 00      	movl	$4219608, 4(%esp)
  4032c5: c7 04 24 02 00 00 00         	movl	$2, (%esp)
  4032cc: e8 d3 0b 00 00               	calll	0x403ea4 <_setlocale>
  4032d1: 8b 4d 08                     	movl	8(%ebp), %ecx
  4032d4: 85 c9                        	testl	%ecx, %ecx
  4032d6: 74 08                        	je	0x4032e0 <___mingw_dirname+0x50>
  4032d8: 8b 45 08                     	movl	8(%ebp), %eax
  4032db: 80 38 00                     	cmpb	$0, (%eax)
  4032de: 75 78                        	jne	0x403358 <___mingw_dirname+0xc8>
  4032e0: c7 44 24 08 00 00 00 00      	movl	$0, 8(%esp)
  4032e8: c7 44 24 04 da 62 40 00      	movl	$4219610, 4(%esp)
  4032f0: c7 04 24 00 00 00 00         	movl	$0, (%esp)
  4032f7: e8 70 0b 00 00               	calll	0x403e6c <_wcstombs>
  4032fc: 8d 70 01                     	leal	1(%eax), %esi
  4032ff: 89 74 24 04                  	movl	%esi, 4(%esp)
  403303: a1 68 80 40 00               	movl	4227176, %eax
  403308: 89 04 24                     	movl	%eax, (%esp)
  40330b: e8 c0 09 00 00               	calll	0x403cd0 <___mingw_realloc>
  403310: a3 68 80 40 00               	movl	%eax, 4227176
  403315: 89 74 24 08                  	movl	%esi, 8(%esp)
  403319: c7 44 24 04 da 62 40 00      	movl	$4219610, 4(%esp)
  403321: 89 04 24                     	movl	%eax, (%esp)
  403324: e8 43 0b 00 00               	calll	0x403e6c <_wcstombs>
  403329: 89 5c 24 04                  	movl	%ebx, 4(%esp)
  40332d: c7 04 24 02 00 00 00         	movl	$2, (%esp)
  403334: e8 6b 0b 00 00               	calll	0x403ea4 <_setlocale>
  403339: 89 1c 24                     	movl	%ebx, (%esp)
  40333c: e8 1f ee ff ff               	calll	0x402160 <___mingw_free>
  403341: 8b 35 68 80 40 00            	movl	4227176, %esi
  403347: 8d 65 f4                     	leal	-12(%ebp), %esp
  40334a: 89 f0                        	movl	%esi, %eax
  40334c: 5b                           	popl	%ebx
  40334d: 5e                           	popl	%esi
  40334e: 5f                           	popl	%edi
  40334f: 5d                           	popl	%ebp
  403350: c3                           	retl
  403351: 8d b4 26 00 00 00 00         	leal	(%esi,%eiz), %esi
  403358: 89 65 dc                     	movl	%esp, -36(%ebp)
  40335b: c7 44 24 08 00 00 00 00      	movl	$0, 8(%esp)
  403363: 8b 45 08                     	movl	8(%ebp), %eax
  403366: c7 04 24 00 00 00 00         	movl	$0, (%esp)
  40336d: 89 44 24 04                  	movl	%eax, 4(%esp)
  403371: e8 5e 0b 00 00               	calll	0x403ed4 <_mbstowcs>
  403376: 89 c2                        	movl	%eax, %edx
  403378: 8d 44 00 11                  	leal	17(%eax,%eax), %eax
  40337c: c1 e8 04                     	shrl	$4, %eax
  40337f: c1 e0 04                     	shll	$4, %eax
  403382: e8 a9 0a 00 00               	calll	0x403e30 <___chkstk_ms>
  403387: 29 c4                        	subl	%eax, %esp
  403389: 89 54 24 08                  	movl	%edx, 8(%esp)
  40338d: 8b 45 08                     	movl	8(%ebp), %eax
  403390: 8d 7c 24 0c                  	leal	12(%esp), %edi
  403394: 89 3c 24                     	movl	%edi, (%esp)
  403397: 89 44 24 04                  	movl	%eax, 4(%esp)
  40339b: e8 34 0b 00 00               	calll	0x403ed4 <_mbstowcs>
  4033a0: 31 d2                        	xorl	%edx, %edx
  4033a2: 83 f8 01                     	cmpl	$1, %eax
  4033a5: 89 45 d8                     	movl	%eax, -40(%ebp)
  4033a8: 66 89 14 47                  	movw	%dx, (%edi,%eax,2)
  4033ac: 0f b7 07                     	movzwl	(%edi), %eax
  4033af: 76 3f                        	jbe	0x4033f0 <___mingw_dirname+0x160>
  4033b1: 89 c1                        	movl	%eax, %ecx
  4033b3: 66 89 45 e2                  	movw	%ax, -30(%ebp)
  4033b7: 0f b7 47 02                  	movzwl	2(%edi), %eax
  4033bb: 89 7d e4                     	movl	%edi, -28(%ebp)
  4033be: 66 83 f9 2f                  	cmpw	$47, %cx
  4033c2: 0f 84 08 02 00 00            	je	0x4035d0 <___mingw_dirname+0x340>
  4033c8: 66 83 f9 5c                  	cmpw	$92, %cx
  4033cc: 0f 84 fe 01 00 00            	je	0x4035d0 <___mingw_dirname+0x340>
  4033d2: 66 83 f8 3a                  	cmpw	$58, %ax
  4033d6: 75 1f                        	jne	0x4033f7 <___mingw_dirname+0x167>
  4033d8: 8d 47 04                     	leal	4(%edi), %eax
  4033db: 89 45 e4                     	movl	%eax, -28(%ebp)
  4033de: 0f b7 47 04                  	movzwl	4(%edi), %eax
  4033e2: 66 89 45 e2                  	movw	%ax, -30(%ebp)
  4033e6: eb 0f                        	jmp	0x4033f7 <___mingw_dirname+0x167>
  4033e8: 8d b4 26 00 00 00 00         	leal	(%esi,%eiz), %esi
  4033ef: 90                           	nop
  4033f0: 66 89 45 e2                  	movw	%ax, -30(%ebp)
  4033f4: 89 7d e4                     	movl	%edi, -28(%ebp)
  4033f7: 66 83 7d e2 00               	cmpw	$0, -30(%ebp)
  4033fc: 75 12                        	jne	0x403410 <___mingw_dirname+0x180>
  4033fe: 8b 65 dc                     	movl	-36(%ebp), %esp
  403401: e9 da fe ff ff               	jmp	0x4032e0 <___mingw_dirname+0x50>
  403406: 8d b4 26 00 00 00 00         	leal	(%esi,%eiz), %esi
  40340d: 8d 76 00                     	leal	(%esi), %esi
  403410: 8b 45 e4                     	movl	-28(%ebp), %eax
  403413: 0f b7 55 e2                  	movzwl	-30(%ebp), %edx
  403417: 89 c1                        	movl	%eax, %ecx
  403419: eb 19                        	jmp	0x403434 <___mingw_dirname+0x1a4>
  40341b: 8d 74 26 00                  	leal	(%esi,%eiz), %esi
  40341f: 90                           	nop
  403420: 89 c6                        	movl	%eax, %esi
  403422: 66 83 fa 5c                  	cmpw	$92, %dx
  403426: 74 23                        	je	0x40344b <___mingw_dirname+0x1bb>
  403428: 0f b7 56 02                  	movzwl	2(%esi), %edx
  40342c: 83 c0 02                     	addl	$2, %eax
  40342f: 66 85 d2                     	testw	%dx, %dx
  403432: 74 34                        	je	0x403468 <___mingw_dirname+0x1d8>
  403434: 66 83 fa 2f                  	cmpw	$47, %dx
  403438: 75 e6                        	jne	0x403420 <___mingw_dirname+0x190>
  40343a: 0f b7 10                     	movzwl	(%eax), %edx
  40343d: 66 83 fa 2f                  	cmpw	$47, %dx
  403441: 75 11                        	jne	0x403454 <___mingw_dirname+0x1c4>
  403443: 8d 74 26 00                  	leal	(%esi,%eiz), %esi
  403447: 90                           	nop
  403448: 83 c0 02                     	addl	$2, %eax
  40344b: 0f b7 10                     	movzwl	(%eax), %edx
  40344e: 66 83 fa 2f                  	cmpw	$47, %dx
  403452: 74 f4                        	je	0x403448 <___mingw_dirname+0x1b8>
  403454: 66 83 fa 5c                  	cmpw	$92, %dx
  403458: 74 ee                        	je	0x403448 <___mingw_dirname+0x1b8>
  40345a: 89 c6                        	movl	%eax, %esi
  40345c: 66 85 d2                     	testw	%dx, %dx
  40345f: 74 07                        	je	0x403468 <___mingw_dirname+0x1d8>
  403461: 89 c1                        	movl	%eax, %ecx
  403463: eb c3                        	jmp	0x403428 <___mingw_dirname+0x198>
  403465: 8d 76 00                     	leal	(%esi), %esi
  403468: 39 4d e4                     	cmpl	%ecx, -28(%ebp)
  40346b: 0f 82 8f 00 00 00            	jb	0x403500 <___mingw_dirname+0x270>
  403471: 0f b7 45 e2                  	movzwl	-30(%ebp), %eax
  403475: 66 83 f8 2f                  	cmpw	$47, %ax
  403479: 74 11                        	je	0x40348c <___mingw_dirname+0x1fc>
  40347b: 66 83 f8 5c                  	cmpw	$92, %ax
  40347f: 74 0b                        	je	0x40348c <___mingw_dirname+0x1fc>
  403481: 8b 45 e4                     	movl	-28(%ebp), %eax
  403484: b9 2e 00 00 00               	movl	$46, %ecx
  403489: 66 89 08                     	movw	%cx, (%eax)
  40348c: 8b 45 e4                     	movl	-28(%ebp), %eax
  40348f: 31 d2                        	xorl	%edx, %edx
  403491: 66 89 50 02                  	movw	%dx, 2(%eax)
  403495: c7 44 24 08 00 00 00 00      	movl	$0, 8(%esp)
  40349d: 89 7c 24 04                  	movl	%edi, 4(%esp)
  4034a1: c7 04 24 00 00 00 00         	movl	$0, (%esp)
  4034a8: e8 bf 09 00 00               	calll	0x403e6c <_wcstombs>
  4034ad: 8d 50 01                     	leal	1(%eax), %edx
  4034b0: 89 54 24 04                  	movl	%edx, 4(%esp)
  4034b4: a1 68 80 40 00               	movl	4227176, %eax
  4034b9: 89 55 e4                     	movl	%edx, -28(%ebp)
  4034bc: 89 04 24                     	movl	%eax, (%esp)
  4034bf: e8 0c 08 00 00               	calll	0x403cd0 <___mingw_realloc>
  4034c4: 8b 55 e4                     	movl	-28(%ebp), %edx
  4034c7: a3 68 80 40 00               	movl	%eax, 4227176
  4034cc: 89 c6                        	movl	%eax, %esi
  4034ce: 89 54 24 08                  	movl	%edx, 8(%esp)
  4034d2: 89 7c 24 04                  	movl	%edi, 4(%esp)
  4034d6: 89 04 24                     	movl	%eax, (%esp)
  4034d9: e8 8e 09 00 00               	calll	0x403e6c <_wcstombs>
  4034de: 89 5c 24 04                  	movl	%ebx, 4(%esp)
  4034e2: c7 04 24 02 00 00 00         	movl	$2, (%esp)
  4034e9: e8 b6 09 00 00               	calll	0x403ea4 <_setlocale>
  4034ee: 89 1c 24                     	movl	%ebx, (%esp)
  4034f1: e8 6a ec ff ff               	calll	0x402160 <___mingw_free>
  4034f6: 8b 65 dc                     	movl	-36(%ebp), %esp
  4034f9: e9 49 fe ff ff               	jmp	0x403347 <___mingw_dirname+0xb7>
  4034fe: 66 90                        	nop
  403500: 89 c8                        	movl	%ecx, %eax
  403502: 83 e9 02                     	subl	$2, %ecx
  403505: 39 4d e4                     	cmpl	%ecx, -28(%ebp)
  403508: 0f 83 4d 01 00 00            	jae	0x40365b <___mingw_dirname+0x3cb>
  40350e: 0f b7 01                     	movzwl	(%ecx), %eax
  403511: 66 83 f8 2f                  	cmpw	$47, %ax
  403515: 74 e9                        	je	0x403500 <___mingw_dirname+0x270>
  403517: 66 83 f8 5c                  	cmpw	$92, %ax
  40351b: 74 e3                        	je	0x403500 <___mingw_dirname+0x270>
  40351d: 31 c0                        	xorl	%eax, %eax
  40351f: 66 89 41 02                  	movw	%ax, 2(%ecx)
  403523: 0f b7 07                     	movzwl	(%edi), %eax
  403526: 89 f9                        	movl	%edi, %ecx
  403528: 66 83 f8 2f                  	cmpw	$47, %ax
  40352c: 74 12                        	je	0x403540 <___mingw_dirname+0x2b0>
  40352e: 66 83 f8 5c                  	cmpw	$92, %ax
  403532: 0f 85 cd 00 00 00            	jne	0x403605 <___mingw_dirname+0x375>
  403538: 8d b4 26 00 00 00 00         	leal	(%esi,%eiz), %esi
  40353f: 90                           	nop
  403540: 0f b7 51 02                  	movzwl	2(%ecx), %edx
  403544: 83 c1 02                     	addl	$2, %ecx
  403547: 66 83 fa 2f                  	cmpw	$47, %dx
  40354b: 74 f3                        	je	0x403540 <___mingw_dirname+0x2b0>
  40354d: 66 83 fa 5c                  	cmpw	$92, %dx
  403551: 74 ed                        	je	0x403540 <___mingw_dirname+0x2b0>
  403553: 89 ca                        	movl	%ecx, %edx
  403555: 29 fa                        	subl	%edi, %edx
  403557: 83 fa 04                     	cmpl	$4, %edx
  40355a: 0f 8e a5 00 00 00            	jle	0x403605 <___mingw_dirname+0x375>
  403560: 89 f9                        	movl	%edi, %ecx
  403562: 66 85 c0                     	testw	%ax, %ax
  403565: 0f 84 c0 00 00 00            	je	0x40362b <___mingw_dirname+0x39b>
  40356b: 89 5d e4                     	movl	%ebx, -28(%ebp)
  40356e: 89 ca                        	movl	%ecx, %edx
  403570: eb 24                        	jmp	0x403596 <___mingw_dirname+0x306>
  403572: 8d b6 00 00 00 00            	leal	(%esi), %esi
  403578: 0f b7 5a 02                  	movzwl	2(%edx), %ebx
  40357c: 8d 72 02                     	leal	2(%edx), %esi
  40357f: 66 83 f8 5c                  	cmpw	$92, %ax
  403583: 0f 84 97 00 00 00            	je	0x403620 <___mingw_dirname+0x390>
  403589: 89 d8                        	movl	%ebx, %eax
  40358b: 89 f2                        	movl	%esi, %edx
  40358d: 66 85 c0                     	testw	%ax, %ax
  403590: 0f 84 92 00 00 00            	je	0x403628 <___mingw_dirname+0x398>
  403596: 83 c1 02                     	addl	$2, %ecx
  403599: 66 89 41 fe                  	movw	%ax, -2(%ecx)
  40359d: 66 83 f8 2f                  	cmpw	$47, %ax
  4035a1: 75 d5                        	jne	0x403578 <___mingw_dirname+0x2e8>
  4035a3: 0f b7 1a                     	movzwl	(%edx), %ebx
  4035a6: 66 83 fb 5c                  	cmpw	$92, %bx
  4035aa: 74 0c                        	je	0x4035b8 <___mingw_dirname+0x328>
  4035ac: 89 d8                        	movl	%ebx, %eax
  4035ae: 66 83 fb 2f                  	cmpw	$47, %bx
  4035b2: 75 d9                        	jne	0x40358d <___mingw_dirname+0x2fd>
  4035b4: 8d 74 26 00                  	leal	(%esi,%eiz), %esi
  4035b8: 0f b7 42 02                  	movzwl	2(%edx), %eax
  4035bc: 83 c2 02                     	addl	$2, %edx
  4035bf: 66 83 f8 2f                  	cmpw	$47, %ax
  4035c3: 74 f3                        	je	0x4035b8 <___mingw_dirname+0x328>
  4035c5: 66 83 f8 5c                  	cmpw	$92, %ax
  4035c9: 74 ed                        	je	0x4035b8 <___mingw_dirname+0x328>
  4035cb: eb c0                        	jmp	0x40358d <___mingw_dirname+0x2fd>
  4035cd: 8d 76 00                     	leal	(%esi), %esi
  4035d0: 66 39 45 e2                  	cmpw	%ax, -30(%ebp)
  4035d4: 0f 85 1d fe ff ff            	jne	0x4033f7 <___mingw_dirname+0x167>
  4035da: 66 83 7f 04 00               	cmpw	$0, 4(%edi)
  4035df: 0f 85 12 fe ff ff            	jne	0x4033f7 <___mingw_dirname+0x167>
  4035e5: 89 5c 24 04                  	movl	%ebx, 4(%esp)
  4035e9: c7 04 24 02 00 00 00         	movl	$2, (%esp)
  4035f0: e8 af 08 00 00               	calll	0x403ea4 <_setlocale>
  4035f5: 89 1c 24                     	movl	%ebx, (%esp)
  4035f8: e8 63 eb ff ff               	calll	0x402160 <___mingw_free>
  4035fd: 8b 75 08                     	movl	8(%ebp), %esi
  403600: e9 f1 fe ff ff               	jmp	0x4034f6 <___mingw_dirname+0x266>
  403605: 66 39 47 02                  	cmpw	%ax, 2(%edi)
  403609: 0f 85 51 ff ff ff            	jne	0x403560 <___mingw_dirname+0x2d0>
  40360f: 0f b7 01                     	movzwl	(%ecx), %eax
  403612: e9 4b ff ff ff               	jmp	0x403562 <___mingw_dirname+0x2d2>
  403617: 8d b4 26 00 00 00 00         	leal	(%esi,%eiz), %esi
  40361e: 66 90                        	nop
  403620: 89 f2                        	movl	%esi, %edx
  403622: eb 82                        	jmp	0x4035a6 <___mingw_dirname+0x316>
  403624: 8d 74 26 00                  	leal	(%esi,%eiz), %esi
  403628: 8b 5d e4                     	movl	-28(%ebp), %ebx
  40362b: 8b 45 d8                     	movl	-40(%ebp), %eax
  40362e: 31 f6                        	xorl	%esi, %esi
  403630: 66 89 31                     	movw	%si, (%ecx)
  403633: 89 44 24 08                  	movl	%eax, 8(%esp)
  403637: 89 7c 24 04                  	movl	%edi, 4(%esp)
  40363b: 8b 45 08                     	movl	8(%ebp), %eax
  40363e: 89 04 24                     	movl	%eax, (%esp)
  403641: e8 26 08 00 00               	calll	0x403e6c <_wcstombs>
  403646: 8b 75 08                     	movl	8(%ebp), %esi
  403649: 83 f8 ff                     	cmpl	$-1, %eax
  40364c: 0f 84 8c fe ff ff            	je	0x4034de <___mingw_dirname+0x24e>
  403652: c6 04 06 00                  	movb	$0, (%esi,%eax)
  403656: e9 83 fe ff ff               	jmp	0x4034de <___mingw_dirname+0x24e>
  40365b: 0f 85 bc fe ff ff            	jne	0x40351d <___mingw_dirname+0x28d>
  403661: 0f b7 75 e2                  	movzwl	-30(%ebp), %esi
  403665: 66 83 fe 2f                  	cmpw	$47, %si
  403669: 74 0a                        	je	0x403675 <___mingw_dirname+0x3e5>
  40366b: 66 83 fe 5c                  	cmpw	$92, %si
  40366f: 0f 85 a8 fe ff ff            	jne	0x40351d <___mingw_dirname+0x28d>
  403675: 0f b7 75 e2                  	movzwl	-30(%ebp), %esi
  403679: 66 39 71 02                  	cmpw	%si, 2(%ecx)
  40367d: 0f 85 9a fe ff ff            	jne	0x40351d <___mingw_dirname+0x28d>
  403683: 0f b7 51 04                  	movzwl	4(%ecx), %edx
  403687: 66 83 fa 2f                  	cmpw	$47, %dx
  40368b: 0f 84 8c fe ff ff            	je	0x40351d <___mingw_dirname+0x28d>
  403691: 66 83 fa 5c                  	cmpw	$92, %dx
  403695: 0f 84 82 fe ff ff            	je	0x40351d <___mingw_dirname+0x28d>
  40369b: 89 c1                        	movl	%eax, %ecx
  40369d: e9 7b fe ff ff               	jmp	0x40351d <___mingw_dirname+0x28d>
  4036a2: 90                           	nop
  4036a3: 90                           	nop
  4036a4: 90                           	nop
  4036a5: 90                           	nop
  4036a6: 90                           	nop
  4036a7: 90                           	nop
  4036a8: 90                           	nop
  4036a9: 90                           	nop
  4036aa: 90                           	nop
  4036ab: 90                           	nop
  4036ac: 90                           	nop
  4036ad: 90                           	nop
  4036ae: 90                           	nop
  4036af: 90                           	nop

004036b0 <.text>:
  4036b0: 56                           	pushl	%esi
  4036b1: 53                           	pushl	%ebx
  4036b2: 89 d3                        	movl	%edx, %ebx
  4036b4: 81 ec 54 01 00 00            	subl	$340, %esp
  4036ba: 8d 54 24 10                  	leal	16(%esp), %edx
  4036be: 89 04 24                     	movl	%eax, (%esp)
  4036c1: 89 54 24 04                  	movl	%edx, 4(%esp)
  4036c5: e8 e2 08 00 00               	calll	0x403fac <_FindFirstFileA@8>
  4036ca: 83 ec 08                     	subl	$8, %esp
  4036cd: 89 c6                        	movl	%eax, %esi
  4036cf: 83 f8 ff                     	cmpl	$-1, %eax
  4036d2: 74 74                        	je	0x403748 <.text+0x98>
  4036d4: 31 c0                        	xorl	%eax, %eax
  4036d6: 8d 4b 0c                     	leal	12(%ebx), %ecx
  4036d9: 66 89 43 06                  	movw	%ax, 6(%ebx)
  4036dd: 0f b6 44 24 3c               	movzbl	60(%esp), %eax
  4036e2: 88 43 0c                     	movb	%al, 12(%ebx)
  4036e5: 84 c0                        	testb	%al, %al
  4036e7: 74 27                        	je	0x403710 <.text+0x60>
  4036e9: 31 c0                        	xorl	%eax, %eax
  4036eb: eb 07                        	jmp	0x4036f4 <.text+0x44>
  4036ed: 8d 76 00                     	leal	(%esi), %esi
  4036f0: 0f b7 43 06                  	movzwl	6(%ebx), %eax
  4036f4: 83 c0 01                     	addl	$1, %eax
  4036f7: 66 89 43 06                  	movw	%ax, 6(%ebx)
  4036fb: 66 3d 04 01                  	cmpw	$260, %ax
  4036ff: 0f b7 c0                     	movzwl	%ax, %eax
  403702: 0f b6 44 04 3c               	movzbl	60(%esp,%eax), %eax
  403707: 83 d1 00                     	adcl	$0, %ecx
  40370a: 88 01                        	movb	%al, (%ecx)
  40370c: 84 c0                        	testb	%al, %al
  40370e: 75 e0                        	jne	0x4036f0 <.text+0x40>
  403710: 8b 44 24 10                  	movl	16(%esp), %eax
  403714: 24 58                        	andb	$88, %al
  403716: 83 f8 10                     	cmpl	$16, %eax
  403719: 77 15                        	ja	0x403730 <.text+0x80>
  40371b: 89 43 08                     	movl	%eax, 8(%ebx)
  40371e: 81 c4 54 01 00 00            	addl	$340, %esp
  403724: 89 f0                        	movl	%esi, %eax
  403726: 5b                           	popl	%ebx
  403727: 5e                           	popl	%esi
  403728: c3                           	retl
  403729: 8d b4 26 00 00 00 00         	leal	(%esi,%eiz), %esi
  403730: c7 43 08 18 00 00 00         	movl	$24, 8(%ebx)
  403737: 81 c4 54 01 00 00            	addl	$340, %esp
  40373d: 89 f0                        	movl	%esi, %eax
  40373f: 5b                           	popl	%ebx
  403740: 5e                           	popl	%esi
  403741: c3                           	retl
  403742: 8d b6 00 00 00 00            	leal	(%esi), %esi
  403748: e8 3f 08 00 00               	calll	0x403f8c <_GetLastError@0>
  40374d: 89 c3                        	movl	%eax, %ebx
  40374f: e8 c8 07 00 00               	calll	0x403f1c <__errno>
  403754: 89 18                        	movl	%ebx, (%eax)
  403756: 83 fb 03                     	cmpl	$3, %ebx
  403759: 74 24                        	je	0x40377f <.text+0xcf>
  40375b: e8 bc 07 00 00               	calll	0x403f1c <__errno>
  403760: 81 38 0b 01 00 00            	cmpl	$267, (%eax)
  403766: 74 24                        	je	0x40378c <.text+0xdc>
  403768: e8 af 07 00 00               	calll	0x403f1c <__errno>
  40376d: 83 38 02                     	cmpl	$2, (%eax)
  403770: 74 ac                        	je	0x40371e <.text+0x6e>
  403772: e8 a5 07 00 00               	calll	0x403f1c <__errno>
  403777: c7 00 16 00 00 00            	movl	$22, (%eax)
  40377d: eb 9f                        	jmp	0x40371e <.text+0x6e>
  40377f: e8 98 07 00 00               	calll	0x403f1c <__errno>
  403784: c7 00 02 00 00 00            	movl	$2, (%eax)
  40378a: eb 92                        	jmp	0x40371e <.text+0x6e>
  40378c: e8 8b 07 00 00               	calll	0x403f1c <__errno>
  403791: c7 00 14 00 00 00            	movl	$20, (%eax)
  403797: eb 85                        	jmp	0x40371e <.text+0x6e>
  403799: 8d b4 26 00 00 00 00         	leal	(%esi,%eiz), %esi
  4037a0: 56                           	pushl	%esi
  4037a1: 53                           	pushl	%ebx
  4037a2: 89 d3                        	movl	%edx, %ebx
  4037a4: 81 ec 54 01 00 00            	subl	$340, %esp
  4037aa: 8d 54 24 10                  	leal	16(%esp), %edx
  4037ae: 89 04 24                     	movl	%eax, (%esp)
  4037b1: 89 54 24 04                  	movl	%edx, 4(%esp)
  4037b5: e8 ea 07 00 00               	calll	0x403fa4 <_FindNextFileA@8>
  4037ba: 83 ec 08                     	subl	$8, %esp
  4037bd: 89 c6                        	movl	%eax, %esi
  4037bf: 85 c0                        	testl	%eax, %eax
  4037c1: 74 75                        	je	0x403838 <.text+0x188>
  4037c3: 31 c0                        	xorl	%eax, %eax
  4037c5: 8d 4b 0c                     	leal	12(%ebx), %ecx
  4037c8: 66 89 43 06                  	movw	%ax, 6(%ebx)
  4037cc: 0f b6 44 24 3c               	movzbl	60(%esp), %eax
  4037d1: 88 43 0c                     	movb	%al, 12(%ebx)
  4037d4: 84 c0                        	testb	%al, %al
  4037d6: 74 28                        	je	0x403800 <.text+0x150>
  4037d8: 31 c0                        	xorl	%eax, %eax
  4037da: eb 08                        	jmp	0x4037e4 <.text+0x134>
  4037dc: 8d 74 26 00                  	leal	(%esi,%eiz), %esi
  4037e0: 0f b7 43 06                  	movzwl	6(%ebx), %eax
  4037e4: 83 c0 01                     	addl	$1, %eax
  4037e7: 66 89 43 06                  	movw	%ax, 6(%ebx)
  4037eb: 66 3d 04 01                  	cmpw	$260, %ax
  4037ef: 0f b7 c0                     	movzwl	%ax, %eax
  4037f2: 0f b6 44 04 3c               	movzbl	60(%esp,%eax), %eax
  4037f7: 83 d1 00                     	adcl	$0, %ecx
  4037fa: 88 01                        	movb	%al, (%ecx)
  4037fc: 84 c0                        	testb	%al, %al
  4037fe: 75 e0                        	jne	0x4037e0 <.text+0x130>
  403800: 8b 44 24 10                  	movl	16(%esp), %eax
  403804: 24 58                        	andb	$88, %al
  403806: 83 f8 10                     	cmpl	$16, %eax
  403809: 77 15                        	ja	0x403820 <.text+0x170>
  40380b: 89 43 08                     	movl	%eax, 8(%ebx)
  40380e: 81 c4 54 01 00 00            	addl	$340, %esp
  403814: 89 f0                        	movl	%esi, %eax
  403816: 5b                           	popl	%ebx
  403817: 5e                           	popl	%esi
  403818: c3                           	retl
  403819: 8d b4 26 00 00 00 00         	leal	(%esi,%eiz), %esi
  403820: c7 43 08 18 00 00 00         	movl	$24, 8(%ebx)
  403827: 81 c4 54 01 00 00            	addl	$340, %esp
  40382d: 89 f0                        	movl	%esi, %eax
  40382f: 5b                           	popl	%ebx
  403830: 5e                           	popl	%esi
  403831: c3                           	retl
  403832: 8d b6 00 00 00 00            	leal	(%esi), %esi
  403838: e8 4f 07 00 00               	calll	0x403f8c <_GetLastError@0>
  40383d: 83 f8 12                     	cmpl	$18, %eax
  403840: 74 cc                        	je	0x40380e <.text+0x15e>
  403842: e8 d5 06 00 00               	calll	0x403f1c <__errno>
  403847: c7 00 02 00 00 00            	movl	$2, (%eax)
  40384d: 81 c4 54 01 00 00            	addl	$340, %esp
  403853: 89 f0                        	movl	%esi, %eax
  403855: 5b                           	popl	%ebx
  403856: 5e                           	popl	%esi
  403857: c3                           	retl
  403858: 8d b4 26 00 00 00 00         	leal	(%esi,%eiz), %esi
  40385f: 90                           	nop

00403860 <___mingw_opendir>:
  403860: 55                           	pushl	%ebp
  403861: 57                           	pushl	%edi
  403862: 56                           	pushl	%esi
  403863: 53                           	pushl	%ebx
  403864: 81 ec 2c 01 00 00            	subl	$300, %esp
  40386a: 8b 84 24 40 01 00 00         	movl	320(%esp), %eax
  403871: 85 c0                        	testl	%eax, %eax
  403873: 0f 84 af 01 00 00            	je	0x403a28 <___mingw_opendir+0x1c8>
  403879: 80 38 00                     	cmpb	$0, (%eax)
  40387c: 0f 84 86 01 00 00            	je	0x403a08 <___mingw_opendir+0x1a8>
  403882: 8d 74 24 1c                  	leal	28(%esp), %esi
  403886: c7 44 24 08 04 01 00 00      	movl	$260, 8(%esp)
  40388e: 89 44 24 04                  	movl	%eax, 4(%esp)
  403892: 89 34 24                     	movl	%esi, (%esp)
  403895: e8 7a 06 00 00               	calll	0x403f14 <__fullpath>
  40389a: 80 7c 24 1c 00               	cmpb	$0, 28(%esp)
  40389f: 89 f2                        	movl	%esi, %edx
  4038a1: 74 4d                        	je	0x4038f0 <___mingw_opendir+0x90>
  4038a3: 8b 0a                        	movl	(%edx), %ecx
  4038a5: 83 c2 04                     	addl	$4, %edx
  4038a8: 8d 81 ff fe fe fe            	leal	-16843009(%ecx), %eax
  4038ae: f7 d1                        	notl	%ecx
  4038b0: 21 c8                        	andl	%ecx, %eax
  4038b2: 25 80 80 80 80               	andl	$2155905152, %eax
  4038b7: 74 ea                        	je	0x4038a3 <___mingw_opendir+0x43>
  4038b9: a9 80 80 00 00               	testl	$32896, %eax
  4038be: 0f 84 34 01 00 00            	je	0x4039f8 <___mingw_opendir+0x198>
  4038c4: 89 c3                        	movl	%eax, %ebx
  4038c6: 00 c3                        	addb	%al, %bl
  4038c8: 83 da 03                     	sbbl	$3, %edx
  4038cb: 29 f2                        	subl	%esi, %edx
  4038cd: 0f b6 4c 14 1b               	movzbl	27(%esp,%edx), %ecx
  4038d2: 8d 04 16                     	leal	(%esi,%edx), %eax
  4038d5: 80 f9 2f                     	cmpb	$47, %cl
  4038d8: 74 40                        	je	0x40391a <___mingw_opendir+0xba>
  4038da: 80 f9 5c                     	cmpb	$92, %cl
  4038dd: 74 3b                        	je	0x40391a <___mingw_opendir+0xba>
  4038df: b9 5c 00 00 00               	movl	$92, %ecx
  4038e4: 66 89 08                     	movw	%cx, (%eax)
  4038e7: 8d 44 16 01                  	leal	1(%esi,%edx), %eax
  4038eb: eb 2d                        	jmp	0x40391a <___mingw_opendir+0xba>
  4038ed: 8d 76 00                     	leal	(%esi), %esi
  4038f0: 8b 0a                        	movl	(%edx), %ecx
  4038f2: 83 c2 04                     	addl	$4, %edx
  4038f5: 8d 81 ff fe fe fe            	leal	-16843009(%ecx), %eax
  4038fb: f7 d1                        	notl	%ecx
  4038fd: 21 c8                        	andl	%ecx, %eax
  4038ff: 25 80 80 80 80               	andl	$2155905152, %eax
  403904: 74 ea                        	je	0x4038f0 <___mingw_opendir+0x90>
  403906: a9 80 80 00 00               	testl	$32896, %eax
  40390b: 0f 84 d7 00 00 00            	je	0x4039e8 <___mingw_opendir+0x188>
  403911: 89 c3                        	movl	%eax, %ebx
  403913: 00 c3                        	addb	%al, %bl
  403915: 89 d0                        	movl	%edx, %eax
  403917: 83 d8 03                     	sbbl	$3, %eax
  40391a: ba 2a 00 00 00               	movl	$42, %edx
  40391f: 89 f3                        	movl	%esi, %ebx
  403921: 66 89 10                     	movw	%dx, (%eax)
  403924: 8b 13                        	movl	(%ebx), %edx
  403926: 83 c3 04                     	addl	$4, %ebx
  403929: 8d 82 ff fe fe fe            	leal	-16843009(%edx), %eax
  40392f: f7 d2                        	notl	%edx
  403931: 21 d0                        	andl	%edx, %eax
  403933: 25 80 80 80 80               	andl	$2155905152, %eax
  403938: 74 ea                        	je	0x403924 <___mingw_opendir+0xc4>
  40393a: a9 80 80 00 00               	testl	$32896, %eax
  40393f: 75 06                        	jne	0x403947 <___mingw_opendir+0xe7>
  403941: c1 e8 10                     	shrl	$16, %eax
  403944: 83 c3 02                     	addl	$2, %ebx
  403947: 89 c1                        	movl	%eax, %ecx
  403949: 00 c1                        	addb	%al, %cl
  40394b: 83 db 03                     	sbbl	$3, %ebx
  40394e: 29 f3                        	subl	%esi, %ebx
  403950: 8d 83 1c 01 00 00            	leal	284(%ebx), %eax
  403956: 89 04 24                     	movl	%eax, (%esp)
  403959: e8 7e 05 00 00               	calll	0x403edc <_malloc>
  40395e: 89 c5                        	movl	%eax, %ebp
  403960: 85 c0                        	testl	%eax, %eax
  403962: 0f 84 e7 00 00 00            	je	0x403a4f <___mingw_opendir+0x1ef>
  403968: 8d 4b 01                     	leal	1(%ebx), %ecx
  40396b: 8d 80 18 01 00 00            	leal	280(%eax), %eax
  403971: 83 f9 04                     	cmpl	$4, %ecx
  403974: 72 52                        	jb	0x4039c8 <___mingw_opendir+0x168>
  403976: 8b 54 0c 18                  	movl	24(%esp,%ecx), %edx
  40397a: c1 eb 02                     	shrl	$2, %ebx
  40397d: 89 c7                        	movl	%eax, %edi
  40397f: 89 54 08 fc                  	movl	%edx, -4(%eax,%ecx)
  403983: 89 d9                        	movl	%ebx, %ecx
  403985: f3 a5                        	rep		movsl	(%esi), %es:(%edi)
  403987: 89 ea                        	movl	%ebp, %edx
  403989: e8 22 fd ff ff               	calll	0x4036b0 <.text>
  40398e: 89 85 10 01 00 00            	movl	%eax, 272(%ebp)
  403994: 83 f8 ff                     	cmpl	$-1, %eax
  403997: 0f 84 a3 00 00 00            	je	0x403a40 <___mingw_opendir+0x1e0>
  40399d: b8 10 01 00 00               	movl	$272, %eax
  4039a2: c7 45 00 00 00 00 00         	movl	$0, (%ebp)
  4039a9: c7 85 14 01 00 00 00 00 00 00	movl	$0, 276(%ebp)
  4039b3: 66 89 45 04                  	movw	%ax, 4(%ebp)
  4039b7: 81 c4 2c 01 00 00            	addl	$300, %esp
  4039bd: 89 e8                        	movl	%ebp, %eax
  4039bf: 5b                           	popl	%ebx
  4039c0: 5e                           	popl	%esi
  4039c1: 5f                           	popl	%edi
  4039c2: 5d                           	popl	%ebp
  4039c3: c3                           	retl
  4039c4: 8d 74 26 00                  	leal	(%esi,%eiz), %esi
  4039c8: 85 c9                        	testl	%ecx, %ecx
  4039ca: 74 bb                        	je	0x403987 <___mingw_opendir+0x127>
  4039cc: 0f b6 16                     	movzbl	(%esi), %edx
  4039cf: 88 10                        	movb	%dl, (%eax)
  4039d1: f6 c1 02                     	testb	$2, %cl
  4039d4: 74 b1                        	je	0x403987 <___mingw_opendir+0x127>
  4039d6: 0f b7 54 0e fe               	movzwl	-2(%esi,%ecx), %edx
  4039db: 66 89 54 08 fe               	movw	%dx, -2(%eax,%ecx)
  4039e0: eb a5                        	jmp	0x403987 <___mingw_opendir+0x127>
  4039e2: 8d b6 00 00 00 00            	leal	(%esi), %esi
  4039e8: c1 e8 10                     	shrl	$16, %eax
  4039eb: 83 c2 02                     	addl	$2, %edx
  4039ee: e9 1e ff ff ff               	jmp	0x403911 <___mingw_opendir+0xb1>
  4039f3: 8d 74 26 00                  	leal	(%esi,%eiz), %esi
  4039f7: 90                           	nop
  4039f8: c1 e8 10                     	shrl	$16, %eax
  4039fb: 83 c2 02                     	addl	$2, %edx
  4039fe: e9 c1 fe ff ff               	jmp	0x4038c4 <___mingw_opendir+0x64>
  403a03: 8d 74 26 00                  	leal	(%esi,%eiz), %esi
  403a07: 90                           	nop
  403a08: e8 0f 05 00 00               	calll	0x403f1c <__errno>
  403a0d: 31 ed                        	xorl	%ebp, %ebp
  403a0f: c7 00 02 00 00 00            	movl	$2, (%eax)
  403a15: 81 c4 2c 01 00 00            	addl	$300, %esp
  403a1b: 89 e8                        	movl	%ebp, %eax
  403a1d: 5b                           	popl	%ebx
  403a1e: 5e                           	popl	%esi
  403a1f: 5f                           	popl	%edi
  403a20: 5d                           	popl	%ebp
  403a21: c3                           	retl
  403a22: 8d b6 00 00 00 00            	leal	(%esi), %esi
  403a28: e8 ef 04 00 00               	calll	0x403f1c <__errno>
  403a2d: 31 ed                        	xorl	%ebp, %ebp
  403a2f: c7 00 16 00 00 00            	movl	$22, (%eax)
  403a35: eb 80                        	jmp	0x4039b7 <___mingw_opendir+0x157>
  403a37: 8d b4 26 00 00 00 00         	leal	(%esi,%eiz), %esi
  403a3e: 66 90                        	nop
  403a40: 89 2c 24                     	movl	%ebp, (%esp)
  403a43: 31 ed                        	xorl	%ebp, %ebp
  403a45: e8 16 e7 ff ff               	calll	0x402160 <___mingw_free>
  403a4a: e9 68 ff ff ff               	jmp	0x4039b7 <___mingw_opendir+0x157>
  403a4f: e8 c8 04 00 00               	calll	0x403f1c <__errno>
  403a54: c7 00 0c 00 00 00            	movl	$12, (%eax)
  403a5a: e9 58 ff ff ff               	jmp	0x4039b7 <___mingw_opendir+0x157>
  403a5f: 90                           	nop

00403a60 <___mingw_readdir>:
  403a60: 53                           	pushl	%ebx
  403a61: 83 ec 08                     	subl	$8, %esp
  403a64: 8b 44 24 10                  	movl	16(%esp), %eax
  403a68: 85 c0                        	testl	%eax, %eax
  403a6a: 74 34                        	je	0x403aa0 <___mingw_readdir+0x40>
  403a6c: 8b 90 14 01 00 00            	movl	276(%eax), %edx
  403a72: 89 c3                        	movl	%eax, %ebx
  403a74: 8d 4a 01                     	leal	1(%edx), %ecx
  403a77: 89 88 14 01 00 00            	movl	%ecx, 276(%eax)
  403a7d: 85 d2                        	testl	%edx, %edx
  403a7f: 7e 16                        	jle	0x403a97 <___mingw_readdir+0x37>
  403a81: 8b 80 10 01 00 00            	movl	272(%eax), %eax
  403a87: 89 da                        	movl	%ebx, %edx
  403a89: e8 12 fd ff ff               	calll	0x4037a0 <.text+0xf0>
  403a8e: 83 f8 01                     	cmpl	$1, %eax
  403a91: 19 c0                        	sbbl	%eax, %eax
  403a93: f7 d0                        	notl	%eax
  403a95: 21 c3                        	andl	%eax, %ebx
  403a97: 83 c4 08                     	addl	$8, %esp
  403a9a: 89 d8                        	movl	%ebx, %eax
  403a9c: 5b                           	popl	%ebx
  403a9d: c3                           	retl
  403a9e: 66 90                        	nop
  403aa0: e8 77 04 00 00               	calll	0x403f1c <__errno>
  403aa5: 31 db                        	xorl	%ebx, %ebx
  403aa7: c7 00 09 00 00 00            	movl	$9, (%eax)
  403aad: eb e8                        	jmp	0x403a97 <___mingw_readdir+0x37>
  403aaf: 90                           	nop

00403ab0 <___mingw_closedir>:
  403ab0: 53                           	pushl	%ebx
  403ab1: 83 ec 18                     	subl	$24, %esp
  403ab4: 8b 5c 24 20                  	movl	32(%esp), %ebx
  403ab8: 85 db                        	testl	%ebx, %ebx
  403aba: 74 24                        	je	0x403ae0 <___mingw_closedir+0x30>
  403abc: 8b 83 10 01 00 00            	movl	272(%ebx), %eax
  403ac2: 89 04 24                     	movl	%eax, (%esp)
  403ac5: e8 ea 04 00 00               	calll	0x403fb4 <_FindClose@4>
  403aca: 83 ec 04                     	subl	$4, %esp
  403acd: 85 c0                        	testl	%eax, %eax
  403acf: 74 0f                        	je	0x403ae0 <___mingw_closedir+0x30>
  403ad1: 89 1c 24                     	movl	%ebx, (%esp)
  403ad4: e8 87 e6 ff ff               	calll	0x402160 <___mingw_free>
  403ad9: 31 c0                        	xorl	%eax, %eax
  403adb: 83 c4 18                     	addl	$24, %esp
  403ade: 5b                           	popl	%ebx
  403adf: c3                           	retl
  403ae0: e8 37 04 00 00               	calll	0x403f1c <__errno>
  403ae5: c7 00 09 00 00 00            	movl	$9, (%eax)
  403aeb: b8 ff ff ff ff               	movl	$4294967295, %eax
  403af0: eb e9                        	jmp	0x403adb <___mingw_closedir+0x2b>
  403af2: 8d b4 26 00 00 00 00         	leal	(%esi,%eiz), %esi
  403af9: 8d b4 26 00 00 00 00         	leal	(%esi,%eiz), %esi

00403b00 <___mingw_rewinddir>:
  403b00: 53                           	pushl	%ebx
  403b01: 83 ec 18                     	subl	$24, %esp
  403b04: 8b 5c 24 20                  	movl	32(%esp), %ebx
  403b08: 85 db                        	testl	%ebx, %ebx
  403b0a: 74 15                        	je	0x403b21 <___mingw_rewinddir+0x21>
  403b0c: 8b 83 10 01 00 00            	movl	272(%ebx), %eax
  403b12: 89 04 24                     	movl	%eax, (%esp)
  403b15: e8 9a 04 00 00               	calll	0x403fb4 <_FindClose@4>
  403b1a: 83 ec 04                     	subl	$4, %esp
  403b1d: 85 c0                        	testl	%eax, %eax
  403b1f: 75 17                        	jne	0x403b38 <___mingw_rewinddir+0x38>
  403b21: e8 f6 03 00 00               	calll	0x403f1c <__errno>
  403b26: c7 00 09 00 00 00            	movl	$9, (%eax)
  403b2c: 83 c4 18                     	addl	$24, %esp
  403b2f: 5b                           	popl	%ebx
  403b30: c3                           	retl
  403b31: 8d b4 26 00 00 00 00         	leal	(%esi,%eiz), %esi
  403b38: 8d 83 18 01 00 00            	leal	280(%ebx), %eax
  403b3e: 89 da                        	movl	%ebx, %edx
  403b40: e8 6b fb ff ff               	calll	0x4036b0 <.text>
  403b45: 89 83 10 01 00 00            	movl	%eax, 272(%ebx)
  403b4b: 83 f8 ff                     	cmpl	$-1, %eax
  403b4e: 74 dc                        	je	0x403b2c <___mingw_rewinddir+0x2c>
  403b50: c7 83 14 01 00 00 00 00 00 00	movl	$0, 276(%ebx)
  403b5a: 83 c4 18                     	addl	$24, %esp
  403b5d: 5b                           	popl	%ebx
  403b5e: c3                           	retl
  403b5f: 90                           	nop

00403b60 <___mingw_telldir>:
  403b60: 83 ec 0c                     	subl	$12, %esp
  403b63: 8b 44 24 10                  	movl	16(%esp), %eax
  403b67: 85 c0                        	testl	%eax, %eax
  403b69: 74 0a                        	je	0x403b75 <___mingw_telldir+0x15>
  403b6b: 8b 80 14 01 00 00            	movl	276(%eax), %eax
  403b71: 83 c4 0c                     	addl	$12, %esp
  403b74: c3                           	retl
  403b75: e8 a2 03 00 00               	calll	0x403f1c <__errno>
  403b7a: c7 00 09 00 00 00            	movl	$9, (%eax)
  403b80: b8 ff ff ff ff               	movl	$4294967295, %eax
  403b85: eb ea                        	jmp	0x403b71 <___mingw_telldir+0x11>
  403b87: 8d b4 26 00 00 00 00         	leal	(%esi,%eiz), %esi
  403b8e: 66 90                        	nop

00403b90 <___mingw_seekdir>:
  403b90: 56                           	pushl	%esi
  403b91: 53                           	pushl	%ebx
  403b92: 83 ec 14                     	subl	$20, %esp
  403b95: 8b 74 24 24                  	movl	36(%esp), %esi
  403b99: 8b 5c 24 20                  	movl	32(%esp), %ebx
  403b9d: 85 f6                        	testl	%esi, %esi
  403b9f: 78 4f                        	js	0x403bf0 <___mingw_seekdir+0x60>
  403ba1: 89 1c 24                     	movl	%ebx, (%esp)
  403ba4: e8 57 ff ff ff               	calll	0x403b00 <___mingw_rewinddir>
  403ba9: 85 f6                        	testl	%esi, %esi
  403bab: 74 37                        	je	0x403be4 <___mingw_seekdir+0x54>
  403bad: 83 bb 10 01 00 00 ff         	cmpl	$-1, 272(%ebx)
  403bb4: 75 1b                        	jne	0x403bd1 <___mingw_seekdir+0x41>
  403bb6: eb 2c                        	jmp	0x403be4 <___mingw_seekdir+0x54>
  403bb8: 8d b4 26 00 00 00 00         	leal	(%esi,%eiz), %esi
  403bbf: 90                           	nop
  403bc0: 8b 83 10 01 00 00            	movl	272(%ebx), %eax
  403bc6: 89 da                        	movl	%ebx, %edx
  403bc8: e8 d3 fb ff ff               	calll	0x4037a0 <.text+0xf0>
  403bcd: 85 c0                        	testl	%eax, %eax
  403bcf: 74 13                        	je	0x403be4 <___mingw_seekdir+0x54>
  403bd1: 8b 83 14 01 00 00            	movl	276(%ebx), %eax
  403bd7: 83 c0 01                     	addl	$1, %eax
  403bda: 89 83 14 01 00 00            	movl	%eax, 276(%ebx)
  403be0: 39 f0                        	cmpl	%esi, %eax
  403be2: 7c dc                        	jl	0x403bc0 <___mingw_seekdir+0x30>
  403be4: 83 c4 14                     	addl	$20, %esp
  403be7: 5b                           	popl	%ebx
  403be8: 5e                           	popl	%esi
  403be9: c3                           	retl
  403bea: 8d b6 00 00 00 00            	leal	(%esi), %esi
  403bf0: e8 27 03 00 00               	calll	0x403f1c <__errno>
  403bf5: c7 00 16 00 00 00            	movl	$22, (%eax)
  403bfb: 83 c4 14                     	addl	$20, %esp
  403bfe: 5b                           	popl	%ebx
  403bff: 5e                           	popl	%esi
  403c00: c3                           	retl
  403c01: 90                           	nop
  403c02: 90                           	nop
  403c03: 90                           	nop
  403c04: 90                           	nop
  403c05: 90                           	nop
  403c06: 90                           	nop
  403c07: 90                           	nop
  403c08: 90                           	nop
  403c09: 90                           	nop
  403c0a: 90                           	nop
  403c0b: 90                           	nop
  403c0c: 90                           	nop
  403c0d: 90                           	nop
  403c0e: 90                           	nop
  403c0f: 90                           	nop

00403c10 <___mingw_memalign_base>:
  403c10: 55                           	pushl	%ebp
  403c11: 57                           	pushl	%edi
  403c12: 56                           	pushl	%esi
  403c13: 53                           	pushl	%ebx
  403c14: 83 ec 08                     	subl	$8, %esp
  403c17: 8b 44 24 1c                  	movl	28(%esp), %eax
  403c1b: 85 c0                        	testl	%eax, %eax
  403c1d: 0f 84 83 00 00 00            	je	0x403ca6 <___mingw_memalign_base+0x96>
  403c23: 8b 35 6c 80 40 00            	movl	4227180, %esi
  403c29: 85 f6                        	testl	%esi, %esi
  403c2b: 74 79                        	je	0x403ca6 <___mingw_memalign_base+0x96>
  403c2d: 8d 56 08                     	leal	8(%esi), %edx
  403c30: 39 c2                        	cmpl	%eax, %edx
  403c32: 77 72                        	ja	0x403ca6 <___mingw_memalign_base+0x96>
  403c34: 8d 50 fc                     	leal	-4(%eax), %edx
  403c37: 8b 7c 24 20                  	movl	32(%esp), %edi
  403c3b: 83 e2 fc                     	andl	$-4, %edx
  403c3e: 8b 12                        	movl	(%edx), %edx
  403c40: 89 d3                        	movl	%edx, %ebx
  403c42: 89 d1                        	movl	%edx, %ecx
  403c44: 83 e3 03                     	andl	$3, %ebx
  403c47: 83 e1 fc                     	andl	$-4, %ecx
  403c4a: 89 5f 04                     	movl	%ebx, 4(%edi)
  403c4d: 89 0f                        	movl	%ecx, (%edi)
  403c4f: 39 ce                        	cmpl	%ecx, %esi
  403c51: 77 53                        	ja	0x403ca6 <___mingw_memalign_base+0x96>
  403c53: 8d 70 f8                     	leal	-8(%eax), %esi
  403c56: 39 f1                        	cmpl	%esi, %ecx
  403c58: 77 4c                        	ja	0x403ca6 <___mingw_memalign_base+0x96>
  403c5a: 89 4c 24 04                  	movl	%ecx, 4(%esp)
  403c5e: f6 c2 01                     	testb	$1, %dl
  403c61: 74 4d                        	je	0x403cb0 <___mingw_memalign_base+0xa0>
  403c63: 8b 39                        	movl	(%ecx), %edi
  403c65: 89 fd                        	movl	%edi, %ebp
  403c67: 8d 77 07                     	leal	7(%edi), %esi
  403c6a: f7 dd                        	negl	%ebp
  403c6c: 89 2c 24                     	movl	%ebp, (%esp)
  403c6f: 8b 6c 24 20                  	movl	32(%esp), %ebp
  403c73: 89 7d 08                     	movl	%edi, 8(%ebp)
  403c76: 83 e2 02                     	andl	$2, %edx
  403c79: 74 0b                        	je	0x403c86 <___mingw_memalign_base+0x76>
  403c7b: 8d 53 01                     	leal	1(%ebx), %edx
  403c7e: c1 ea 02                     	shrl	$2, %edx
  403c81: 8b 14 91                     	movl	(%ecx,%edx,4), %edx
  403c84: 01 d1                        	addl	%edx, %ecx
  403c86: 8b 6c 24 20                  	movl	32(%esp), %ebp
  403c8a: 89 55 0c                     	movl	%edx, 12(%ebp)
  403c8d: 83 fb 03                     	cmpl	$3, %ebx
  403c90: 75 03                        	jne	0x403c95 <___mingw_memalign_base+0x85>
  403c92: 8d 77 0b                     	leal	11(%edi), %esi
  403c95: 8b 2c 24                     	movl	(%esp), %ebp
  403c98: 01 f1                        	addl	%esi, %ecx
  403c9a: 21 cd                        	andl	%ecx, %ebp
  403c9c: 29 d5                        	subl	%edx, %ebp
  403c9e: 39 e8                        	cmpl	%ebp, %eax
  403ca0: 75 04                        	jne	0x403ca6 <___mingw_memalign_base+0x96>
  403ca2: 8b 44 24 04                  	movl	4(%esp), %eax
  403ca6: 83 c4 08                     	addl	$8, %esp
  403ca9: 5b                           	popl	%ebx
  403caa: 5e                           	popl	%esi
  403cab: 5f                           	popl	%edi
  403cac: 5d                           	popl	%ebp
  403cad: c3                           	retl
  403cae: 66 90                        	nop
  403cb0: c7 04 24 f8 ff ff ff         	movl	$4294967288, (%esp)
  403cb7: be 0f 00 00 00               	movl	$15, %esi
  403cbc: bf 08 00 00 00               	movl	$8, %edi
  403cc1: eb ac                        	jmp	0x403c6f <___mingw_memalign_base+0x5f>
  403cc3: 90                           	nop
  403cc4: 90                           	nop
  403cc5: 90                           	nop
  403cc6: 90                           	nop
  403cc7: 90                           	nop
  403cc8: 90                           	nop
  403cc9: 90                           	nop
  403cca: 90                           	nop
  403ccb: 90                           	nop
  403ccc: 90                           	nop
  403ccd: 90                           	nop
  403cce: 90                           	nop
  403ccf: 90                           	nop

00403cd0 <___mingw_realloc>:
  403cd0: 57                           	pushl	%edi
  403cd1: 56                           	pushl	%esi
  403cd2: 53                           	pushl	%ebx
  403cd3: 83 ec 20                     	subl	$32, %esp
  403cd6: 8b 5c 24 30                  	movl	48(%esp), %ebx
  403cda: 8b 74 24 34                  	movl	52(%esp), %esi
  403cde: 85 db                        	testl	%ebx, %ebx
  403ce0: 74 3a                        	je	0x403d1c <___mingw_realloc+0x4c>
  403ce2: 8d 7c 24 10                  	leal	16(%esp), %edi
  403ce6: 89 1c 24                     	movl	%ebx, (%esp)
  403ce9: 89 7c 24 04                  	movl	%edi, 4(%esp)
  403ced: e8 1e ff ff ff               	calll	0x403c10 <___mingw_memalign_base>
  403cf2: 39 c3                        	cmpl	%eax, %ebx
  403cf4: 74 26                        	je	0x403d1c <___mingw_realloc+0x4c>
  403cf6: 85 f6                        	testl	%esi, %esi
  403cf8: 74 1e                        	je	0x403d18 <___mingw_realloc+0x48>
  403cfa: 39 74 24 1c                  	cmpl	%esi, 28(%esp)
  403cfe: 72 30                        	jb	0x403d30 <___mingw_realloc+0x60>
  403d00: e8 17 02 00 00               	calll	0x403f1c <__errno>
  403d05: c7 00 16 00 00 00            	movl	$22, (%eax)
  403d0b: 83 c4 20                     	addl	$32, %esp
  403d0e: 31 c0                        	xorl	%eax, %eax
  403d10: 5b                           	popl	%ebx
  403d11: 5e                           	popl	%esi
  403d12: 5f                           	popl	%edi
  403d13: c3                           	retl
  403d14: 8d 74 26 00                  	leal	(%esi,%eiz), %esi
  403d18: 8b 5c 24 10                  	movl	16(%esp), %ebx
  403d1c: 89 74 24 04                  	movl	%esi, 4(%esp)
  403d20: 89 1c 24                     	movl	%ebx, (%esp)
  403d23: ff 15 20 92 40 00            	calll	*4231712
  403d29: 83 c4 20                     	addl	$32, %esp
  403d2c: 5b                           	popl	%ebx
  403d2d: 5e                           	popl	%esi
  403d2e: 5f                           	popl	%edi
  403d2f: c3                           	retl
  403d30: 89 74 24 08                  	movl	%esi, 8(%esp)
  403d34: 89 7c 24 04                  	movl	%edi, 4(%esp)
  403d38: 89 1c 24                     	movl	%ebx, (%esp)
  403d3b: e8 10 00 00 00               	calll	0x403d50 <___mingw_memalign_realloc>
  403d40: 83 c4 20                     	addl	$32, %esp
  403d43: 5b                           	popl	%ebx
  403d44: 5e                           	popl	%esi
  403d45: 5f                           	popl	%edi
  403d46: c3                           	retl
  403d47: 90                           	nop
  403d48: 90                           	nop
  403d49: 90                           	nop
  403d4a: 90                           	nop
  403d4b: 90                           	nop
  403d4c: 90                           	nop
  403d4d: 90                           	nop
  403d4e: 90                           	nop
  403d4f: 90                           	nop

00403d50 <___mingw_memalign_realloc>:
  403d50: 55                           	pushl	%ebp
  403d51: 57                           	pushl	%edi
  403d52: 56                           	pushl	%esi
  403d53: 53                           	pushl	%ebx
  403d54: 83 ec 1c                     	subl	$28, %esp
  403d57: 8b 74 24 34                  	movl	52(%esp), %esi
  403d5b: 8b 06                        	movl	(%esi), %eax
  403d5d: 89 04 24                     	movl	%eax, (%esp)
  403d60: e8 9f 01 00 00               	calll	0x403f04 <__msize>
  403d65: 8b 56 08                     	movl	8(%esi), %edx
  403d68: 89 c7                        	movl	%eax, %edi
  403d6a: 8b 46 04                     	movl	4(%esi), %eax
  403d6d: 8d 5a 07                     	leal	7(%edx), %ebx
  403d70: 83 e0 03                     	andl	$3, %eax
  403d73: 83 f8 03                     	cmpl	$3, %eax
  403d76: 75 03                        	jne	0x403d7b <___mingw_memalign_realloc+0x2b>
  403d78: 8d 5a 0b                     	leal	11(%edx), %ebx
  403d7b: 8b 44 24 38                  	movl	56(%esp), %eax
  403d7f: 01 d8                        	addl	%ebx, %eax
  403d81: 89 44 24 04                  	movl	%eax, 4(%esp)
  403d85: 8b 06                        	movl	(%esi), %eax
  403d87: 89 04 24                     	movl	%eax, (%esp)
  403d8a: ff 15 20 92 40 00            	calll	*4231712
  403d90: 8b 16                        	movl	(%esi), %edx
  403d92: 39 c2                        	cmpl	%eax, %edx
  403d94: 0f 84 86 00 00 00            	je	0x403e20 <___mingw_memalign_realloc+0xd0>
  403d9a: 31 ed                        	xorl	%ebp, %ebp
  403d9c: 85 c0                        	testl	%eax, %eax
  403d9e: 74 59                        	je	0x403df9 <___mingw_memalign_realloc+0xa9>
  403da0: 8b 4c 24 30                  	movl	48(%esp), %ecx
  403da4: 8b 2d 6c 80 40 00            	movl	4227180, %ebp
  403daa: 29 d1                        	subl	%edx, %ecx
  403dac: 85 ed                        	testl	%ebp, %ebp
  403dae: 75 58                        	jne	0x403e08 <___mingw_memalign_realloc+0xb8>
  403db0: a3 6c 80 40 00               	movl	%eax, 4227180
  403db5: 8b 6e 04                     	movl	4(%esi), %ebp
  403db8: 03 5e 0c                     	addl	12(%esi), %ebx
  403dbb: 01 c3                        	addl	%eax, %ebx
  403dbd: 09 c5                        	orl	%eax, %ebp
  403dbf: 01 c8                        	addl	%ecx, %eax
  403dc1: 89 2e                        	movl	%ebp, (%esi)
  403dc3: 8b 6e 08                     	movl	8(%esi), %ebp
  403dc6: f7 dd                        	negl	%ebp
  403dc8: 21 eb                        	andl	%ebp, %ebx
  403dca: 2b 5e 0c                     	subl	12(%esi), %ebx
  403dcd: 89 dd                        	movl	%ebx, %ebp
  403dcf: 39 c3                        	cmpl	%eax, %ebx
  403dd1: 74 1c                        	je	0x403def <___mingw_memalign_realloc+0x9f>
  403dd3: 2b 54 24 30                  	subl	48(%esp), %edx
  403dd7: 01 d7                        	addl	%edx, %edi
  403dd9: 3b 7c 24 38                  	cmpl	56(%esp), %edi
  403ddd: 77 31                        	ja	0x403e10 <___mingw_memalign_realloc+0xc0>
  403ddf: 89 7c 24 08                  	movl	%edi, 8(%esp)
  403de3: 89 44 24 04                  	movl	%eax, 4(%esp)
  403de7: 89 1c 24                     	movl	%ebx, (%esp)
  403dea: e8 d5 00 00 00               	calll	0x403ec4 <_memmove>
  403def: 8b 06                        	movl	(%esi), %eax
  403df1: 83 eb 04                     	subl	$4, %ebx
  403df4: 83 e3 fc                     	andl	$-4, %ebx
  403df7: 89 03                        	movl	%eax, (%ebx)
  403df9: 83 c4 1c                     	addl	$28, %esp
  403dfc: 89 e8                        	movl	%ebp, %eax
  403dfe: 5b                           	popl	%ebx
  403dff: 5e                           	popl	%esi
  403e00: 5f                           	popl	%edi
  403e01: 5d                           	popl	%ebp
  403e02: c3                           	retl
  403e03: 8d 74 26 00                  	leal	(%esi,%eiz), %esi
  403e07: 90                           	nop
  403e08: 39 c5                        	cmpl	%eax, %ebp
  403e0a: 76 a9                        	jbe	0x403db5 <___mingw_memalign_realloc+0x65>
  403e0c: eb a2                        	jmp	0x403db0 <___mingw_memalign_realloc+0x60>
  403e0e: 66 90                        	nop
  403e10: 8b 7c 24 38                  	movl	56(%esp), %edi
  403e14: eb c9                        	jmp	0x403ddf <___mingw_memalign_realloc+0x8f>
  403e16: 8d b4 26 00 00 00 00         	leal	(%esi,%eiz), %esi
  403e1d: 8d 76 00                     	leal	(%esi), %esi
  403e20: 8b 6c 24 30                  	movl	48(%esp), %ebp
  403e24: 83 c4 1c                     	addl	$28, %esp
  403e27: 5b                           	popl	%ebx
  403e28: 5e                           	popl	%esi
  403e29: 89 e8                        	movl	%ebp, %eax
  403e2b: 5f                           	popl	%edi
  403e2c: 5d                           	popl	%ebp
  403e2d: c3                           	retl
  403e2e: 90                           	nop
  403e2f: 90                           	nop

00403e30 <___chkstk_ms>:
  403e30: 51                           	pushl	%ecx
  403e31: 50                           	pushl	%eax
  403e32: 3d 00 10 00 00               	cmpl	$4096, %eax
  403e37: 8d 4c 24 0c                  	leal	12(%esp), %ecx
  403e3b: 72 15                        	jb	0x403e52 <___chkstk_ms+0x22>
  403e3d: 81 e9 00 10 00 00            	subl	$4096, %ecx
  403e43: 83 09 00                     	orl	$0, (%ecx)
  403e46: 2d 00 10 00 00               	subl	$4096, %eax
  403e4b: 3d 00 10 00 00               	cmpl	$4096, %eax
  403e50: 77 eb                        	ja	0x403e3d <___chkstk_ms+0xd>
  403e52: 29 c1                        	subl	%eax, %ecx
  403e54: 83 09 00                     	orl	$0, (%ecx)
  403e57: 58                           	popl	%eax
  403e58: 59                           	popl	%ecx
  403e59: c3                           	retl
  403e5a: 90                           	nop
  403e5b: 90                           	nop

00403e5c <_stricoll>:
  403e5c: ff 25 8c 91 40 00            	jmpl	*4231564
  403e62: 90                           	nop
  403e63: 90                           	nop

00403e64 <_strdup>:
  403e64: ff 25 88 91 40 00            	jmpl	*4231560
  403e6a: 90                           	nop
  403e6b: 90                           	nop

00403e6c <_wcstombs>:
  403e6c: ff 25 18 92 40 00            	jmpl	*4231704
  403e72: 90                           	nop
  403e73: 90                           	nop

00403e74 <_vfprintf>:
  403e74: ff 25 14 92 40 00            	jmpl	*4231700
  403e7a: 90                           	nop
  403e7b: 90                           	nop

00403e7c <_tolower>:
  403e7c: ff 25 10 92 40 00            	jmpl	*4231696
  403e82: 90                           	nop
  403e83: 90                           	nop

00403e84 <_strlen>:
  403e84: ff 25 0c 92 40 00            	jmpl	*4231692
  403e8a: 90                           	nop
  403e8b: 90                           	nop

00403e8c <_strcoll>:
  403e8c: ff 25 08 92 40 00            	jmpl	*4231688
  403e92: 90                           	nop
  403e93: 90                           	nop

00403e94 <_strcmp>:
  403e94: ff 25 04 92 40 00            	jmpl	*4231684
  403e9a: 90                           	nop
  403e9b: 90                           	nop

00403e9c <_signal>:
  403e9c: ff 25 00 92 40 00            	jmpl	*4231680
  403ea2: 90                           	nop
  403ea3: 90                           	nop

00403ea4 <_setlocale>:
  403ea4: ff 25 fc 91 40 00            	jmpl	*4231676
  403eaa: 90                           	nop
  403eab: 90                           	nop

00403eac <_scanf>:
  403eac: ff 25 f8 91 40 00            	jmpl	*4231672
  403eb2: 90                           	nop
  403eb3: 90                           	nop

00403eb4 <_puts>:
  403eb4: ff 25 f4 91 40 00            	jmpl	*4231668
  403eba: 90                           	nop
  403ebb: 90                           	nop

00403ebc <_printf>:
  403ebc: ff 25 f0 91 40 00            	jmpl	*4231664
  403ec2: 90                           	nop
  403ec3: 90                           	nop

00403ec4 <_memmove>:
  403ec4: ff 25 ec 91 40 00            	jmpl	*4231660
  403eca: 90                           	nop
  403ecb: 90                           	nop

00403ecc <_memcpy>:
  403ecc: ff 25 e8 91 40 00            	jmpl	*4231656
  403ed2: 90                           	nop
  403ed3: 90                           	nop

00403ed4 <_mbstowcs>:
  403ed4: ff 25 e4 91 40 00            	jmpl	*4231652
  403eda: 90                           	nop
  403edb: 90                           	nop

00403edc <_malloc>:
  403edc: ff 25 e0 91 40 00            	jmpl	*4231648
  403ee2: 90                           	nop
  403ee3: 90                           	nop

00403ee4 <_fwrite>:
  403ee4: ff 25 dc 91 40 00            	jmpl	*4231644
  403eea: 90                           	nop
  403eeb: 90                           	nop

00403eec <_calloc>:
  403eec: ff 25 d8 91 40 00            	jmpl	*4231640
  403ef2: 90                           	nop
  403ef3: 90                           	nop

00403ef4 <_abort>:
  403ef4: ff 25 d0 91 40 00            	jmpl	*4231632
  403efa: 90                           	nop
  403efb: 90                           	nop

00403efc <__setmode>:
  403efc: ff 25 cc 91 40 00            	jmpl	*4231628
  403f02: 90                           	nop
  403f03: 90                           	nop

00403f04 <__msize>:
  403f04: ff 25 c0 91 40 00            	jmpl	*4231616
  403f0a: 90                           	nop
  403f0b: 90                           	nop

00403f0c <__isctype>:
  403f0c: ff 25 bc 91 40 00            	jmpl	*4231612
  403f12: 90                           	nop
  403f13: 90                           	nop

00403f14 <__fullpath>:
  403f14: ff 25 b4 91 40 00            	jmpl	*4231604
  403f1a: 90                           	nop
  403f1b: 90                           	nop

00403f1c <__errno>:
  403f1c: ff 25 ac 91 40 00            	jmpl	*4231596
  403f22: 90                           	nop
  403f23: 90                           	nop

00403f24 <__cexit>:
  403f24: ff 25 a8 91 40 00            	jmpl	*4231592
  403f2a: 90                           	nop
  403f2b: 90                           	nop

00403f2c <___p__fmode>:
  403f2c: ff 25 a0 91 40 00            	jmpl	*4231584
  403f32: 90                           	nop
  403f33: 90                           	nop

00403f34 <___p__environ>:
  403f34: ff 25 9c 91 40 00            	jmpl	*4231580
  403f3a: 90                           	nop
  403f3b: 90                           	nop

00403f3c <___getmainargs>:
  403f3c: ff 25 94 91 40 00            	jmpl	*4231572
  403f42: 90                           	nop
  403f43: 90                           	nop

00403f44 <_VirtualQuery@12>:
  403f44: ff 25 80 91 40 00            	jmpl	*4231552
  403f4a: 90                           	nop
  403f4b: 90                           	nop

00403f4c <_VirtualProtect@16>:
  403f4c: ff 25 7c 91 40 00            	jmpl	*4231548
  403f52: 90                           	nop
  403f53: 90                           	nop

00403f54 <_TlsGetValue@4>:
  403f54: ff 25 78 91 40 00            	jmpl	*4231544
  403f5a: 90                           	nop
  403f5b: 90                           	nop

00403f5c <_SetUnhandledExceptionFilter@4>:
  403f5c: ff 25 74 91 40 00            	jmpl	*4231540
  403f62: 90                           	nop
  403f63: 90                           	nop

00403f64 <_LoadLibraryA@4>:
  403f64: ff 25 70 91 40 00            	jmpl	*4231536
  403f6a: 90                           	nop
  403f6b: 90                           	nop

00403f6c <_LeaveCriticalSection@4>:
  403f6c: ff 25 6c 91 40 00            	jmpl	*4231532
  403f72: 90                           	nop
  403f73: 90                           	nop

00403f74 <_InitializeCriticalSection@4>:
  403f74: ff 25 68 91 40 00            	jmpl	*4231528
  403f7a: 90                           	nop
  403f7b: 90                           	nop

00403f7c <_GetProcAddress@8>:
  403f7c: ff 25 64 91 40 00            	jmpl	*4231524
  403f82: 90                           	nop
  403f83: 90                           	nop

00403f84 <_GetModuleHandleA@4>:
  403f84: ff 25 60 91 40 00            	jmpl	*4231520
  403f8a: 90                           	nop
  403f8b: 90                           	nop

00403f8c <_GetLastError@0>:
  403f8c: ff 25 5c 91 40 00            	jmpl	*4231516
  403f92: 90                           	nop
  403f93: 90                           	nop

00403f94 <_GetCommandLineA@0>:
  403f94: ff 25 58 91 40 00            	jmpl	*4231512
  403f9a: 90                           	nop
  403f9b: 90                           	nop

00403f9c <_FreeLibrary@4>:
  403f9c: ff 25 54 91 40 00            	jmpl	*4231508
  403fa2: 90                           	nop
  403fa3: 90                           	nop

00403fa4 <_FindNextFileA@8>:
  403fa4: ff 25 50 91 40 00            	jmpl	*4231504
  403faa: 90                           	nop
  403fab: 90                           	nop

00403fac <_FindFirstFileA@8>:
  403fac: ff 25 4c 91 40 00            	jmpl	*4231500
  403fb2: 90                           	nop
  403fb3: 90                           	nop

00403fb4 <_FindClose@4>:
  403fb4: ff 25 48 91 40 00            	jmpl	*4231496
  403fba: 90                           	nop
  403fbb: 90                           	nop

00403fbc <_ExitProcess@4>:
  403fbc: ff 25 44 91 40 00            	jmpl	*4231492
  403fc2: 90                           	nop
  403fc3: 90                           	nop

00403fc4 <_EnterCriticalSection@4>:
  403fc4: ff 25 40 91 40 00            	jmpl	*4231488
  403fca: 90                           	nop
  403fcb: 90                           	nop

00403fcc <_DeleteCriticalSection@4>:
  403fcc: ff 25 3c 91 40 00            	jmpl	*4231484
  403fd2: 90                           	nop
  403fd3: 90                           	nop

00403fd4 <.text>:
  403fd4: 66 90                        	nop
  403fd6: 66 90                        	nop
  403fd8: 66 90                        	nop
  403fda: 66 90                        	nop
  403fdc: 66 90                        	nop
  403fde: 66 90                        	nop

00403fe0 <_register_frame_ctor>:
  403fe0: e9 4b d3 ff ff               	jmp	0x401330 <___gcc_register_frame>
  403fe5: 90                           	nop
  403fe6: 90                           	nop
  403fe7: 90                           	nop
  403fe8: 90                           	nop
  403fe9: 90                           	nop
  403fea: 90                           	nop
  403feb: 90                           	nop
  403fec: 90                           	nop
  403fed: 90                           	nop
  403fee: 90                           	nop
  403fef: 90                           	nop

00403ff0 <___CTOR_LIST__>:
  403ff0: ff ff                        	<unknown>
  403ff2: ff ff                        	<unknown>

00403ff4 <.ctors.65535>:
  403ff4: e0 3f                        	loopne	0x404035 <___DTOR_LIST__+0x39>
  403ff6: 40                           	incl	%eax
  403ff7: 00 00                        	addb	%al, (%eax)
  403ff9: 00 00                        	addb	%al, (%eax)
  403ffb: 00 ff                        	addb	%bh, %bh

00403ffc <___DTOR_LIST__>:
  403ffc: ff ff                        	<unknown>
  403ffe: ff ff                        	<unknown>
  404000: 00 00                        	addb	%al, (%eax)
  404002: 00 00                        	addb	%al, (%eax)

Disassembly of section .data:

00405000 <_deregister_frame_fn>:
  405000: 00 00                        	addb	%al, (%eax)
  405002: 00 00                        	addb	%al, (%eax)

00405004 <__CRT_glob>:
  405004: 02 00                        	addb	(%eax), %al
  405006: 00 00                        	addb	%al, (%eax)

00405008 <__CRT_fenv>:
  405008: fd                           	std
  405009: ff ff                        	<unknown>
  40500b: ff 00                        	incl	(%eax)

0040500c <__fmode>:
  40500c: 00 40 00                     	addb	%al, (%eax)
  40500f: 00 00                        	addb	%al, (%eax)

00405010 <.data>:
  405010: 00 40 40                     	addb	%al, 64(%eax)
  405013: 00 ff                        	addb	%bh, %bh

00405014 <.data>:
  405014: ff ff                        	<unknown>
  405016: ff ff                        	<unknown>

Disassembly of section .rdata:

00406000 <.rdata>:
  406000: 6c                           	insb	%dx, %es:(%edi)
  406001: 69 62 67 63 63 5f 73         	imull	$1935631203, 103(%edx), %esp
  406008: 5f                           	popl	%edi
  406009: 64 77 32                     	ja	0x40603e <.rdata+0x3e>
  40600c: 2d 31 2e 64 6c               	subl	$1818504753, %eax
  406011: 6c                           	insb	%dx, %es:(%edi)
  406012: 00 5f 5f                     	addb	%bl, 95(%edi)
  406015: 72 65                        	jb	0x40607c <.rdata+0x38>
  406017: 67 69 73 74 65 72 5f 66      	imull	$1717531237, 116(%bp,%di), %esi
  40601f: 72 61                        	jb	0x406082 <.rdata+0x3e>
  406021: 6d                           	insl	%dx, %es:(%edi)
  406022: 65 5f                        	popl	%edi
  406024: 69 6e 66 6f 00 5f 5f         	imull	$1600061551, 102(%esi), %ebp
  40602b: 64 65 72 65                  	jb	0x406094 <.rdata+0x50>
  40602f: 67 69 73 74 65 72 5f 66      	imull	$1717531237, 116(%bp,%di), %esi
  406037: 72 61                        	jb	0x40609a <.rdata+0x56>
  406039: 6d                           	insl	%dx, %es:(%edi)
  40603a: 65 5f                        	popl	%edi
  40603c: 69 6e 66 6f 00 00 00         	imull	$111, 102(%esi), %ebp
  406043: 00 77 65                     	addb	%dh, 101(%edi)

00406044 <.rdata>:
  406044: 77 65                        	ja	0x4060ab <.rdata+0x67>
  406046: 6c                           	insb	%dx, %es:(%edi)
  406047: 63 6f 6d                     	arpl	%bp, 109(%edi)
  40604a: 65 20 74 6f 20               	andb	%dh, %gs:32(%edi,%ebp,2)
  40604f: 6d                           	insl	%dx, %es:(%edi)
  406050: 79 20                        	jns	0x406072 <.rdata+0x2e>
  406052: 63 72 61                     	arpl	%si, 97(%edx)
  406055: 63 6b 20                     	arpl	%bp, 32(%ebx)
  406058: 6d                           	insl	%dx, %es:(%edi)
  406059: 65 00 00                     	addb	%al, %gs:(%eax)
  40605c: 2d 2d 2d 2d 2d               	subl	$757935405, %eax
  406061: 2d 2d 2d 2d 2d               	subl	$757935405, %eax
  406066: 2d 2d 2d 2d 2d               	subl	$757935405, %eax
  40606b: 2d 2d 2d 2d 2d               	subl	$757935405, %eax
  406070: 2d 2d 2d 2d 2d               	subl	$757935405, %eax
  406075: 2d 2d 2d 2d 2d               	subl	$757935405, %eax
  40607a: 2d 2d 2d 2d 2d               	subl	$757935405, %eax
  40607f: 2d 2d 2d 2d 2d               	subl	$757935405, %eax
  406084: 2d 2d 2d 2d 2d               	subl	$757935405, %eax
  406089: 2d 2d 2d 2d 2d               	subl	$757935405, %eax
  40608e: 2d 2d 2d 2d 2d               	subl	$757935405, %eax
  406093: 2d 2d 2d 00 65               	subl	$1694510381, %eax
  406098: 6e                           	outsb	(%esi), %dx
  406099: 74 65                        	je	0x406100 <.rdata+0xbc>
  40609b: 72 20                        	jb	0x4060bd <.rdata+0x79>
  40609d: 74 68                        	je	0x406107 <.rdata+0xc3>
  40609f: 65 20 70 61                  	andb	%dh, %gs:97(%eax)
  4060a3: 73 73                        	jae	0x406118 <.rdata+0x10>
  4060a5: 77 6f                        	ja	0x406116 <.rdata+0xe>
  4060a7: 72 64                        	jb	0x40610d <.rdata+0x5>
  4060a9: 3a 00                        	cmpb	(%eax), %al
  4060ab: 25 73 00 00 00               	andl	$115, %eax
  4060b0: 63 6f 6e                     	arpl	%bp, 110(%edi)
  4060b3: 67 72 61                     	jb	0x406117 <.rdata+0xf>
  4060b6: 74 73                        	je	0x40612b <.rdata+0x23>
  4060b8: 20 79 6f                     	andb	%bh, 111(%ecx)
  4060bb: 75 20                        	jne	0x4060dd <.rdata+0x99>
  4060bd: 63 72 61                     	arpl	%si, 97(%edx)
  4060c0: 63 6b 65                     	arpl	%bp, 101(%ebx)
  4060c3: 64 20 74 68 65               	andb	%dh, %fs:101(%eax,%ebp,2)
  4060c8: 20 70 61                     	andb	%dh, 97(%eax)
  4060cb: 73 73                        	jae	0x406140 <.rdata+0x38>
  4060cd: 77 6f                        	ja	0x40613e <.rdata+0x36>
  4060cf: 72 64                        	jb	0x406135 <.rdata+0x2d>
  4060d1: 00 77 72                     	addb	%dh, 114(%edi)
  4060d4: 6f                           	outsl	(%esi), %dx
  4060d5: 6e                           	outsb	(%esi), %dx
  4060d6: 67 20 70 61                  	andb	%dh, 97(%bx,%si)
  4060da: 73 73                        	jae	0x40614f <.rdata+0x47>
  4060dc: 21 21                        	andl	%esp, (%ecx)
  4060de: 00 79 6f                     	addb	%bh, 111(%ecx)
  4060e1: 75 20                        	jne	0x406103 <.rdata+0xbf>
  4060e3: 67 6f                        	outsl	(%si), %dx
  4060e5: 74 20                        	je	0x406107 <.rdata+0xc3>
  4060e7: 25 64 20 6c 65               	andl	$1701584996, %eax
  4060ec: 66 74 0a                     	je	0x4060f9 <.rdata+0xb5>
  4060ef: 00 79 6f                     	addb	%bh, 111(%ecx)
  4060f2: 75 20                        	jne	0x406114 <.rdata+0xc>
  4060f4: 61                           	popal
  4060f5: 72 65                        	jb	0x40615c <.rdata+0x54>
  4060f7: 20 6f 75                     	andb	%ch, 117(%edi)
  4060fa: 74 20                        	je	0x40611c <.rdata+0x14>
  4060fc: 6f                           	outsl	(%esi), %dx
  4060fd: 66 20 67 75                  	andb	%ah, 117(%edi)
  406101: 65 73 73                     	jae	0x406177 <.rdata+0x6f>
  406104: 65 73 00                     	jae	0x406107 <.rdata+0xc3>
  406107: 00 ae 17 40 00 a2            	addb	%ch, -1577041897(%esi)

00406108 <.rdata>:
  406108: ae                           	scasb	%es:(%edi), %al
  406109: 17                           	popl	%ss
  40610a: 40                           	incl	%eax
  40610b: 00 a2 15 40 00 a2            	addb	%ah, -1577041899(%edx)
  406111: 15 40 00 a2 15               	adcl	$362938432, %eax
  406116: 40                           	incl	%eax
  406117: 00 a2 15 40 00 60            	addb	%ah, 1610629141(%edx)
  40611d: 17                           	popl	%ss
  40611e: 40                           	incl	%eax
  40611f: 00 a2 15 40 00 a2            	addb	%ah, -1577041899(%edx)
  406125: 15 40 00 16 17               	adcl	$387317824, %eax
  40612a: 40                           	incl	%eax
  40612b: 00 a2 15 40 00 16            	addb	%ah, 369115157(%edx)
  406131: 17                           	popl	%ss
  406132: 40                           	incl	%eax
  406133: 00 a2 15 40 00 a2            	addb	%ah, -1577041899(%edx)
  406139: 15 40 00 a2 15               	adcl	$362938432, %eax
  40613e: 40                           	incl	%eax
  40613f: 00 a2 15 40 00 a2            	addb	%ah, -1577041899(%edx)
  406145: 15 40 00 a2 15               	adcl	$362938432, %eax
  40614a: 40                           	incl	%eax
  40614b: 00 a2 15 40 00 a2            	addb	%ah, -1577041899(%edx)
  406151: 15 40 00 a2 15               	adcl	$362938432, %eax
  406156: 40                           	incl	%eax
  406157: 00 a2 15 40 00 a2            	addb	%ah, -1577041899(%edx)
  40615d: 15 40 00 a2 15               	adcl	$362938432, %eax
  406162: 40                           	incl	%eax
  406163: 00 a2 15 40 00 a2            	addb	%ah, -1577041899(%edx)
  406169: 15 40 00 a2 15               	adcl	$362938432, %eax
  40616e: 40                           	incl	%eax
  40616f: 00 a2 15 40 00 a2            	addb	%ah, -1577041899(%edx)
  406175: 15 40 00 a2 15               	adcl	$362938432, %eax
  40617a: 40                           	incl	%eax
  40617b: 00 16                        	addb	%dl, (%esi)
  40617d: 17                           	popl	%ss
  40617e: 40                           	incl	%eax
  40617f: 00 1d 18 40 00 0f            	addb	%bl, 251674648
  406185: 18 40 00                     	sbbb	%al, (%eax)
  406188: a2 15 40 00 a2               	movb	%al, 2717925397
  40618d: 15 40 00 a2 15               	adcl	$362938432, %eax
  406192: 40                           	incl	%eax
  406193: 00 a2 15 40 00 a2            	addb	%ah, -1577041899(%edx)
  406199: 15 40 00 a2 15               	adcl	$362938432, %eax
  40619e: 40                           	incl	%eax
  40619f: 00 a2 15 40 00 a2            	addb	%ah, -1577041899(%edx)
  4061a5: 15 40 00 a2 15               	adcl	$362938432, %eax
  4061aa: 40                           	incl	%eax
  4061ab: 00 a2 15 40 00 a2            	addb	%ah, -1577041899(%edx)
  4061b1: 15 40 00 a2 15               	adcl	$362938432, %eax
  4061b6: 40                           	incl	%eax
  4061b7: 00 a2 15 40 00 a2            	addb	%ah, -1577041899(%edx)
  4061bd: 15 40 00 a2 15               	adcl	$362938432, %eax
  4061c2: 40                           	incl	%eax
  4061c3: 00 a2 15 40 00 a2            	addb	%ah, -1577041899(%edx)
  4061c9: 15 40 00 a2 15               	adcl	$362938432, %eax
  4061ce: 40                           	incl	%eax
  4061cf: 00 a2 15 40 00 a2            	addb	%ah, -1577041899(%edx)
  4061d5: 15 40 00 a2 15               	adcl	$362938432, %eax
  4061da: 40                           	incl	%eax
  4061db: 00 a2 15 40 00 a2            	addb	%ah, -1577041899(%edx)
  4061e1: 15 40 00 a2 15               	adcl	$362938432, %eax
  4061e6: 40                           	incl	%eax
  4061e7: 00 a2 15 40 00 a2            	addb	%ah, -1577041899(%edx)
  4061ed: 15 40 00 a2 15               	adcl	$362938432, %eax
  4061f2: 40                           	incl	%eax
  4061f3: 00 a2 15 40 00 a2            	addb	%ah, -1577041899(%edx)
  4061f9: 15 40 00 a2 15               	adcl	$362938432, %eax
  4061fe: 40                           	incl	%eax
  4061ff: 00 16                        	addb	%dl, (%esi)
  406201: 17                           	popl	%ss
  406202: 40                           	incl	%eax
  406203: 00 a2 15 40 00 16            	addb	%ah, 369115157(%edx)
  406209: 17                           	popl	%ss
  40620a: 40                           	incl	%eax
  40620b: 00 a2 15 40 00 16            	addb	%ah, 369115157(%edx)
  406211: 17                           	popl	%ss
  406212: 40                           	incl	%eax
  406213: 00 c0                        	addb	%al, %al

00406214 <___dyn_tls_init_callback>:
  406214: c0 1a 40                     	rcrb	$64, (%edx)
  406217: 00 4d 69                     	addb	%cl, 105(%ebp)

00406218 <.rdata>:
  406218: 4d                           	decl	%ebp
  406219: 69 6e 67 77 20 72 75         	imull	$1970413687, 103(%esi), %ebp
  406220: 6e                           	outsb	(%esi), %dx
  406221: 74 69                        	je	0x40628c <.rdata+0x74>
  406223: 6d                           	insl	%dx, %es:(%edi)
  406224: 65 20 66 61                  	andb	%ah, %gs:97(%esi)
  406228: 69 6c 75 72 65 3a 0a 00      	imull	$670309, 114(%ebp,%esi,2), %ebp
  406230: 20 20                        	andb	%ah, (%eax)
  406232: 56                           	pushl	%esi
  406233: 69 72 74 75 61 6c 51         	imull	$1366057333, 116(%edx), %esi
  40623a: 75 65                        	jne	0x4062a1 <.rdata+0x89>
  40623c: 72 79                        	jb	0x4062b7 <.rdata+0x9f>
  40623e: 20 66 61                     	andb	%ah, 97(%esi)
  406241: 69 6c 65 64 20 66 6f 72      	imull	$1919903264, 100(%ebp,%eiz,2), %ebp
  406249: 20 25 64 20 62 79            	andb	%ah, 2036473956
  40624f: 74 65                        	je	0x4062b6 <.rdata+0x9e>
  406251: 73 20                        	jae	0x406273 <.rdata+0x5b>
  406253: 61                           	popal
  406254: 74 20                        	je	0x406276 <.rdata+0x5e>
  406256: 61                           	popal
  406257: 64 64 72 65                  	jb	0x4062c0 <.rdata+0xa8>
  40625b: 73 73                        	jae	0x4062d0 <.rdata+0xc>
  40625d: 20 25 70 00 00 00            	andb	%ah, 112
  406263: 00 20                        	addb	%ah, (%eax)
  406265: 20 55 6e                     	andb	%dl, 110(%ebp)
  406268: 6b 6e 6f 77                  	imull	$119, 111(%esi), %ebp
  40626c: 6e                           	outsb	(%esi), %dx
  40626d: 20 70 73                     	andb	%dh, 115(%eax)
  406270: 65 75 64                     	jne	0x4062d7 <.rdata+0x13>
  406273: 6f                           	outsl	(%esi), %dx
  406274: 20 72 65                     	andb	%dh, 101(%edx)
  406277: 6c                           	insb	%dx, %es:(%edi)
  406278: 6f                           	outsl	(%esi), %dx
  406279: 63 61 74                     	arpl	%sp, 116(%ecx)
  40627c: 69 6f 6e 20 70 72 6f         	imull	$1869770784, 110(%edi), %ebp
  406283: 74 6f                        	je	0x4062f4 <.rdata+0x1c>
  406285: 63 6f 6c                     	arpl	%bp, 108(%edi)
  406288: 20 76 65                     	andb	%dh, 101(%esi)
  40628b: 72 73                        	jb	0x406300 <.rdata+0x28>
  40628d: 69 6f 6e 20 25 64 2e         	imull	$778315040, 110(%edi), %ebp
  406294: 0a 00                        	orb	(%eax), %al
  406296: 00 00                        	addb	%al, (%eax)
  406298: 20 20                        	andb	%ah, (%eax)
  40629a: 55                           	pushl	%ebp
  40629b: 6e                           	outsb	(%esi), %dx
  40629c: 6b 6e 6f 77                  	imull	$119, 111(%esi), %ebp
  4062a0: 6e                           	outsb	(%esi), %dx
  4062a1: 20 70 73                     	andb	%dh, 115(%eax)
  4062a4: 65 75 64                     	jne	0x40630b <.rdata+0x33>
  4062a7: 6f                           	outsl	(%esi), %dx
  4062a8: 20 72 65                     	andb	%dh, 101(%edx)
  4062ab: 6c                           	insb	%dx, %es:(%edi)
  4062ac: 6f                           	outsl	(%esi), %dx
  4062ad: 63 61 74                     	arpl	%sp, 116(%ecx)
  4062b0: 69 6f 6e 20 62 69 74         	imull	$1953063456, 110(%edi), %ebp
  4062b7: 20 73 69                     	andb	%dh, 105(%ebx)
  4062ba: 7a 65                        	jp	0x406321 <.rdata$zzz+0xd>
  4062bc: 20 25 64 2e 0a 00            	andb	%ah, 667236
  4062c2: 00 00                        	addb	%al, (%eax)

004062c4 <.rdata>:
  4062c4: 67 6c                        	insb	%dx, %es:(%di)
  4062c6: 6f                           	outsl	(%esi), %dx
  4062c7: 62 2d 31 2e 30 2d            	bound	%ebp, 758132273
  4062cd: 6d                           	insl	%dx, %es:(%edi)
  4062ce: 69 6e 67 77 33 32 00         	imull	$3289975, 103(%esi), %ebp
  4062d5: 00 00                        	addb	%al, (%eax)
  4062d7: 00 00                        	addb	%al, (%eax)

004062d8 <.rdata>:
  4062d8: 00 00                        	addb	%al, (%eax)
  4062da: 2e 00 00                     	addb	%al, %cs:(%eax)
  4062dd: 00 00                        	addb	%al, (%eax)
  4062df: 00 47 43                     	addb	%al, 67(%edi)
  4062e2: 43                           	incl	%ebx
  4062e3: 3a 20                        	cmpb	(%eax), %ah
  4062e5: 28 4d 69                     	subb	%cl, 105(%ebp)
  4062e8: 6e                           	outsb	(%esi), %dx
  4062e9: 47                           	incl	%edi
  4062ea: 57                           	pushl	%edi
  4062eb: 2e 6f                        	outsl	%cs:(%esi), %dx
  4062ed: 72 67                        	jb	0x406356 <.rdata$zzz+0xe>
  4062ef: 20 43 72                     	andb	%al, 114(%ebx)
  4062f2: 6f                           	outsl	(%esi), %dx
  4062f3: 73 73                        	jae	0x406368 <.rdata$zzz+0x20>
  4062f5: 2d 47 43 43 20               	subl	$541279047, %eax
  4062fa: 42                           	incl	%edx
  4062fb: 75 69                        	jne	0x406366 <.rdata$zzz+0x1e>
  4062fd: 6c                           	insb	%dx, %es:(%edi)
  4062fe: 64 2d 32 30 32 30            	subl	$808595506, %eax
  406304: 30 35 33 31 2d 31            	xorb	%dh, 825045299
  40630a: 29 20                        	subl	%esp, (%eax)
  40630c: 39 2e                        	cmpl	%ebp, (%esi)
  40630e: 32 2e                        	xorb	(%esi), %ch
  406310: 30 00                        	xorb	%al, (%eax)
  406312: 00 00                        	addb	%al, (%eax)

00406314 <.rdata$zzz>:
  406314: 47                           	incl	%edi
  406315: 43                           	incl	%ebx
  406316: 43                           	incl	%ebx
  406317: 3a 20                        	cmpb	(%eax), %ah
  406319: 28 4d 69                     	subb	%cl, 105(%ebp)
  40631c: 6e                           	outsb	(%esi), %dx
  40631d: 47                           	incl	%edi
  40631e: 57                           	pushl	%edi
  40631f: 2e 6f                        	outsl	%cs:(%esi), %dx
  406321: 72 67                        	jb	0x40638a <.rdata$zzz+0x42>
  406323: 20 43 72                     	andb	%al, 114(%ebx)
  406326: 6f                           	outsl	(%esi), %dx
  406327: 73 73                        	jae	0x40639c <.rdata$zzz+0x54>
  406329: 2d 47 43 43 20               	subl	$541279047, %eax
  40632e: 42                           	incl	%edx
  40632f: 75 69                        	jne	0x40639a <.rdata$zzz+0x52>
  406331: 6c                           	insb	%dx, %es:(%edi)
  406332: 64 2d 32 30 32 30            	subl	$808595506, %eax
  406338: 30 35 33 31 2d 31            	xorb	%dh, 825045299
  40633e: 29 20                        	subl	%esp, (%eax)
  406340: 39 2e                        	cmpl	%ebp, (%esi)
  406342: 32 2e                        	xorb	(%esi), %ch
  406344: 30 00                        	xorb	%al, (%eax)
  406346: 00 00                        	addb	%al, (%eax)

00406348 <.rdata$zzz>:
  406348: 47                           	incl	%edi
  406349: 43                           	incl	%ebx
  40634a: 43                           	incl	%ebx
  40634b: 3a 20                        	cmpb	(%eax), %ah
  40634d: 28 4d 69                     	subb	%cl, 105(%ebp)
  406350: 6e                           	outsb	(%esi), %dx
  406351: 47                           	incl	%edi
  406352: 57                           	pushl	%edi
  406353: 2e 6f                        	outsl	%cs:(%esi), %dx
  406355: 72 67                        	jb	0x4063be <.rdata$zzz+0x76>
  406357: 20 47 43                     	andb	%al, 67(%edi)
  40635a: 43                           	incl	%ebx
  40635b: 20 42 75                     	andb	%al, 117(%edx)
  40635e: 69 6c 64 2d 32 29 20 39      	imull	$958409010, 45(%esp,%eiz,2), %ebp
  406366: 2e 32 2e                     	xorb	%cs:(%esi), %ch
  406369: 30 00                        	xorb	%al, (%eax)
  40636b: 00 47 43                     	addb	%al, 67(%edi)
  40636e: 43                           	incl	%ebx
  40636f: 3a 20                        	cmpb	(%eax), %ah
  406371: 28 4d 69                     	subb	%cl, 105(%ebp)
  406374: 6e                           	outsb	(%esi), %dx
  406375: 47                           	incl	%edi
  406376: 57                           	pushl	%edi
  406377: 2e 6f                        	outsl	%cs:(%esi), %dx
  406379: 72 67                        	jb	0x4063e2 <.rdata$zzz+0x9a>
  40637b: 20 43 72                     	andb	%al, 114(%ebx)
  40637e: 6f                           	outsl	(%esi), %dx
  40637f: 73 73                        	jae	0x4063f4 <.rdata$zzz+0xac>
  406381: 2d 47 43 43 20               	subl	$541279047, %eax
  406386: 42                           	incl	%edx
  406387: 75 69                        	jne	0x4063f2 <.rdata$zzz+0xaa>
  406389: 6c                           	insb	%dx, %es:(%edi)
  40638a: 64 2d 32 30 32 30            	subl	$808595506, %eax
  406390: 30 35 33 31 2d 31            	xorb	%dh, 825045299
  406396: 29 20                        	subl	%esp, (%eax)
  406398: 39 2e                        	cmpl	%ebp, (%esi)
  40639a: 32 2e                        	xorb	(%esi), %ch
  40639c: 30 00                        	xorb	%al, (%eax)
  40639e: 00 00                        	addb	%al, (%eax)
  4063a0: 47                           	incl	%edi
  4063a1: 43                           	incl	%ebx
  4063a2: 43                           	incl	%ebx
  4063a3: 3a 20                        	cmpb	(%eax), %ah
  4063a5: 28 4d 69                     	subb	%cl, 105(%ebp)
  4063a8: 6e                           	outsb	(%esi), %dx
  4063a9: 47                           	incl	%edi
  4063aa: 57                           	pushl	%edi
  4063ab: 2e 6f                        	outsl	%cs:(%esi), %dx
  4063ad: 72 67                        	jb	0x406416 <.rdata$zzz+0xce>
  4063af: 20 43 72                     	andb	%al, 114(%ebx)
  4063b2: 6f                           	outsl	(%esi), %dx
  4063b3: 73 73                        	jae	0x406428 <.rdata$zzz+0xe0>
  4063b5: 2d 47 43 43 20               	subl	$541279047, %eax
  4063ba: 42                           	incl	%edx
  4063bb: 75 69                        	jne	0x406426 <.rdata$zzz+0xde>
  4063bd: 6c                           	insb	%dx, %es:(%edi)
  4063be: 64 2d 32 30 32 30            	subl	$808595506, %eax
  4063c4: 30 35 33 31 2d 31            	xorb	%dh, 825045299
  4063ca: 29 20                        	subl	%esp, (%eax)
  4063cc: 39 2e                        	cmpl	%ebp, (%esi)
  4063ce: 32 2e                        	xorb	(%esi), %ch
  4063d0: 30 00                        	xorb	%al, (%eax)
  4063d2: 00 00                        	addb	%al, (%eax)
  4063d4: 47                           	incl	%edi
  4063d5: 43                           	incl	%ebx
  4063d6: 43                           	incl	%ebx
  4063d7: 3a 20                        	cmpb	(%eax), %ah
  4063d9: 28 4d 69                     	subb	%cl, 105(%ebp)
  4063dc: 6e                           	outsb	(%esi), %dx
  4063dd: 47                           	incl	%edi
  4063de: 57                           	pushl	%edi
  4063df: 2e 6f                        	outsl	%cs:(%esi), %dx
  4063e1: 72 67                        	jb	0x40644a <.rdata$zzz+0x102>
  4063e3: 20 43 72                     	andb	%al, 114(%ebx)
  4063e6: 6f                           	outsl	(%esi), %dx
  4063e7: 73 73                        	jae	0x40645c <.rdata$zzz+0x114>
  4063e9: 2d 47 43 43 20               	subl	$541279047, %eax
  4063ee: 42                           	incl	%edx
  4063ef: 75 69                        	jne	0x40645a <.rdata$zzz+0x112>
  4063f1: 6c                           	insb	%dx, %es:(%edi)
  4063f2: 64 2d 32 30 32 30            	subl	$808595506, %eax
  4063f8: 30 35 33 31 2d 31            	xorb	%dh, 825045299
  4063fe: 29 20                        	subl	%esp, (%eax)
  406400: 39 2e                        	cmpl	%ebp, (%esi)
  406402: 32 2e                        	xorb	(%esi), %ch
  406404: 30 00                        	xorb	%al, (%eax)
  406406: 00 00                        	addb	%al, (%eax)
  406408: 47                           	incl	%edi
  406409: 43                           	incl	%ebx
  40640a: 43                           	incl	%ebx
  40640b: 3a 20                        	cmpb	(%eax), %ah
  40640d: 28 4d 69                     	subb	%cl, 105(%ebp)
  406410: 6e                           	outsb	(%esi), %dx
  406411: 47                           	incl	%edi
  406412: 57                           	pushl	%edi
  406413: 2e 6f                        	outsl	%cs:(%esi), %dx
  406415: 72 67                        	jb	0x40647e <.rdata$zzz+0x136>
  406417: 20 43 72                     	andb	%al, 114(%ebx)
  40641a: 6f                           	outsl	(%esi), %dx
  40641b: 73 73                        	jae	0x406490 <.rdata$zzz+0x148>
  40641d: 2d 47 43 43 20               	subl	$541279047, %eax
  406422: 42                           	incl	%edx
  406423: 75 69                        	jne	0x40648e <.rdata$zzz+0x146>
  406425: 6c                           	insb	%dx, %es:(%edi)
  406426: 64 2d 32 30 32 30            	subl	$808595506, %eax
  40642c: 30 35 33 31 2d 31            	xorb	%dh, 825045299
  406432: 29 20                        	subl	%esp, (%eax)
  406434: 39 2e                        	cmpl	%ebp, (%esi)
  406436: 32 2e                        	xorb	(%esi), %ch
  406438: 30 00                        	xorb	%al, (%eax)
  40643a: 00 00                        	addb	%al, (%eax)
  40643c: 47                           	incl	%edi
  40643d: 43                           	incl	%ebx
  40643e: 43                           	incl	%ebx
  40643f: 3a 20                        	cmpb	(%eax), %ah
  406441: 28 4d 69                     	subb	%cl, 105(%ebp)
  406444: 6e                           	outsb	(%esi), %dx
  406445: 47                           	incl	%edi
  406446: 57                           	pushl	%edi
  406447: 2e 6f                        	outsl	%cs:(%esi), %dx
  406449: 72 67                        	jb	0x4064b2 <.rdata$zzz+0x16a>
  40644b: 20 43 72                     	andb	%al, 114(%ebx)
  40644e: 6f                           	outsl	(%esi), %dx
  40644f: 73 73                        	jae	0x4064c4 <.rdata$zzz+0x17c>
  406451: 2d 47 43 43 20               	subl	$541279047, %eax
  406456: 42                           	incl	%edx
  406457: 75 69                        	jne	0x4064c2 <.rdata$zzz+0x17a>
  406459: 6c                           	insb	%dx, %es:(%edi)
  40645a: 64 2d 32 30 32 30            	subl	$808595506, %eax
  406460: 30 35 33 31 2d 31            	xorb	%dh, 825045299
  406466: 29 20                        	subl	%esp, (%eax)
  406468: 39 2e                        	cmpl	%ebp, (%esi)
  40646a: 32 2e                        	xorb	(%esi), %ch
  40646c: 30 00                        	xorb	%al, (%eax)
  40646e: 00 00                        	addb	%al, (%eax)
  406470: 47                           	incl	%edi
  406471: 43                           	incl	%ebx
  406472: 43                           	incl	%ebx
  406473: 3a 20                        	cmpb	(%eax), %ah
  406475: 28 4d 69                     	subb	%cl, 105(%ebp)
  406478: 6e                           	outsb	(%esi), %dx
  406479: 47                           	incl	%edi
  40647a: 57                           	pushl	%edi
  40647b: 2e 6f                        	outsl	%cs:(%esi), %dx
  40647d: 72 67                        	jb	0x4064e6 <.rdata$zzz+0x19e>
  40647f: 20 43 72                     	andb	%al, 114(%ebx)
  406482: 6f                           	outsl	(%esi), %dx
  406483: 73 73                        	jae	0x4064f8 <.rdata$zzz+0x1b0>
  406485: 2d 47 43 43 20               	subl	$541279047, %eax
  40648a: 42                           	incl	%edx
  40648b: 75 69                        	jne	0x4064f6 <.rdata$zzz+0x1ae>
  40648d: 6c                           	insb	%dx, %es:(%edi)
  40648e: 64 2d 32 30 32 30            	subl	$808595506, %eax
  406494: 30 35 33 31 2d 31            	xorb	%dh, 825045299
  40649a: 29 20                        	subl	%esp, (%eax)
  40649c: 39 2e                        	cmpl	%ebp, (%esi)
  40649e: 32 2e                        	xorb	(%esi), %ch
  4064a0: 30 00                        	xorb	%al, (%eax)
  4064a2: 00 00                        	addb	%al, (%eax)
  4064a4: 47                           	incl	%edi
  4064a5: 43                           	incl	%ebx
  4064a6: 43                           	incl	%ebx
  4064a7: 3a 20                        	cmpb	(%eax), %ah
  4064a9: 28 4d 69                     	subb	%cl, 105(%ebp)
  4064ac: 6e                           	outsb	(%esi), %dx
  4064ad: 47                           	incl	%edi
  4064ae: 57                           	pushl	%edi
  4064af: 2e 6f                        	outsl	%cs:(%esi), %dx
  4064b1: 72 67                        	jb	0x40651a <.rdata$zzz+0x1d2>
  4064b3: 20 43 72                     	andb	%al, 114(%ebx)
  4064b6: 6f                           	outsl	(%esi), %dx
  4064b7: 73 73                        	jae	0x40652c <.rdata$zzz+0x1e4>
  4064b9: 2d 47 43 43 20               	subl	$541279047, %eax
  4064be: 42                           	incl	%edx
  4064bf: 75 69                        	jne	0x40652a <.rdata$zzz+0x1e2>
  4064c1: 6c                           	insb	%dx, %es:(%edi)
  4064c2: 64 2d 32 30 32 30            	subl	$808595506, %eax
  4064c8: 30 35 33 31 2d 31            	xorb	%dh, 825045299
  4064ce: 29 20                        	subl	%esp, (%eax)
  4064d0: 39 2e                        	cmpl	%ebp, (%esi)
  4064d2: 32 2e                        	xorb	(%esi), %ch
  4064d4: 30 00                        	xorb	%al, (%eax)
  4064d6: 00 00                        	addb	%al, (%eax)
  4064d8: 47                           	incl	%edi
  4064d9: 43                           	incl	%ebx
  4064da: 43                           	incl	%ebx
  4064db: 3a 20                        	cmpb	(%eax), %ah
  4064dd: 28 4d 69                     	subb	%cl, 105(%ebp)
  4064e0: 6e                           	outsb	(%esi), %dx
  4064e1: 47                           	incl	%edi
  4064e2: 57                           	pushl	%edi
  4064e3: 2e 6f                        	outsl	%cs:(%esi), %dx
  4064e5: 72 67                        	jb	0x40654e <.rdata$zzz+0x206>
  4064e7: 20 43 72                     	andb	%al, 114(%ebx)
  4064ea: 6f                           	outsl	(%esi), %dx
  4064eb: 73 73                        	jae	0x406560 <.rdata$zzz+0x218>
  4064ed: 2d 47 43 43 20               	subl	$541279047, %eax
  4064f2: 42                           	incl	%edx
  4064f3: 75 69                        	jne	0x40655e <.rdata$zzz+0x216>
  4064f5: 6c                           	insb	%dx, %es:(%edi)
  4064f6: 64 2d 32 30 32 30            	subl	$808595506, %eax
  4064fc: 30 35 33 31 2d 31            	xorb	%dh, 825045299
  406502: 29 20                        	subl	%esp, (%eax)
  406504: 39 2e                        	cmpl	%ebp, (%esi)
  406506: 32 2e                        	xorb	(%esi), %ch
  406508: 30 00                        	xorb	%al, (%eax)
  40650a: 00 00                        	addb	%al, (%eax)
  40650c: 47                           	incl	%edi
  40650d: 43                           	incl	%ebx
  40650e: 43                           	incl	%ebx
  40650f: 3a 20                        	cmpb	(%eax), %ah
  406511: 28 4d 69                     	subb	%cl, 105(%ebp)
  406514: 6e                           	outsb	(%esi), %dx
  406515: 47                           	incl	%edi
  406516: 57                           	pushl	%edi
  406517: 2e 6f                        	outsl	%cs:(%esi), %dx
  406519: 72 67                        	jb	0x406582 <.rdata$zzz+0x23a>
  40651b: 20 43 72                     	andb	%al, 114(%ebx)
  40651e: 6f                           	outsl	(%esi), %dx
  40651f: 73 73                        	jae	0x406594 <.rdata$zzz+0x24c>
  406521: 2d 47 43 43 20               	subl	$541279047, %eax
  406526: 42                           	incl	%edx
  406527: 75 69                        	jne	0x406592 <.rdata$zzz+0x24a>
  406529: 6c                           	insb	%dx, %es:(%edi)
  40652a: 64 2d 32 30 32 30            	subl	$808595506, %eax
  406530: 30 35 33 31 2d 31            	xorb	%dh, 825045299
  406536: 29 20                        	subl	%esp, (%eax)
  406538: 39 2e                        	cmpl	%ebp, (%esi)
  40653a: 32 2e                        	xorb	(%esi), %ch
  40653c: 30 00                        	xorb	%al, (%eax)
  40653e: 00 00                        	addb	%al, (%eax)
  406540: 47                           	incl	%edi
  406541: 43                           	incl	%ebx
  406542: 43                           	incl	%ebx
  406543: 3a 20                        	cmpb	(%eax), %ah
  406545: 28 4d 69                     	subb	%cl, 105(%ebp)
  406548: 6e                           	outsb	(%esi), %dx
  406549: 47                           	incl	%edi
  40654a: 57                           	pushl	%edi
  40654b: 2e 6f                        	outsl	%cs:(%esi), %dx
  40654d: 72 67                        	jb	0x4065b6 <.rdata$zzz+0x26e>
  40654f: 20 43 72                     	andb	%al, 114(%ebx)
  406552: 6f                           	outsl	(%esi), %dx
  406553: 73 73                        	jae	0x4065c8 <.rdata$zzz+0x280>
  406555: 2d 47 43 43 20               	subl	$541279047, %eax
  40655a: 42                           	incl	%edx
  40655b: 75 69                        	jne	0x4065c6 <.rdata$zzz+0x27e>
  40655d: 6c                           	insb	%dx, %es:(%edi)
  40655e: 64 2d 32 30 32 30            	subl	$808595506, %eax
  406564: 30 35 33 31 2d 31            	xorb	%dh, 825045299
  40656a: 29 20                        	subl	%esp, (%eax)
  40656c: 39 2e                        	cmpl	%ebp, (%esi)
  40656e: 32 2e                        	xorb	(%esi), %ch
  406570: 30 00                        	xorb	%al, (%eax)
  406572: 00 00                        	addb	%al, (%eax)
  406574: 47                           	incl	%edi
  406575: 43                           	incl	%ebx
  406576: 43                           	incl	%ebx
  406577: 3a 20                        	cmpb	(%eax), %ah
  406579: 28 4d 69                     	subb	%cl, 105(%ebp)
  40657c: 6e                           	outsb	(%esi), %dx
  40657d: 47                           	incl	%edi
  40657e: 57                           	pushl	%edi
  40657f: 2e 6f                        	outsl	%cs:(%esi), %dx
  406581: 72 67                        	jb	0x4065ea <.rdata$zzz+0x2a2>
  406583: 20 43 72                     	andb	%al, 114(%ebx)
  406586: 6f                           	outsl	(%esi), %dx
  406587: 73 73                        	jae	0x4065fc <.rdata$zzz+0x2b4>
  406589: 2d 47 43 43 20               	subl	$541279047, %eax
  40658e: 42                           	incl	%edx
  40658f: 75 69                        	jne	0x4065fa <.rdata$zzz+0x2b2>
  406591: 6c                           	insb	%dx, %es:(%edi)
  406592: 64 2d 32 30 32 30            	subl	$808595506, %eax
  406598: 30 35 33 31 2d 31            	xorb	%dh, 825045299
  40659e: 29 20                        	subl	%esp, (%eax)
  4065a0: 39 2e                        	cmpl	%ebp, (%esi)
  4065a2: 32 2e                        	xorb	(%esi), %ch
  4065a4: 30 00                        	xorb	%al, (%eax)
  4065a6: 00 00                        	addb	%al, (%eax)
  4065a8: 47                           	incl	%edi
  4065a9: 43                           	incl	%ebx
  4065aa: 43                           	incl	%ebx
  4065ab: 3a 20                        	cmpb	(%eax), %ah
  4065ad: 28 4d 69                     	subb	%cl, 105(%ebp)
  4065b0: 6e                           	outsb	(%esi), %dx
  4065b1: 47                           	incl	%edi
  4065b2: 57                           	pushl	%edi
  4065b3: 2e 6f                        	outsl	%cs:(%esi), %dx
  4065b5: 72 67                        	jb	0x40661e <.rdata$zzz+0x2d6>
  4065b7: 20 43 72                     	andb	%al, 114(%ebx)
  4065ba: 6f                           	outsl	(%esi), %dx
  4065bb: 73 73                        	jae	0x406630 <.rdata$zzz+0x2e8>
  4065bd: 2d 47 43 43 20               	subl	$541279047, %eax
  4065c2: 42                           	incl	%edx
  4065c3: 75 69                        	jne	0x40662e <.rdata$zzz+0x2e6>
  4065c5: 6c                           	insb	%dx, %es:(%edi)
  4065c6: 64 2d 32 30 32 30            	subl	$808595506, %eax
  4065cc: 30 35 33 31 2d 31            	xorb	%dh, 825045299
  4065d2: 29 20                        	subl	%esp, (%eax)
  4065d4: 39 2e                        	cmpl	%ebp, (%esi)
  4065d6: 32 2e                        	xorb	(%esi), %ch
  4065d8: 30 00                        	xorb	%al, (%eax)
  4065da: 00 00                        	addb	%al, (%eax)
  4065dc: 47                           	incl	%edi
  4065dd: 43                           	incl	%ebx
  4065de: 43                           	incl	%ebx
  4065df: 3a 20                        	cmpb	(%eax), %ah
  4065e1: 28 4d 69                     	subb	%cl, 105(%ebp)
  4065e4: 6e                           	outsb	(%esi), %dx
  4065e5: 47                           	incl	%edi
  4065e6: 57                           	pushl	%edi
  4065e7: 2e 6f                        	outsl	%cs:(%esi), %dx
  4065e9: 72 67                        	jb	0x406652 <.rdata$zzz+0x30a>
  4065eb: 20 43 72                     	andb	%al, 114(%ebx)
  4065ee: 6f                           	outsl	(%esi), %dx
  4065ef: 73 73                        	jae	0x406664 <.rdata$zzz+0x31c>
  4065f1: 2d 47 43 43 20               	subl	$541279047, %eax
  4065f6: 42                           	incl	%edx
  4065f7: 75 69                        	jne	0x406662 <.rdata$zzz+0x31a>
  4065f9: 6c                           	insb	%dx, %es:(%edi)
  4065fa: 64 2d 32 30 32 30            	subl	$808595506, %eax
  406600: 30 35 33 31 2d 31            	xorb	%dh, 825045299
  406606: 29 20                        	subl	%esp, (%eax)
  406608: 39 2e                        	cmpl	%ebp, (%esi)
  40660a: 32 2e                        	xorb	(%esi), %ch
  40660c: 30 00                        	xorb	%al, (%eax)
  40660e: 00 00                        	addb	%al, (%eax)
  406610: 47                           	incl	%edi
  406611: 43                           	incl	%ebx
  406612: 43                           	incl	%ebx
  406613: 3a 20                        	cmpb	(%eax), %ah
  406615: 28 4d 69                     	subb	%cl, 105(%ebp)
  406618: 6e                           	outsb	(%esi), %dx
  406619: 47                           	incl	%edi
  40661a: 57                           	pushl	%edi
  40661b: 2e 6f                        	outsl	%cs:(%esi), %dx
  40661d: 72 67                        	jb	0x406686 <.rdata$zzz+0x33e>
  40661f: 20 43 72                     	andb	%al, 114(%ebx)
  406622: 6f                           	outsl	(%esi), %dx
  406623: 73 73                        	jae	0x406698 <.rdata$zzz+0x350>
  406625: 2d 47 43 43 20               	subl	$541279047, %eax
  40662a: 42                           	incl	%edx
  40662b: 75 69                        	jne	0x406696 <.rdata$zzz+0x34e>
  40662d: 6c                           	insb	%dx, %es:(%edi)
  40662e: 64 2d 32 30 32 30            	subl	$808595506, %eax
  406634: 30 35 33 31 2d 31            	xorb	%dh, 825045299
  40663a: 29 20                        	subl	%esp, (%eax)
  40663c: 39 2e                        	cmpl	%ebp, (%esi)
  40663e: 32 2e                        	xorb	(%esi), %ch
  406640: 30 00                        	xorb	%al, (%eax)
  406642: 00 00                        	addb	%al, (%eax)
  406644: 47                           	incl	%edi
  406645: 43                           	incl	%ebx
  406646: 43                           	incl	%ebx
  406647: 3a 20                        	cmpb	(%eax), %ah
  406649: 28 4d 69                     	subb	%cl, 105(%ebp)
  40664c: 6e                           	outsb	(%esi), %dx
  40664d: 47                           	incl	%edi
  40664e: 57                           	pushl	%edi
  40664f: 2e 6f                        	outsl	%cs:(%esi), %dx
  406651: 72 67                        	jb	0x4066ba <.rdata$zzz+0x372>
  406653: 20 43 72                     	andb	%al, 114(%ebx)
  406656: 6f                           	outsl	(%esi), %dx
  406657: 73 73                        	jae	0x4066cc <.rdata$zzz+0x384>
  406659: 2d 47 43 43 20               	subl	$541279047, %eax
  40665e: 42                           	incl	%edx
  40665f: 75 69                        	jne	0x4066ca <.rdata$zzz+0x382>
  406661: 6c                           	insb	%dx, %es:(%edi)
  406662: 64 2d 32 30 32 30            	subl	$808595506, %eax
  406668: 30 35 33 31 2d 31            	xorb	%dh, 825045299
  40666e: 29 20                        	subl	%esp, (%eax)
  406670: 39 2e                        	cmpl	%ebp, (%esi)
  406672: 32 2e                        	xorb	(%esi), %ch
  406674: 30 00                        	xorb	%al, (%eax)
  406676: 00 00                        	addb	%al, (%eax)
  406678: 47                           	incl	%edi
  406679: 43                           	incl	%ebx
  40667a: 43                           	incl	%ebx
  40667b: 3a 20                        	cmpb	(%eax), %ah
  40667d: 28 4d 69                     	subb	%cl, 105(%ebp)
  406680: 6e                           	outsb	(%esi), %dx
  406681: 47                           	incl	%edi
  406682: 57                           	pushl	%edi
  406683: 2e 6f                        	outsl	%cs:(%esi), %dx
  406685: 72 67                        	jb	0x4066ee <.rdata$zzz+0x3a6>
  406687: 20 43 72                     	andb	%al, 114(%ebx)
  40668a: 6f                           	outsl	(%esi), %dx
  40668b: 73 73                        	jae	0x406700 <.rdata$zzz+0x3b8>
  40668d: 2d 47 43 43 20               	subl	$541279047, %eax
  406692: 42                           	incl	%edx
  406693: 75 69                        	jne	0x4066fe <.rdata$zzz+0x3b6>
  406695: 6c                           	insb	%dx, %es:(%edi)
  406696: 64 2d 32 30 32 30            	subl	$808595506, %eax
  40669c: 30 35 33 31 2d 31            	xorb	%dh, 825045299
  4066a2: 29 20                        	subl	%esp, (%eax)
  4066a4: 39 2e                        	cmpl	%ebp, (%esi)
  4066a6: 32 2e                        	xorb	(%esi), %ch
  4066a8: 30 00                        	xorb	%al, (%eax)
  4066aa: 00 00                        	addb	%al, (%eax)
  4066ac: 47                           	incl	%edi
  4066ad: 43                           	incl	%ebx
  4066ae: 43                           	incl	%ebx
  4066af: 3a 20                        	cmpb	(%eax), %ah
  4066b1: 28 4d 69                     	subb	%cl, 105(%ebp)
  4066b4: 6e                           	outsb	(%esi), %dx
  4066b5: 47                           	incl	%edi
  4066b6: 57                           	pushl	%edi
  4066b7: 2e 6f                        	outsl	%cs:(%esi), %dx
  4066b9: 72 67                        	jb	0x406722 <.rdata$zzz+0x3da>
  4066bb: 20 43 72                     	andb	%al, 114(%ebx)
  4066be: 6f                           	outsl	(%esi), %dx
  4066bf: 73 73                        	jae	0x406734 <.rdata$zzz+0x3ec>
  4066c1: 2d 47 43 43 20               	subl	$541279047, %eax
  4066c6: 42                           	incl	%edx
  4066c7: 75 69                        	jne	0x406732 <.rdata$zzz+0x3ea>
  4066c9: 6c                           	insb	%dx, %es:(%edi)
  4066ca: 64 2d 32 30 32 30            	subl	$808595506, %eax
  4066d0: 30 35 33 31 2d 31            	xorb	%dh, 825045299
  4066d6: 29 20                        	subl	%esp, (%eax)
  4066d8: 39 2e                        	cmpl	%ebp, (%esi)
  4066da: 32 2e                        	xorb	(%esi), %ch
  4066dc: 30 00                        	xorb	%al, (%eax)
  4066de: 00 00                        	addb	%al, (%eax)
  4066e0: 47                           	incl	%edi
  4066e1: 43                           	incl	%ebx
  4066e2: 43                           	incl	%ebx
  4066e3: 3a 20                        	cmpb	(%eax), %ah
  4066e5: 28 4d 69                     	subb	%cl, 105(%ebp)
  4066e8: 6e                           	outsb	(%esi), %dx
  4066e9: 47                           	incl	%edi
  4066ea: 57                           	pushl	%edi
  4066eb: 2e 6f                        	outsl	%cs:(%esi), %dx
  4066ed: 72 67                        	jb	0x406756 <.rdata$zzz+0x40e>
  4066ef: 20 43 72                     	andb	%al, 114(%ebx)
  4066f2: 6f                           	outsl	(%esi), %dx
  4066f3: 73 73                        	jae	0x406768 <.rdata$zzz+0x420>
  4066f5: 2d 47 43 43 20               	subl	$541279047, %eax
  4066fa: 42                           	incl	%edx
  4066fb: 75 69                        	jne	0x406766 <.rdata$zzz+0x41e>
  4066fd: 6c                           	insb	%dx, %es:(%edi)
  4066fe: 64 2d 32 30 32 30            	subl	$808595506, %eax
  406704: 30 35 33 31 2d 31            	xorb	%dh, 825045299
  40670a: 29 20                        	subl	%esp, (%eax)
  40670c: 39 2e                        	cmpl	%ebp, (%esi)
  40670e: 32 2e                        	xorb	(%esi), %ch
  406710: 30 00                        	xorb	%al, (%eax)
  406712: 00 00                        	addb	%al, (%eax)
  406714: 47                           	incl	%edi
  406715: 43                           	incl	%ebx
  406716: 43                           	incl	%ebx
  406717: 3a 20                        	cmpb	(%eax), %ah
  406719: 28 4d 69                     	subb	%cl, 105(%ebp)
  40671c: 6e                           	outsb	(%esi), %dx
  40671d: 47                           	incl	%edi
  40671e: 57                           	pushl	%edi
  40671f: 2e 6f                        	outsl	%cs:(%esi), %dx
  406721: 72 67                        	jb	0x40678a <.rdata$zzz+0xe>
  406723: 20 43 72                     	andb	%al, 114(%ebx)
  406726: 6f                           	outsl	(%esi), %dx
  406727: 73 73                        	jae	0x40679c <.rdata$zzz+0x20>
  406729: 2d 47 43 43 20               	subl	$541279047, %eax
  40672e: 42                           	incl	%edx
  40672f: 75 69                        	jne	0x40679a <.rdata$zzz+0x1e>
  406731: 6c                           	insb	%dx, %es:(%edi)
  406732: 64 2d 32 30 32 30            	subl	$808595506, %eax
  406738: 30 35 33 31 2d 31            	xorb	%dh, 825045299
  40673e: 29 20                        	subl	%esp, (%eax)
  406740: 39 2e                        	cmpl	%ebp, (%esi)
  406742: 32 2e                        	xorb	(%esi), %ch
  406744: 30 00                        	xorb	%al, (%eax)
  406746: 00 00                        	addb	%al, (%eax)
  406748: 47                           	incl	%edi
  406749: 43                           	incl	%ebx
  40674a: 43                           	incl	%ebx
  40674b: 3a 20                        	cmpb	(%eax), %ah
  40674d: 28 4d 69                     	subb	%cl, 105(%ebp)
  406750: 6e                           	outsb	(%esi), %dx
  406751: 47                           	incl	%edi
  406752: 57                           	pushl	%edi
  406753: 2e 6f                        	outsl	%cs:(%esi), %dx
  406755: 72 67                        	jb	0x4067be <.rdata$zzz+0xe>
  406757: 20 43 72                     	andb	%al, 114(%ebx)
  40675a: 6f                           	outsl	(%esi), %dx
  40675b: 73 73                        	jae	0x4067d0 <.rdata$zzz+0x20>
  40675d: 2d 47 43 43 20               	subl	$541279047, %eax
  406762: 42                           	incl	%edx
  406763: 75 69                        	jne	0x4067ce <.rdata$zzz+0x1e>
  406765: 6c                           	insb	%dx, %es:(%edi)
  406766: 64 2d 32 30 32 30            	subl	$808595506, %eax
  40676c: 30 35 33 31 2d 31            	xorb	%dh, 825045299
  406772: 29 20                        	subl	%esp, (%eax)
  406774: 39 2e                        	cmpl	%ebp, (%esi)
  406776: 32 2e                        	xorb	(%esi), %ch
  406778: 30 00                        	xorb	%al, (%eax)
  40677a: 00 00                        	addb	%al, (%eax)

0040677c <.rdata$zzz>:
  40677c: 47                           	incl	%edi
  40677d: 43                           	incl	%ebx
  40677e: 43                           	incl	%ebx
  40677f: 3a 20                        	cmpb	(%eax), %ah
  406781: 28 4d 69                     	subb	%cl, 105(%ebp)
  406784: 6e                           	outsb	(%esi), %dx
  406785: 47                           	incl	%edi
  406786: 57                           	pushl	%edi
  406787: 2e 6f                        	outsl	%cs:(%esi), %dx
  406789: 72 67                        	jb	0x4067f2 <__rt_psrelocs_start+0xe>
  40678b: 20 43 72                     	andb	%al, 114(%ebx)
  40678e: 6f                           	outsl	(%esi), %dx
  40678f: 73 73                        	jae	0x406804 <__rt_psrelocs_start+0x20>
  406791: 2d 47 43 43 20               	subl	$541279047, %eax
  406796: 42                           	incl	%edx
  406797: 75 69                        	jne	0x406802 <__rt_psrelocs_start+0x1e>
  406799: 6c                           	insb	%dx, %es:(%edi)
  40679a: 64 2d 32 30 32 30            	subl	$808595506, %eax
  4067a0: 30 35 33 31 2d 31            	xorb	%dh, 825045299
  4067a6: 29 20                        	subl	%esp, (%eax)
  4067a8: 39 2e                        	cmpl	%ebp, (%esi)
  4067aa: 32 2e                        	xorb	(%esi), %ch
  4067ac: 30 00                        	xorb	%al, (%eax)
  4067ae: 00 00                        	addb	%al, (%eax)

004067b0 <.rdata$zzz>:
  4067b0: 47                           	incl	%edi
  4067b1: 43                           	incl	%ebx
  4067b2: 43                           	incl	%ebx
  4067b3: 3a 20                        	cmpb	(%eax), %ah
  4067b5: 28 4d 69                     	subb	%cl, 105(%ebp)
  4067b8: 6e                           	outsb	(%esi), %dx
  4067b9: 47                           	incl	%edi
  4067ba: 57                           	pushl	%edi
  4067bb: 2e 6f                        	outsl	%cs:(%esi), %dx
  4067bd: 72 67                        	jb	0x406826 <__rt_psrelocs_start+0x42>
  4067bf: 20 43 72                     	andb	%al, 114(%ebx)
  4067c2: 6f                           	outsl	(%esi), %dx
  4067c3: 73 73                        	jae	0x406838 <__rt_psrelocs_start+0x54>
  4067c5: 2d 47 43 43 20               	subl	$541279047, %eax
  4067ca: 42                           	incl	%edx
  4067cb: 75 69                        	jne	0x406836 <__rt_psrelocs_start+0x52>
  4067cd: 6c                           	insb	%dx, %es:(%edi)
  4067ce: 64 2d 32 30 32 30            	subl	$808595506, %eax
  4067d4: 30 35 33 31 2d 31            	xorb	%dh, 825045299
  4067da: 29 20                        	subl	%esp, (%eax)
  4067dc: 39 2e                        	cmpl	%ebp, (%esi)
  4067de: 32 2e                        	xorb	(%esi), %ch
  4067e0: 30 00                        	xorb	%al, (%eax)
  4067e2: 00 00                        	addb	%al, (%eax)

Disassembly of section .eh_frame:

00407000 <.eh_frame>:
  407000: 14 00                        	adcb	$0, %al
  407002: 00 00                        	addb	%al, (%eax)
  407004: 00 00                        	addb	%al, (%eax)
  407006: 00 00                        	addb	%al, (%eax)
  407008: 01 7a 52                     	addl	%edi, 82(%edx)
  40700b: 00 01                        	addb	%al, (%ecx)
  40700d: 7c 08                        	jl	0x407017 <.eh_frame+0x17>
  40700f: 01 1b                        	addl	%ebx, (%ebx)
  407011: 0c 04                        	orb	$4, %al
  407013: 04 88                        	addb	$-120, %al
  407015: 01 00                        	addl	%eax, (%eax)
  407017: 00 18                        	addb	%bl, (%eax)
  407019: 00 00                        	addb	%al, (%eax)
  40701b: 00 1c 00                     	addb	%bl, (%eax,%eax)
  40701e: 00 00                        	addb	%al, (%eax)
  407020: e0 9f                        	loopne	0x406fc1 <__rt_psrelocs_start+0x7dd>
  407022: ff ff                        	<unknown>
  407024: 9b                           	wait
  407025: 01 00                        	addl	%eax, (%eax)
  407027: 00 00                        	addb	%al, (%eax)
  407029: 43                           	incl	%ebx
  40702a: 0e                           	pushl	%cs
  40702b: 20 02                        	andb	%al, (%edx)
  40702d: 56                           	pushl	%esi
  40702e: 0a 0e                        	orb	(%esi), %cl
  407030: 04 47                        	addb	$71, %al
  407032: 0b 00                        	orl	(%eax), %eax
  407034: 28 00                        	subb	%al, (%eax)
  407036: 00 00                        	addb	%al, (%eax)
  407038: 38 00                        	cmpb	%al, (%eax)
  40703a: 00 00                        	addb	%al, (%eax)
  40703c: 64 a1 ff ff e9 00            	movl	%fs:15335423, %eax
  407042: 00 00                        	addb	%al, (%eax)
  407044: 00 41 0e                     	addb	%al, 14(%ecx)
  407047: 08 83 02 43 0e 20            	orb	%al, 537805570(%ebx)
  40704d: 62 0e                        	bound	%ecx, (%esi)
  40704f: 14 43                        	adcb	$67, %al
  407051: 0e                           	pushl	%cs
  407052: 20 4c 0e 1c                  	andb	%cl, 28(%esi,%ecx)
  407056: 43                           	incl	%ebx
  407057: 0e                           	pushl	%cs
  407058: 20 02                        	andb	%al, (%edx)
  40705a: 6a 0a                        	pushl	$10
  40705c: 0e                           	pushl	%cs
  40705d: 1c 0b                        	sbbb	$11, %al
  40705f: 00 14 00                     	addb	%dl, (%eax,%eax)
  407062: 00 00                        	addb	%al, (%eax)
  407064: 64 00 00                     	addb	%al, %fs:(%eax)
  407067: 00 28                        	addb	%ch, (%eax)
  407069: a2 ff ff 3f 00               	movb	%al, 4194303
  40706e: 00 00                        	addb	%al, (%eax)
  407070: 00 43 0e                     	addb	%al, 14(%ebx)
  407073: 40                           	incl	%eax
  407074: 7b 0e                        	jnp	0x407084 <.eh_frame+0x84>
  407076: 04 00                        	addb	$0, %al
  407078: 10 00                        	adcb	%al, (%eax)
  40707a: 00 00                        	addb	%al, (%eax)
  40707c: 7c 00                        	jl	0x40707e <.eh_frame+0x7e>
  40707e: 00 00                        	addb	%al, (%eax)
  407080: 50                           	pushl	%eax
  407081: a2 ff ff 15 00               	movb	%al, 1441791
  407086: 00 00                        	addb	%al, (%eax)
  407088: 00 43 0e                     	addb	%al, 14(%ebx)
  40708b: 20 10                        	andb	%dl, (%eax)
  40708d: 00 00                        	addb	%al, (%eax)
  40708f: 00 90 00 00 00 5c            	addb	%dl, 1543503872(%eax)
  407095: a2 ff ff 15 00               	movb	%al, 1441791
  40709a: 00 00                        	addb	%al, (%eax)
  40709c: 00 43 0e                     	addb	%al, 14(%ebx)
  40709f: 20 10                        	andb	%dl, (%eax)
  4070a1: 00 00                        	addb	%al, (%eax)
  4070a3: 00 a4 00 00 00 68 a2         	addb	%ah, -1570242560(%eax,%eax)
  4070aa: ff ff                        	<unknown>
  4070ac: 06                           	pushl	%es
  4070ad: 00 00                        	addb	%al, (%eax)
  4070af: 00 00                        	addb	%al, (%eax)
  4070b1: 00 00                        	addb	%al, (%eax)
  4070b3: 00 10                        	addb	%dl, (%eax)
  4070b5: 00 00                        	addb	%al, (%eax)
  4070b7: 00 b8 00 00 00 64            	addb	%bh, 1677721600(%eax)
  4070bd: a2 ff ff 06 00               	movb	%al, 458751
  4070c2: 00 00                        	addb	%al, (%eax)
  4070c4: 00 00                        	addb	%al, (%eax)
  4070c6: 00 00                        	addb	%al, (%eax)

004070c8 <___EH_FRAME_BEGIN__>:
  4070c8: 14 00                        	adcb	$0, %al
  4070ca: 00 00                        	addb	%al, (%eax)
  4070cc: 00 00                        	addb	%al, (%eax)
  4070ce: 00 00                        	addb	%al, (%eax)
  4070d0: 01 7a 52                     	addl	%edi, 82(%edx)
  4070d3: 00 01                        	addb	%al, (%ecx)
  4070d5: 7c 08                        	jl	0x4070df <___EH_FRAME_BEGIN__+0x17>
  4070d7: 01 1b                        	addl	%ebx, (%ebx)
  4070d9: 0c 04                        	orb	$4, %al
  4070db: 04 88                        	addb	$-120, %al
  4070dd: 01 00                        	addl	%eax, (%eax)
  4070df: 00 28                        	addb	%ch, (%eax)
  4070e1: 00 00                        	addb	%al, (%eax)
  4070e3: 00 1c 00                     	addb	%bl, (%eax,%eax)
  4070e6: 00 00                        	addb	%al, (%eax)
  4070e8: 48                           	decl	%eax
  4070e9: a2 ff ff a1 00               	movb	%al, 10616831
  4070ee: 00 00                        	addb	%al, (%eax)
  4070f0: 00 41 0e                     	addb	%al, 14(%ecx)
  4070f3: 08 85 02 42 0d 05            	orb	%al, 84754946(%ebp)
  4070f9: 45                           	incl	%ebp
  4070fa: 86 03                        	xchgb	%al, (%ebx)
  4070fc: 83 04 02 7b                  	addl	$123, (%edx,%eax)
  407100: 0a c3                        	orb	%bl, %al
  407102: 41                           	incl	%ecx
  407103: c6 41 c5 0c                  	movb	$12, -59(%ecx)
  407107: 04 04                        	addb	$4, %al
  407109: 4b                           	decl	%ebx
  40710a: 0b 00                        	orl	(%eax), %eax
  40710c: 1c 00                        	sbbb	$0, %al
  40710e: 00 00                        	addb	%al, (%eax)
  407110: 48                           	decl	%eax
  407111: 00 00                        	addb	%al, (%eax)
  407113: 00 cc                        	addb	%cl, %ah
  407115: a2 ff ff 2e 00               	movb	%al, 3080191
  40711a: 00 00                        	addb	%al, (%eax)
  40711c: 00 41 0e                     	addb	%al, 14(%ecx)
  40711f: 08 85 02 42 0d 05            	orb	%al, 84754946(%ebp)
  407125: 6a c5                        	pushl	$-59
  407127: 0c 04                        	orb	$4, %al
  407129: 04 00                        	addb	$0, %al
  40712b: 00 14 00                     	addb	%dl, (%eax,%eax)

0040712c <.eh_frame>:
  40712c: 14 00                        	adcb	$0, %al
  40712e: 00 00                        	addb	%al, (%eax)
  407130: 00 00                        	addb	%al, (%eax)
  407132: 00 00                        	addb	%al, (%eax)
  407134: 01 7a 52                     	addl	%edi, 82(%edx)
  407137: 00 01                        	addb	%al, (%ecx)
  407139: 7c 08                        	jl	0x407143 <.eh_frame+0x17>
  40713b: 01 1b                        	addl	%ebx, (%ebx)
  40713d: 0c 04                        	orb	$4, %al
  40713f: 04 88                        	addb	$-120, %al
  407141: 01 00                        	addl	%eax, (%eax)
  407143: 00 1c 00                     	addb	%bl, (%eax,%eax)
  407146: 00 00                        	addb	%al, (%eax)
  407148: 1c 00                        	sbbb	$0, %al
  40714a: 00 00                        	addb	%al, (%eax)
  40714c: c4 a2 ff ff ef 00            	lesl	15728639(%edx), %esp
  407152: 00 00                        	addb	%al, (%eax)
  407154: 00 41 0e                     	addb	%al, 14(%ecx)
  407157: 08 85 02 42 0d 05            	orb	%al, 84754946(%ebp)
  40715d: 02 eb                        	addb	%bl, %ch
  40715f: c5 0c 04                     	ldsl	(%esp,%eax), %ecx
  407162: 04 00                        	addb	$0, %al
  407164: 14 00                        	adcb	$0, %al
  407166: 00 00                        	addb	%al, (%eax)
  407168: 00 00                        	addb	%al, (%eax)
  40716a: 00 00                        	addb	%al, (%eax)
  40716c: 01 7a 52                     	addl	%edi, 82(%edx)
  40716f: 00 01                        	addb	%al, (%ecx)
  407171: 7c 08                        	jl	0x40717b <.eh_frame+0x4f>
  407173: 01 1b                        	addl	%ebx, (%ebx)
  407175: 0c 04                        	orb	$4, %al
  407177: 04 88                        	addb	$-120, %al
  407179: 01 00                        	addl	%eax, (%eax)
  40717b: 00 3c 00                     	addb	%bh, (%eax,%eax)
  40717e: 00 00                        	addb	%al, (%eax)
  407180: 1c 00                        	sbbb	$0, %al
  407182: 00 00                        	addb	%al, (%eax)
  407184: 7c a3                        	jl	0x407129 <___EH_FRAME_BEGIN__+0x61>
  407186: ff ff                        	<unknown>
  407188: 9b                           	wait
  407189: 03 00                        	addl	(%eax), %eax
  40718b: 00 00                        	addb	%al, (%eax)
  40718d: 41                           	incl	%ecx
  40718e: 0e                           	pushl	%cs
  40718f: 08 85 02 42 0d 05            	orb	%al, 84754946(%ebp)
  407195: 46                           	incl	%esi
  407196: 87 03                        	xchgl	%eax, (%ebx)
  407198: 86 04 83                     	xchgb	%al, (%ebx,%eax,4)
  40719b: 05 52 0a c3 41               	addl	$1103301202, %eax
  4071a0: c6 41 c7 41                  	movb	$65, -57(%ecx)
  4071a4: c5 0c 04                     	ldsl	(%esp,%eax), %ecx
  4071a7: 04 42                        	addb	$66, %al
  4071a9: 0b 03                        	orl	(%ebx), %eax
  4071ab: 37                           	aaa
  4071ac: 01 0a                        	addl	%ecx, (%edx)
  4071ae: c3                           	retl
  4071af: 41                           	incl	%ecx
  4071b0: c6 41 c7 41                  	movb	$65, -57(%ecx)
  4071b4: c5 0c 04                     	ldsl	(%esp,%eax), %ecx
  4071b7: 04 46                        	addb	$70, %al
  4071b9: 0b 00                        	orl	(%eax), %eax
  4071bb: 00 14 00                     	addb	%dl, (%eax,%eax)
  4071be: 00 00                        	addb	%al, (%eax)
  4071c0: 00 00                        	addb	%al, (%eax)
  4071c2: 00 00                        	addb	%al, (%eax)
  4071c4: 01 7a 52                     	addl	%edi, 82(%edx)
  4071c7: 00 01                        	addb	%al, (%ecx)
  4071c9: 7c 08                        	jl	0x4071d3 <.eh_frame+0xa7>
  4071cb: 01 1b                        	addl	%ebx, (%ebx)
  4071cd: 0c 04                        	orb	$4, %al
  4071cf: 04 88                        	addb	$-120, %al
  4071d1: 01 00                        	addl	%eax, (%eax)
  4071d3: 00 24 00                     	addb	%ah, (%eax,%eax)
  4071d6: 00 00                        	addb	%al, (%eax)
  4071d8: 1c 00                        	sbbb	$0, %al
  4071da: 00 00                        	addb	%al, (%eax)
  4071dc: c4 a6 ff ff 07 01            	lesl	17301503(%esi), %esp
  4071e2: 00 00                        	addb	%al, (%eax)
  4071e4: 00 5d 0e                     	addb	%bl, 14(%ebp)
  4071e7: 08 83 02 02 48 0c            	orb	%al, 206045698(%ebx)
  4071ed: 05 0c 85 03 02               	addl	$33785100, %eax
  4071f2: 41                           	incl	%ecx
  4071f3: c5 0c 04                     	ldsl	(%esp,%eax), %ecx
  4071f6: 08 02                        	orb	%al, (%edx)
  4071f8: 5f                           	popl	%edi
  4071f9: c3                           	retl
  4071fa: 0e                           	pushl	%cs
  4071fb: 04 14                        	addb	$20, %al
  4071fd: 00 00                        	addb	%al, (%eax)
  4071ff: 00 00                        	addb	%al, (%eax)
  407201: 00 00                        	addb	%al, (%eax)
  407203: 00 01                        	addb	%al, (%ecx)
  407205: 7a 52                        	jp	0x407259 <.eh_frame+0x12d>
  407207: 00 01                        	addb	%al, (%ecx)
  407209: 7c 08                        	jl	0x407213 <.eh_frame+0xe7>
  40720b: 01 1b                        	addl	%ebx, (%ebx)
  40720d: 0c 04                        	orb	$4, %al
  40720f: 04 88                        	addb	$-120, %al
  407211: 01 00                        	addl	%eax, (%eax)
  407213: 00 14 00                     	addb	%dl, (%eax,%eax)
  407216: 00 00                        	addb	%al, (%eax)
  407218: 1c 00                        	sbbb	$0, %al
  40721a: 00 00                        	addb	%al, (%eax)
  40721c: 94                           	xchgl	%esp, %eax
  40721d: a7                           	cmpsl	%es:(%edi), (%esi)
  40721e: ff ff                        	<unknown>
  407220: 31 00                        	xorl	%eax, (%eax)
  407222: 00 00                        	addb	%al, (%eax)
  407224: 00 4e 0e                     	addb	%cl, 14(%esi)
  407227: 10 5c 0e 04                  	adcb	%bl, 4(%esi,%ecx)
  40722b: 00 20                        	addb	%ah, (%eax)
  40722d: 00 00                        	addb	%al, (%eax)
  40722f: 00 34 00                     	addb	%dh, (%eax,%eax)
  407232: 00 00                        	addb	%al, (%eax)
  407234: bc a7 ff ff 52               	movl	$1392508839, %esp
  407239: 00 00                        	addb	%al, (%eax)
  40723b: 00 00                        	addb	%al, (%eax)
  40723d: 41                           	incl	%ecx
  40723e: 0e                           	pushl	%cs
  40723f: 08 83 02 43 0e 20            	orb	%al, 537805570(%ebx)
  407245: 6f                           	outsl	(%esi), %dx
  407246: 0a 0e                        	orb	(%esi), %cl
  407248: 08 41 c3                     	orb	%al, -61(%ecx)
  40724b: 0e                           	pushl	%cs
  40724c: 04 44                        	addb	$68, %al
  40724e: 0b 00                        	orl	(%eax), %eax
  407250: 10 00                        	adcb	%al, (%eax)
  407252: 00 00                        	addb	%al, (%eax)
  407254: 58                           	popl	%eax
  407255: 00 00                        	addb	%al, (%eax)
  407257: 00 f8                        	addb	%bh, %al
  407259: a7                           	cmpsl	%es:(%edi), (%esi)
  40725a: ff ff                        	<unknown>
  40725c: 1c 00                        	sbbb	$0, %al
  40725e: 00 00                        	addb	%al, (%eax)
  407260: 00 00                        	addb	%al, (%eax)
  407262: 00 00                        	addb	%al, (%eax)
  407264: 14 00                        	adcb	$0, %al
  407266: 00 00                        	addb	%al, (%eax)
  407268: 00 00                        	addb	%al, (%eax)
  40726a: 00 00                        	addb	%al, (%eax)
  40726c: 01 7a 52                     	addl	%edi, 82(%edx)
  40726f: 00 01                        	addb	%al, (%ecx)
  407271: 7c 08                        	jl	0x40727b <.eh_frame+0x14f>
  407273: 01 1b                        	addl	%ebx, (%ebx)
  407275: 0c 04                        	orb	$4, %al
  407277: 04 88                        	addb	$-120, %al
  407279: 01 00                        	addl	%eax, (%eax)
  40727b: 00 1c 00                     	addb	%bl, (%eax,%eax)
  40727e: 00 00                        	addb	%al, (%eax)
  407280: 1c 00                        	sbbb	$0, %al
  407282: 00 00                        	addb	%al, (%eax)
  407284: ec                           	inb	%dx, %al
  407285: a7                           	cmpsl	%es:(%edi), (%esi)
  407286: ff ff                        	<unknown>
  407288: 43                           	incl	%ebx
  407289: 00 00                        	addb	%al, (%eax)
  40728b: 00 00                        	addb	%al, (%eax)
  40728d: 43                           	incl	%ebx
  40728e: 0e                           	pushl	%cs
  40728f: 20 55 0a                     	andb	%dl, 10(%ebp)
  407292: 0e                           	pushl	%cs
  407293: 04 48                        	addb	$72, %al
  407295: 0b 60 0e                     	orl	14(%eax), %esp
  407298: 04 00                        	addb	$0, %al
  40729a: 00 00                        	addb	%al, (%eax)
  40729c: 44                           	incl	%esp
  40729d: 00 00                        	addb	%al, (%eax)
  40729f: 00 3c 00                     	addb	%bh, (%eax,%eax)
  4072a2: 00 00                        	addb	%al, (%eax)
  4072a4: 1c a8                        	sbbb	$-88, %al
  4072a6: ff ff                        	<unknown>
  4072a8: a1 00 00 00 00               	movl	0, %eax
  4072ad: 41                           	incl	%ecx
  4072ae: 0e                           	pushl	%cs
  4072af: 08 86 02 41 0e 0c            	orb	%al, 202260738(%esi)
  4072b5: 83 03 43                     	addl	$67, (%ebx)
  4072b8: 0e                           	pushl	%cs
  4072b9: 20 64 0a 0e                  	andb	%ah, 14(%edx,%ecx)
  4072bd: 0c 46                        	orb	$70, %al
  4072bf: c3                           	retl
  4072c0: 0e                           	pushl	%cs
  4072c1: 08 41 c6                     	orb	%al, -58(%ecx)
  4072c4: 0e                           	pushl	%cs
  4072c5: 04 48                        	addb	$72, %al
  4072c7: 0b 6f 0a                     	orl	10(%edi), %ebp
  4072ca: 0e                           	pushl	%cs
  4072cb: 0c 46                        	orb	$70, %al
  4072cd: c3                           	retl
  4072ce: 0e                           	pushl	%cs
  4072cf: 08 41 c6                     	orb	%al, -58(%ecx)
  4072d2: 0e                           	pushl	%cs
  4072d3: 04 4a                        	addb	$74, %al
  4072d5: 0b 5f 0e                     	orl	14(%edi), %ebx
  4072d8: 0c 46                        	orb	$70, %al
  4072da: c3                           	retl
  4072db: 0e                           	pushl	%cs
  4072dc: 08 41 c6                     	orb	%al, -58(%ecx)
  4072df: 0e                           	pushl	%cs
  4072e0: 04 00                        	addb	$0, %al
  4072e2: 00 00                        	addb	%al, (%eax)
  4072e4: 10 00                        	adcb	%al, (%eax)
  4072e6: 00 00                        	addb	%al, (%eax)
  4072e8: 84 00                        	testb	%al, (%eax)
  4072ea: 00 00                        	addb	%al, (%eax)
  4072ec: 84 a8 ff ff 03 00            	testb	%ch, 262143(%eax)
  4072f2: 00 00                        	addb	%al, (%eax)
  4072f4: 00 00                        	addb	%al, (%eax)
  4072f6: 00 00                        	addb	%al, (%eax)
  4072f8: 14 00                        	adcb	$0, %al
  4072fa: 00 00                        	addb	%al, (%eax)
  4072fc: 00 00                        	addb	%al, (%eax)
  4072fe: 00 00                        	addb	%al, (%eax)
  407300: 01 7a 52                     	addl	%edi, 82(%edx)
  407303: 00 01                        	addb	%al, (%ecx)
  407305: 7c 08                        	jl	0x40730f <.eh_frame+0x1e3>
  407307: 01 1b                        	addl	%ebx, (%ebx)
  407309: 0c 04                        	orb	$4, %al
  40730b: 04 88                        	addb	$-120, %al
  40730d: 01 00                        	addl	%eax, (%eax)
  40730f: 00 38                        	addb	%bh, (%eax)
  407311: 00 00                        	addb	%al, (%eax)
  407313: 00 1c 00                     	addb	%bl, (%eax,%eax)
  407316: 00 00                        	addb	%al, (%eax)
  407318: 68 a8 ff ff 60               	pushl	$1627389864
  40731d: 00 00                        	addb	%al, (%eax)
  40731f: 00 00                        	addb	%al, (%eax)
  407321: 41                           	incl	%ecx
  407322: 0e                           	pushl	%cs
  407323: 08 86 02 41 0e 0c            	orb	%al, 202260738(%esi)
  407329: 83 03 43                     	addl	$67, (%ebx)
  40732c: 0e                           	pushl	%cs
  40732d: 20 4c 0e 1c                  	andb	%cl, 28(%esi,%ecx)
  407331: 49                           	decl	%ecx
  407332: 0e                           	pushl	%cs
  407333: 20 50 0e                     	andb	%dl, 14(%eax)
  407336: 1c 43                        	sbbb	$67, %al
  407338: 0e                           	pushl	%cs
  407339: 20 6a 0e                     	andb	%ch, 14(%edx)
  40733c: 1c 43                        	sbbb	$67, %al
  40733e: 0e                           	pushl	%cs
  40733f: 20 43 0e                     	andb	%al, 14(%ebx)
  407342: 0c 41                        	orb	$65, %al
  407344: c3                           	retl
  407345: 0e                           	pushl	%cs
  407346: 08 41 c6                     	orb	%al, -58(%ecx)
  407349: 0e                           	pushl	%cs
  40734a: 04 00                        	addb	$0, %al
  40734c: 2c 00                        	subb	$0, %al
  40734e: 00 00                        	addb	%al, (%eax)
  407350: 58                           	popl	%eax
  407351: 00 00                        	addb	%al, (%eax)
  407353: 00 8c a8 ff ff 73 00         	addb	%cl, 7602175(%eax,%ebp,4)
  40735a: 00 00                        	addb	%al, (%eax)
  40735c: 00 51 0e                     	addb	%dl, 14(%ecx)
  40735f: 08 83 02 43 0e 20            	orb	%al, 537805570(%ebx)
  407365: 73 0e                        	jae	0x407375 <.eh_frame+0x249>
  407367: 1c 4e                        	sbbb	$78, %al
  407369: 0e                           	pushl	%cs
  40736a: 20 4f 0e                     	andb	%cl, 14(%edi)
  40736d: 1c 45                        	sbbb	$69, %al
  40736f: 0e                           	pushl	%cs
  407370: 20 43 0a                     	andb	%al, 10(%ebx)
  407373: 0e                           	pushl	%cs
  407374: 08 41 c3                     	orb	%al, -61(%ecx)
  407377: 0e                           	pushl	%cs
  407378: 04 41                        	addb	$65, %al
  40737a: 0b 00                        	orl	(%eax), %eax
  40737c: 38 00                        	cmpb	%al, (%eax)
  40737e: 00 00                        	addb	%al, (%eax)
  407380: 88 00                        	movb	%al, (%eax)
  407382: 00 00                        	addb	%al, (%eax)
  407384: dc a8 ff ff 88 00            	fsubrl	8978431(%eax)
  40738a: 00 00                        	addb	%al, (%eax)
  40738c: 00 41 0e                     	addb	%al, 14(%ecx)
  40738f: 08 83 02 43 0e 20            	orb	%al, 537805570(%ebx)
  407395: 50                           	pushl	%eax
  407396: 0a 0e                        	orb	(%esi), %cl
  407398: 08 43 c3                     	orb	%al, -61(%ebx)
  40739b: 0e                           	pushl	%cs
  40739c: 04 49                        	addb	$73, %al
  40739e: 0b 4c 0e 1c                  	orl	28(%esi,%ecx), %ecx
  4073a2: 48                           	decl	%eax
  4073a3: 0e                           	pushl	%cs
  4073a4: 20 78 0e                     	andb	%bh, 14(%eax)
  4073a7: 1c 45                        	sbbb	$69, %al
  4073a9: 0e                           	pushl	%cs
  4073aa: 20 43 0a                     	andb	%al, 10(%ebx)
  4073ad: 0e                           	pushl	%cs
  4073ae: 08 41 c3                     	orb	%al, -61(%ecx)
  4073b1: 0e                           	pushl	%cs
  4073b2: 04 4b                        	addb	$75, %al
  4073b4: 0b 00                        	orl	(%eax), %eax
  4073b6: 00 00                        	addb	%al, (%eax)
  4073b8: 30 00                        	xorb	%al, (%eax)
  4073ba: 00 00                        	addb	%al, (%eax)
  4073bc: c4 00                        	lesl	(%eax), %eax
  4073be: 00 00                        	addb	%al, (%eax)
  4073c0: 30 a9 ff ff bc 00            	xorb	%ch, 12386303(%ecx)
  4073c6: 00 00                        	addb	%al, (%eax)
  4073c8: 00 43 0e                     	addb	%al, 14(%ebx)
  4073cb: 20 5a 0a                     	andb	%bl, 10(%edx)
  4073ce: 0e                           	pushl	%cs
  4073cf: 04 43                        	addb	$67, %al
  4073d1: 0b 5b 0a                     	orl	10(%ebx), %ebx
  4073d4: 0e                           	pushl	%cs
  4073d5: 04 45                        	addb	$69, %al
  4073d7: 0b 69 0e                     	orl	14(%ecx), %ebp
  4073da: 1c 43                        	sbbb	$67, %al
  4073dc: 0e                           	pushl	%cs
  4073dd: 20 5a 0a                     	andb	%bl, 10(%edx)
  4073e0: 0e                           	pushl	%cs
  4073e1: 04 4a                        	addb	$74, %al
  4073e3: 0b 64 0e 1c                  	orl	28(%esi,%ecx), %esp
  4073e7: 43                           	incl	%ebx
  4073e8: 0e                           	pushl	%cs
  4073e9: 20 00                        	andb	%al, (%eax)
  4073eb: 00 14 00                     	addb	%dl, (%eax,%eax)
  4073ee: 00 00                        	addb	%al, (%eax)
  4073f0: 00 00                        	addb	%al, (%eax)
  4073f2: 00 00                        	addb	%al, (%eax)
  4073f4: 01 7a 52                     	addl	%edi, 82(%edx)
  4073f7: 00 01                        	addb	%al, (%ecx)
  4073f9: 7c 08                        	jl	0x407403 <.eh_frame+0x2d7>
  4073fb: 01 1b                        	addl	%ebx, (%ebx)
  4073fd: 0c 04                        	orb	$4, %al
  4073ff: 04 88                        	addb	$-120, %al
  407401: 01 00                        	addl	%eax, (%eax)
  407403: 00 1c 00                     	addb	%bl, (%eax,%eax)
  407406: 00 00                        	addb	%al, (%eax)
  407408: 1c 00                        	sbbb	$0, %al
  40740a: 00 00                        	addb	%al, (%eax)
  40740c: a4                           	movsb	(%esi), %es:(%edi)
  40740d: a9 ff ff 4a 00               	testl	$4915199, %eax
  407412: 00 00                        	addb	%al, (%eax)
  407414: 00 41 0e                     	addb	%al, 14(%ecx)
  407417: 08 86 02 41 0e 0c            	orb	%al, 202260738(%esi)
  40741d: 83 03 43                     	addl	$67, (%ebx)
  407420: 0e                           	pushl	%cs
  407421: 20 00                        	andb	%al, (%eax)
  407423: 00 64 00 00                  	addb	%ah, (%eax,%eax)
  407427: 00 3c 00                     	addb	%bh, (%eax,%eax)
  40742a: 00 00                        	addb	%al, (%eax)
  40742c: d4 a9                        	aam	$-87
  40742e: ff ff                        	<unknown>
  407430: ec                           	inb	%dx, %al
  407431: 00 00                        	addb	%al, (%eax)
  407433: 00 00                        	addb	%al, (%eax)
  407435: 41                           	incl	%ecx
  407436: 0e                           	pushl	%cs
  407437: 08 85 02 41 0e 0c            	orb	%al, 202260738(%ebp)
  40743d: 87 03                        	xchgl	%eax, (%ebx)
  40743f: 43                           	incl	%ebx
  407440: 0e                           	pushl	%cs
  407441: 10 86 04 43 0e 14            	adcb	%al, 336478980(%esi)
  407447: 83 05 45 0e 50 58 0e         	addl	$14, 1481641541
  40744e: 44                           	incl	%esp
  40744f: 43                           	incl	%ebx
  407450: 0e                           	pushl	%cs
  407451: 50                           	pushl	%eax
  407452: 6d                           	insl	%dx, %es:(%edi)
  407453: 0a 0e                        	orb	(%esi), %cl
  407455: 14 41                        	adcb	$65, %al
  407457: c3                           	retl
  407458: 0e                           	pushl	%cs
  407459: 10 41 c6                     	adcb	%al, -58(%ecx)
  40745c: 0e                           	pushl	%cs
  40745d: 0c 41                        	orb	$65, %al
  40745f: c7 0e                        	<unknown>
  407461: 08 41 c5                     	orb	%al, -59(%ecx)
  407464: 0e                           	pushl	%cs
  407465: 04 47                        	addb	$71, %al
  407467: 0b 64 0e 40                  	orl	64(%esi,%ecx), %esp
  40746b: 43                           	incl	%ebx
  40746c: 0e                           	pushl	%cs
  40746d: 50                           	pushl	%eax
  40746e: 02 42 0e                     	addb	14(%edx), %al
  407471: 40                           	incl	%eax
  407472: 43                           	incl	%ebx
  407473: 0e                           	pushl	%cs
  407474: 50                           	pushl	%eax
  407475: 43                           	incl	%ebx
  407476: 0a 0e                        	orb	(%esi), %cl
  407478: 14 41                        	adcb	$65, %al
  40747a: c3                           	retl
  40747b: 0e                           	pushl	%cs
  40747c: 10 41 c6                     	adcb	%al, -58(%ecx)
  40747f: 0e                           	pushl	%cs
  407480: 0c 41                        	orb	$65, %al
  407482: c7 0e                        	<unknown>
  407484: 08 41 c5                     	orb	%al, -59(%ecx)
  407487: 0e                           	pushl	%cs
  407488: 04 41                        	addb	$65, %al
  40748a: 0b 00                        	orl	(%eax), %eax
  40748c: 48                           	decl	%eax
  40748d: 00 00                        	addb	%al, (%eax)
  40748f: 00 a4 00 00 00 5c aa         	addb	%ah, -1436811264(%eax,%eax)
  407496: ff ff                        	<unknown>
  407498: ea 01 00 00 00 6a 0e         	ljmpl	$3690, $1
  40749f: 08 87 02 41 0e 0c            	orb	%al, 202260738(%edi)
  4074a5: 86 03                        	xchgb	%al, (%ebx)
  4074a7: 41                           	incl	%ecx
  4074a8: 0e                           	pushl	%cs
  4074a9: 10 83 04 43 0e 30            	adcb	%al, 806241028(%ebx)
  4074af: 02 93 0a 0e 10 41            	addb	1091571210(%ebx), %dl
  4074b5: c3                           	retl
  4074b6: 0e                           	pushl	%cs
  4074b7: 0c 41                        	orb	$65, %al
  4074b9: c6 0e                        	<unknown>
  4074bb: 08 41 c7                     	orb	%al, -57(%ecx)
  4074be: 0e                           	pushl	%cs
  4074bf: 04 4b                        	addb	$75, %al
  4074c1: 0b 02                        	orl	(%edx), %eax
  4074c3: fb                           	sti
  4074c4: 0a 0e                        	orb	(%esi), %cl
  4074c6: 10 41 c3                     	adcb	%al, -61(%ecx)
  4074c9: 0e                           	pushl	%cs
  4074ca: 0c 41                        	orb	$65, %al
  4074cc: c6 0e                        	<unknown>
  4074ce: 08 41 c7                     	orb	%al, -57(%ecx)
  4074d1: 0e                           	pushl	%cs
  4074d2: 04 42                        	addb	$66, %al
  4074d4: 0b 00                        	orl	(%eax), %eax
  4074d6: 00 00                        	addb	%al, (%eax)
  4074d8: 14 00                        	adcb	$0, %al
  4074da: 00 00                        	addb	%al, (%eax)
  4074dc: 00 00                        	addb	%al, (%eax)
  4074de: 00 00                        	addb	%al, (%eax)
  4074e0: 01 7a 52                     	addl	%edi, 82(%edx)
  4074e3: 00 01                        	addb	%al, (%ecx)
  4074e5: 7c 08                        	jl	0x4074ef <.eh_frame+0x3c3>
  4074e7: 01 1b                        	addl	%ebx, (%ebx)
  4074e9: 0c 04                        	orb	$4, %al
  4074eb: 04 88                        	addb	$-120, %al
  4074ed: 01 00                        	addl	%eax, (%eax)
  4074ef: 00 18                        	addb	%bl, (%eax)
  4074f1: 00 00                        	addb	%al, (%eax)
  4074f3: 00 1c 00                     	addb	%bl, (%eax,%eax)
  4074f6: 00 00                        	addb	%al, (%eax)
  4074f8: e8 ab ff ff 77               	calll	0x784074a8 <.debug_str+0x77ff54a8>
  4074fd: 00 00                        	addb	%al, (%eax)
  4074ff: 00 00                        	addb	%al, (%eax)
  407501: 43                           	incl	%ebx
  407502: 0e                           	pushl	%cs
  407503: 20 02                        	andb	%al, (%edx)
  407505: 41                           	incl	%ecx
  407506: 0a 0e                        	orb	(%esi), %cl
  407508: 04 44                        	addb	$68, %al
  40750a: 0b 00                        	orl	(%eax), %eax
  40750c: 14 00                        	adcb	$0, %al
  40750e: 00 00                        	addb	%al, (%eax)
  407510: 00 00                        	addb	%al, (%eax)
  407512: 00 00                        	addb	%al, (%eax)
  407514: 01 7a 52                     	addl	%edi, 82(%edx)
  407517: 00 01                        	addb	%al, (%ecx)
  407519: 7c 08                        	jl	0x407523 <.eh_frame+0x3f7>
  40751b: 01 1b                        	addl	%ebx, (%ebx)
  40751d: 0c 04                        	orb	$4, %al
  40751f: 04 88                        	addb	$-120, %al
  407521: 01 00                        	addl	%eax, (%eax)
  407523: 00 14 00                     	addb	%dl, (%eax,%eax)
  407526: 00 00                        	addb	%al, (%eax)
  407528: 1c 00                        	sbbb	$0, %al
  40752a: 00 00                        	addb	%al, (%eax)
  40752c: 34 ac                        	xorb	$-84, %al
  40752e: ff ff                        	<unknown>
  407530: 24 00                        	andb	$0, %al
  407532: 00 00                        	addb	%al, (%eax)
  407534: 00 43 0e                     	addb	%al, 14(%ebx)
  407537: 30 60 0e                     	xorb	%ah, 14(%eax)
  40753a: 04 00                        	addb	$0, %al
  40753c: 14 00                        	adcb	$0, %al
  40753e: 00 00                        	addb	%al, (%eax)
  407540: 00 00                        	addb	%al, (%eax)
  407542: 00 00                        	addb	%al, (%eax)
  407544: 01 7a 52                     	addl	%edi, 82(%edx)
  407547: 00 01                        	addb	%al, (%ecx)
  407549: 7c 08                        	jl	0x407553 <.eh_frame+0x427>
  40754b: 01 1b                        	addl	%ebx, (%ebx)
  40754d: 0c 04                        	orb	$4, %al
  40754f: 04 88                        	addb	$-120, %al
  407551: 01 00                        	addl	%eax, (%eax)
  407553: 00 3c 00                     	addb	%bh, (%eax,%eax)
  407556: 00 00                        	addb	%al, (%eax)
  407558: 1c 00                        	sbbb	$0, %al
  40755a: 00 00                        	addb	%al, (%eax)
  40755c: 34 ac                        	xorb	$-84, %al
  40755e: ff ff                        	<unknown>
  407560: 27                           	daa
  407561: 03 00                        	addl	(%eax), %eax
  407563: 00 00                        	addb	%al, (%eax)
  407565: 41                           	incl	%ecx
  407566: 0e                           	pushl	%cs
  407567: 08 85 02 41 0e 0c            	orb	%al, 202260738(%ebp)
  40756d: 87 03                        	xchgl	%eax, (%ebx)
  40756f: 41                           	incl	%ecx
  407570: 0e                           	pushl	%cs
  407571: 10 86 04 41 0e 14            	adcb	%al, 336478468(%esi)
  407577: 83 05 43 0e 50 03 26         	addl	$38, 55578179
  40757e: 01 0a                        	addl	%ecx, (%edx)
  407580: 0e                           	pushl	%cs
  407581: 14 41                        	adcb	$65, %al
  407583: c3                           	retl
  407584: 0e                           	pushl	%cs
  407585: 10 41 c6                     	adcb	%al, -58(%ecx)
  407588: 0e                           	pushl	%cs
  407589: 0c 41                        	orb	$65, %al
  40758b: c7 0e                        	<unknown>
  40758d: 08 41 c5                     	orb	%al, -59(%ecx)
  407590: 0e                           	pushl	%cs
  407591: 04 47                        	addb	$71, %al
  407593: 0b 3c 00                     	orl	(%eax,%eax), %edi
  407596: 00 00                        	addb	%al, (%eax)
  407598: 5c                           	popl	%esp
  407599: 00 00                        	addb	%al, (%eax)
  40759b: 00 24 af                     	addb	%ah, (%edi,%ebp,4)
  40759e: ff ff                        	<unknown>
  4075a0: 27                           	daa
  4075a1: 02 00                        	addb	(%eax), %al
  4075a3: 00 00                        	addb	%al, (%eax)
  4075a5: 41                           	incl	%ecx
  4075a6: 0e                           	pushl	%cs
  4075a7: 08 85 02 43 0e 0c            	orb	%al, 202261250(%ebp)
  4075ad: 87 03                        	xchgl	%eax, (%ebx)
  4075af: 41                           	incl	%ecx
  4075b0: 0e                           	pushl	%cs
  4075b1: 10 86 04 43 0e 14            	adcb	%al, 336478980(%esi)
  4075b7: 83 05 43 0e 40 02 ca         	addl	$-54, 37752387
  4075be: 0a 0e                        	orb	(%esi), %cl
  4075c0: 14 43                        	adcb	$67, %al
  4075c2: c3                           	retl
  4075c3: 0e                           	pushl	%cs
  4075c4: 10 41 c6                     	adcb	%al, -58(%ecx)
  4075c7: 0e                           	pushl	%cs
  4075c8: 0c 41                        	orb	$65, %al
  4075ca: c7 0e                        	<unknown>
  4075cc: 08 41 c5                     	orb	%al, -59(%ecx)
  4075cf: 0e                           	pushl	%cs
  4075d0: 04 45                        	addb	$69, %al
  4075d2: 0b 00                        	orl	(%eax), %eax
  4075d4: 3c 00                        	cmpb	$0, %al
  4075d6: 00 00                        	addb	%al, (%eax)
  4075d8: 9c                           	pushfl
  4075d9: 00 00                        	addb	%al, (%eax)
  4075db: 00 14 b1                     	addb	%dl, (%ecx,%esi,4)
  4075de: ff ff                        	<unknown>
  4075e0: 9d                           	popfl
  4075e1: 00 00                        	addb	%al, (%eax)
  4075e3: 00 00                        	addb	%al, (%eax)
  4075e5: 41                           	incl	%ecx
  4075e6: 0e                           	pushl	%cs
  4075e7: 08 87 02 44 0e 0c            	orb	%al, 202261506(%edi)
  4075ed: 86 03                        	xchgb	%al, (%ebx)
  4075ef: 41                           	incl	%ecx
  4075f0: 0e                           	pushl	%cs
  4075f1: 10 83 04 02 6b 0a            	adcb	%al, 174785028(%ebx)
  4075f7: c3                           	retl
  4075f8: 0e                           	pushl	%cs
  4075f9: 0c 41                        	orb	$65, %al
  4075fb: c6 0e                        	<unknown>
  4075fd: 08 41 c7                     	orb	%al, -57(%ecx)
  407600: 0e                           	pushl	%cs
  407601: 04 45                        	addb	$69, %al
  407603: 0b 59 0a                     	orl	10(%ecx), %ebx
  407606: c3                           	retl
  407607: 0e                           	pushl	%cs
  407608: 0c 46                        	orb	$70, %al
  40760a: c6 0e                        	<unknown>
  40760c: 08 41 c7                     	orb	%al, -57(%ecx)
  40760f: 0e                           	pushl	%cs
  407610: 04 41                        	addb	$65, %al
  407612: 0b 00                        	orl	(%eax), %eax
  407614: 44                           	incl	%esp
  407615: 00 00                        	addb	%al, (%eax)
  407617: 00 dc                        	addb	%bl, %ah
  407619: 00 00                        	addb	%al, (%eax)
  40761b: 00 74 b1 ff                  	addb	%dh, -1(%ecx,%esi,4)
  40761f: ff 5c 00 00                  	lcalll	*(%eax,%eax)
  407623: 00 00                        	addb	%al, (%eax)
  407625: 41                           	incl	%ecx
  407626: 0e                           	pushl	%cs
  407627: 08 87 02 41 0e 0c            	orb	%al, 202260738(%edi)
  40762d: 86 03                        	xchgb	%al, (%ebx)
  40762f: 43                           	incl	%ebx
  407630: 0e                           	pushl	%cs
  407631: 10 83 04 45 0e 20            	adcb	%al, 537806084(%ebx)
  407637: 02 40 0a                     	addb	10(%eax), %al
  40763a: 0e                           	pushl	%cs
  40763b: 10 43 c3                     	adcb	%al, -61(%ebx)
  40763e: 0e                           	pushl	%cs
  40763f: 0c 41                        	orb	$65, %al
  407641: c6 0e                        	<unknown>
  407643: 08 41 c7                     	orb	%al, -57(%ecx)
  407646: 0e                           	pushl	%cs
  407647: 04 41                        	addb	$65, %al
  407649: 0b 43 0e                     	orl	14(%ebx), %eax
  40764c: 10 46 c3                     	adcb	%al, -61(%esi)
  40764f: 0e                           	pushl	%cs
  407650: 0c 41                        	orb	$65, %al
  407652: c6 0e                        	<unknown>
  407654: 08 41 c7                     	orb	%al, -57(%ecx)
  407657: 0e                           	pushl	%cs
  407658: 04 00                        	addb	$0, %al
  40765a: 00 00                        	addb	%al, (%eax)
  40765c: 28 00                        	subb	%al, (%eax)
  40765e: 00 00                        	addb	%al, (%eax)
  407660: 24 01                        	andb	$1, %al
  407662: 00 00                        	addb	%al, (%eax)
  407664: 8c b1 ff ff 49 00            	<unknown>
  40766a: 00 00                        	addb	%al, (%eax)
  40766c: 00 41 0e                     	addb	%al, 14(%ecx)
  40766f: 08 86 02 43 0e 0c            	orb	%al, 202261250(%esi)
  407675: 83 03 45                     	addl	$69, (%ebx)
  407678: 0e                           	pushl	%cs
  407679: 20 6f 0a                     	andb	%ch, 10(%edi)
  40767c: 0e                           	pushl	%cs
  40767d: 0c 41                        	orb	$65, %al
  40767f: c3                           	retl
  407680: 0e                           	pushl	%cs
  407681: 08 41 c6                     	orb	%al, -58(%ecx)
  407684: 0e                           	pushl	%cs
  407685: 04 46                        	addb	$70, %al
  407687: 0b 28                        	orl	(%eax), %ebp
  407689: 00 00                        	addb	%al, (%eax)
  40768b: 00 50 01                     	addb	%dl, 1(%eax)
  40768e: 00 00                        	addb	%al, (%eax)
  407690: b0 b1                        	movb	$-79, %al
  407692: ff ff                        	<unknown>
  407694: 4b                           	decl	%ebx
  407695: 00 00                        	addb	%al, (%eax)
  407697: 00 00                        	addb	%al, (%eax)
  407699: 41                           	incl	%ecx
  40769a: 0e                           	pushl	%cs
  40769b: 08 86 02 43 0e 0c            	orb	%al, 202261250(%esi)
  4076a1: 83 03 43                     	addl	$67, (%ebx)
  4076a4: 0e                           	pushl	%cs
  4076a5: 20 7a 0a                     	andb	%bh, 10(%edx)
  4076a8: 0e                           	pushl	%cs
  4076a9: 0c 41                        	orb	$65, %al
  4076ab: c3                           	retl
  4076ac: 0e                           	pushl	%cs
  4076ad: 08 41 c6                     	orb	%al, -58(%ecx)
  4076b0: 0e                           	pushl	%cs
  4076b1: 04 41                        	addb	$65, %al
  4076b3: 0b 3c 00                     	orl	(%eax,%eax), %edi
  4076b6: 00 00                        	addb	%al, (%eax)
  4076b8: 7c 01                        	jl	0x4076bb <.eh_frame+0x58f>
  4076ba: 00 00                        	addb	%al, (%eax)
  4076bc: d4 b1                        	aam	$-79
  4076be: ff ff                        	<unknown>
  4076c0: 92                           	xchgl	%edx, %eax
  4076c1: 08 00                        	orb	%al, (%eax)
  4076c3: 00 00                        	addb	%al, (%eax)
  4076c5: 41                           	incl	%ecx
  4076c6: 0e                           	pushl	%cs
  4076c7: 08 85 02 42 0d 05            	orb	%al, 84754946(%ebp)
  4076cd: 46                           	incl	%esi
  4076ce: 87 03                        	xchgl	%eax, (%ebx)
  4076d0: 86 04 83                     	xchgb	%al, (%ebx,%eax,4)
  4076d3: 05 03 c9 02 0a               	addl	$167954691, %eax
  4076d8: c3                           	retl
  4076d9: 41                           	incl	%ecx
  4076da: c6 41 c7 41                  	movb	$65, -57(%ecx)
  4076de: c5 0c 04                     	ldsl	(%esp,%eax), %ecx
  4076e1: 04 4b                        	addb	$75, %al
  4076e3: 0b 03                        	orl	(%ebx), %eax
  4076e5: 22 01                        	andb	(%ecx), %al
  4076e7: 0a c3                        	orb	%bl, %al
  4076e9: 41                           	incl	%ecx
  4076ea: c6 41 c7 41                  	movb	$65, -57(%ecx)
  4076ee: c5 0c 04                     	ldsl	(%esp,%eax), %ecx
  4076f1: 04 4b                        	addb	$75, %al
  4076f3: 0b 2c 00                     	orl	(%eax,%eax), %ebp
  4076f6: 00 00                        	addb	%al, (%eax)
  4076f8: bc 01 00 00 34               	movl	$872415233, %esp
  4076fd: ba ff ff f5 00               	movl	$16121855, %edx
  407702: 00 00                        	addb	%al, (%eax)
  407704: 00 41 0e                     	addb	%al, 14(%ecx)
  407707: 08 85 02 42 0d 05            	orb	%al, 84754946(%ebp)
  40770d: 46                           	incl	%esi
  40770e: 87 03                        	xchgl	%eax, (%ebx)
  407710: 86 04 83                     	xchgb	%al, (%ebx,%eax,4)
  407713: 05 02 46 0a c3               	addl	$3272230402, %eax
  407718: 41                           	incl	%ecx
  407719: c6 41 c7 41                  	movb	$65, -57(%ecx)
  40771d: c5 0c 04                     	ldsl	(%esp,%eax), %ecx
  407720: 04 46                        	addb	$70, %al
  407722: 0b 00                        	orl	(%eax), %eax
  407724: 40                           	incl	%eax
  407725: 00 00                        	addb	%al, (%eax)
  407727: 00 ec                        	addb	%ch, %ah
  407729: 01 00                        	addl	%eax, (%eax)
  40772b: 00 04 bb                     	addb	%al, (%ebx,%edi,4)
  40772e: ff ff                        	<unknown>
  407730: 57                           	pushl	%edi
  407731: 00 00                        	addb	%al, (%eax)
  407733: 00 00                        	addb	%al, (%eax)
  407735: 41                           	incl	%ecx
  407736: 0e                           	pushl	%cs
  407737: 08 87 02 41 0e 0c            	orb	%al, 202260738(%edi)
  40773d: 86 03                        	xchgb	%al, (%ebx)
  40773f: 41                           	incl	%ecx
  407740: 0e                           	pushl	%cs
  407741: 10 83 04 43 0e 20            	adcb	%al, 537805572(%ebx)
  407747: 4f                           	decl	%edi
  407748: 0a 0e                        	orb	(%esi), %cl
  40774a: 10 41 c3                     	adcb	%al, -61(%ecx)
  40774d: 0e                           	pushl	%cs
  40774e: 0c 41                        	orb	$65, %al
  407750: c6 0e                        	<unknown>
  407752: 08 41 c7                     	orb	%al, -57(%ecx)
  407755: 0e                           	pushl	%cs
  407756: 04 48                        	addb	$72, %al
  407758: 0b 6f 0e                     	orl	14(%edi), %ebp
  40775b: 10 41 c3                     	adcb	%al, -61(%ecx)
  40775e: 0e                           	pushl	%cs
  40775f: 0c 41                        	orb	$65, %al
  407761: c6 0e                        	<unknown>
  407763: 08 41 c7                     	orb	%al, -57(%ecx)
  407766: 0e                           	pushl	%cs
  407767: 04 14                        	addb	$20, %al
  407769: 00 00                        	addb	%al, (%eax)
  40776b: 00 00                        	addb	%al, (%eax)
  40776d: 00 00                        	addb	%al, (%eax)
  40776f: 00 01                        	addb	%al, (%ecx)
  407771: 7a 52                        	jp	0x4077c5 <.eh_frame+0x699>
  407773: 00 01                        	addb	%al, (%ecx)
  407775: 7c 08                        	jl	0x40777f <.eh_frame+0x653>
  407777: 01 1b                        	addl	%ebx, (%ebx)
  407779: 0c 04                        	orb	$4, %al
  40777b: 04 88                        	addb	$-120, %al
  40777d: 01 00                        	addl	%eax, (%eax)
  40777f: 00 2c 00                     	addb	%ch, (%eax,%eax)
  407782: 00 00                        	addb	%al, (%eax)
  407784: 1c 00                        	sbbb	$0, %al
  407786: 00 00                        	addb	%al, (%eax)
  407788: 08 bb ff ff 12 04            	orb	%bh, 68354047(%ebx)
  40778e: 00 00                        	addb	%al, (%eax)
  407790: 00 41 0e                     	addb	%al, 14(%ecx)
  407793: 08 85 02 42 0d 05            	orb	%al, 84754946(%ebp)
  407799: 46                           	incl	%esi
  40779a: 87 03                        	xchgl	%eax, (%ebx)
  40779c: 86 04 83                     	xchgb	%al, (%ebx,%eax,4)
  40779f: 05 02 b4 0a c3               	addl	$3272258562, %eax
  4077a4: 41                           	incl	%ecx
  4077a5: c6 41 c7 41                  	movb	$65, -57(%ecx)
  4077a9: c5 0c 04                     	ldsl	(%esp,%eax), %ecx
  4077ac: 04 48                        	addb	$72, %al
  4077ae: 0b 00                        	orl	(%eax), %eax
  4077b0: 14 00                        	adcb	$0, %al
  4077b2: 00 00                        	addb	%al, (%eax)
  4077b4: 00 00                        	addb	%al, (%eax)
  4077b6: 00 00                        	addb	%al, (%eax)
  4077b8: 01 7a 52                     	addl	%edi, 82(%edx)
  4077bb: 00 01                        	addb	%al, (%ecx)
  4077bd: 7c 08                        	jl	0x4077c7 <.eh_frame+0x69b>
  4077bf: 01 1b                        	addl	%ebx, (%ebx)
  4077c1: 0c 04                        	orb	$4, %al
  4077c3: 04 88                        	addb	$-120, %al
  4077c5: 01 00                        	addl	%eax, (%eax)
  4077c7: 00 40 00                     	addb	%al, (%eax)
  4077ca: 00 00                        	addb	%al, (%eax)
  4077cc: 1c 00                        	sbbb	$0, %al
  4077ce: 00 00                        	addb	%al, (%eax)
  4077d0: e0 be                        	loopne	0x407790 <.eh_frame+0x664>
  4077d2: ff ff                        	<unknown>
  4077d4: e9 00 00 00 00               	jmp	0x4077d9 <.eh_frame+0x6ad>
  4077d9: 41                           	incl	%ecx
  4077da: 0e                           	pushl	%cs
  4077db: 08 86 02 41 0e 0c            	orb	%al, 202260738(%esi)
  4077e1: 83 03 48                     	addl	$72, (%ebx)
  4077e4: 0e                           	pushl	%cs
  4077e5: e0 02                        	loopne	0x4077e9 <.eh_frame+0x6bd>
  4077e7: 50                           	pushl	%eax
  4077e8: 0e                           	pushl	%cs
  4077e9: d8 02                        	fadds	(%edx)
  4077eb: 43                           	incl	%ebx
  4077ec: 0e                           	pushl	%cs
  4077ed: e0 02                        	loopne	0x4077f1 <.eh_frame+0x6c5>
  4077ef: 02 57 0a                     	addb	10(%edi), %dl
  4077f2: 0e                           	pushl	%cs
  4077f3: 0c 43                        	orb	$67, %al
  4077f5: c3                           	retl
  4077f6: 0e                           	pushl	%cs
  4077f7: 08 41 c6                     	orb	%al, -58(%ecx)
  4077fa: 0e                           	pushl	%cs
  4077fb: 04 48                        	addb	$72, %al
  4077fd: 0b 4d 0a                     	orl	10(%ebp), %ecx
  407800: 0e                           	pushl	%cs
  407801: 0c 43                        	orb	$67, %al
  407803: c3                           	retl
  407804: 0e                           	pushl	%cs
  407805: 08 41 c6                     	orb	%al, -58(%ecx)
  407808: 0e                           	pushl	%cs
  407809: 04 47                        	addb	$71, %al
  40780b: 0b 4c 00 00                  	orl	(%eax,%eax), %ecx
  40780f: 00 60 00                     	addb	%ah, (%eax)
  407812: 00 00                        	addb	%al, (%eax)
  407814: 8c bf ff ff b8 00            	<unknown>
  40781a: 00 00                        	addb	%al, (%eax)
  40781c: 00 41 0e                     	addb	%al, 14(%ecx)
  40781f: 08 86 02 41 0e 0c            	orb	%al, 202260738(%esi)
  407825: 83 03 48                     	addl	$72, (%ebx)
  407828: 0e                           	pushl	%cs
  407829: e0 02                        	loopne	0x40782d <.eh_frame+0x701>
  40782b: 50                           	pushl	%eax
  40782c: 0e                           	pushl	%cs
  40782d: d8 02                        	fadds	(%edx)
  40782f: 43                           	incl	%ebx
  407830: 0e                           	pushl	%cs
  407831: e0 02                        	loopne	0x407835 <.eh_frame+0x709>
  407833: 02 57 0a                     	addb	10(%edi), %dl
  407836: 0e                           	pushl	%cs
  407837: 0c 43                        	orb	$67, %al
  407839: c3                           	retl
  40783a: 0e                           	pushl	%cs
  40783b: 08 41 c6                     	orb	%al, -58(%ecx)
  40783e: 0e                           	pushl	%cs
  40783f: 04 48                        	addb	$72, %al
  407841: 0b 4d 0a                     	orl	10(%ebp), %ecx
  407844: 0e                           	pushl	%cs
  407845: 0c 43                        	orb	$67, %al
  407847: c3                           	retl
  407848: 0e                           	pushl	%cs
  407849: 08 41 c6                     	orb	%al, -58(%ecx)
  40784c: 0e                           	pushl	%cs
  40784d: 04 47                        	addb	$71, %al
  40784f: 0b 5b 0e                     	orl	14(%ebx), %ebx
  407852: 0c 43                        	orb	$67, %al
  407854: c3                           	retl
  407855: 0e                           	pushl	%cs
  407856: 08 41 c6                     	orb	%al, -58(%ecx)
  407859: 0e                           	pushl	%cs
  40785a: 04 00                        	addb	$0, %al
  40785c: 54                           	pushl	%esp
  40785d: 00 00                        	addb	%al, (%eax)
  40785f: 00 b0 00 00 00 fc            	addb	%dh, -67108864(%eax)
  407865: bf ff ff ff 01               	movl	$33554431, %edi
  40786a: 00 00                        	addb	%al, (%eax)
  40786c: 00 41 0e                     	addb	%al, 14(%ecx)
  40786f: 08 85 02 41 0e 0c            	orb	%al, 202260738(%ebp)
  407875: 87 03                        	xchgl	%eax, (%ebx)
  407877: 41                           	incl	%ecx
  407878: 0e                           	pushl	%cs
  407879: 10 86 04 41 0e 14            	adcb	%al, 336478468(%esi)
  40787f: 83 05 46 0e c0 02 03         	addl	$3, 46140998
  407886: 53                           	pushl	%ebx
  407887: 01 0a                        	addl	%ecx, (%edx)
  407889: 0e                           	pushl	%cs
  40788a: 14 43                        	adcb	$67, %al
  40788c: c3                           	retl
  40788d: 0e                           	pushl	%cs
  40788e: 10 41 c6                     	adcb	%al, -58(%ecx)
  407891: 0e                           	pushl	%cs
  407892: 0c 41                        	orb	$65, %al
  407894: c7 0e                        	<unknown>
  407896: 08 41 c5                     	orb	%al, -59(%ecx)
  407899: 0e                           	pushl	%cs
  40789a: 04 45                        	addb	$69, %al
  40789c: 0b 02                        	orl	(%edx), %eax
  40789e: 53                           	pushl	%ebx
  40789f: 0a 0e                        	orb	(%esi), %cl
  4078a1: 14 43                        	adcb	$67, %al
  4078a3: c3                           	retl
  4078a4: 0e                           	pushl	%cs
  4078a5: 10 41 c6                     	adcb	%al, -58(%ecx)
  4078a8: 0e                           	pushl	%cs
  4078a9: 0c 41                        	orb	$65, %al
  4078ab: c7 0e                        	<unknown>
  4078ad: 08 41 c5                     	orb	%al, -59(%ecx)
  4078b0: 0e                           	pushl	%cs
  4078b1: 04 47                        	addb	$71, %al
  4078b3: 0b 20                        	orl	(%eax), %esp
  4078b5: 00 00                        	addb	%al, (%eax)
  4078b7: 00 08                        	addb	%cl, (%eax)
  4078b9: 01 00                        	addl	%eax, (%eax)
  4078bb: 00 a4 c1 ff ff 4f 00         	addb	%ah, 5242879(%ecx,%eax,8)
  4078c2: 00 00                        	addb	%al, (%eax)
  4078c4: 00 41 0e                     	addb	%al, 14(%ecx)
  4078c7: 08 83 02 43 0e 10            	orb	%al, 269370114(%ebx)
  4078cd: 76 0a                        	jbe	0x4078d9 <.eh_frame+0x7ad>
  4078cf: 0e                           	pushl	%cs
  4078d0: 08 43 c3                     	orb	%al, -61(%ebx)
  4078d3: 0e                           	pushl	%cs
  4078d4: 04 43                        	addb	$67, %al
  4078d6: 0b 00                        	orl	(%eax), %eax
  4078d8: 28 00                        	subb	%al, (%eax)
  4078da: 00 00                        	addb	%al, (%eax)
  4078dc: 2c 01                        	subb	$1, %al
  4078de: 00 00                        	addb	%al, (%eax)
  4078e0: d0 c1                        	rolb	%cl
  4078e2: ff ff                        	<unknown>
  4078e4: 42                           	incl	%edx
  4078e5: 00 00                        	addb	%al, (%eax)
  4078e7: 00 00                        	addb	%al, (%eax)
  4078e9: 41                           	incl	%ecx
  4078ea: 0e                           	pushl	%cs
  4078eb: 08 83 02 43 0e 20            	orb	%al, 537805570(%ebx)
  4078f1: 56                           	pushl	%esi
  4078f2: 0e                           	pushl	%cs
  4078f3: 1c 43                        	sbbb	$67, %al
  4078f5: 0e                           	pushl	%cs
  4078f6: 20 51 0a                     	andb	%dl, 10(%ecx)
  4078f9: 0e                           	pushl	%cs
  4078fa: 08 41 c3                     	orb	%al, -61(%ecx)
  4078fd: 0e                           	pushl	%cs
  4078fe: 04 41                        	addb	$65, %al
  407900: 0b 00                        	orl	(%eax), %eax
  407902: 00 00                        	addb	%al, (%eax)
  407904: 2c 00                        	subb	$0, %al
  407906: 00 00                        	addb	%al, (%eax)
  407908: 58                           	popl	%eax
  407909: 01 00                        	addl	%eax, (%eax)
  40790b: 00 f4                        	addb	%dh, %ah
  40790d: c1 ff ff                     	sarl	$255, %edi
  407910: 5f                           	popl	%edi
  407911: 00 00                        	addb	%al, (%eax)
  407913: 00 00                        	addb	%al, (%eax)
  407915: 41                           	incl	%ecx
  407916: 0e                           	pushl	%cs
  407917: 08 83 02 43 0e 20            	orb	%al, 537805570(%ebx)
  40791d: 56                           	pushl	%esi
  40791e: 0e                           	pushl	%cs
  40791f: 1c 43                        	sbbb	$67, %al
  407921: 0e                           	pushl	%cs
  407922: 20 52 0a                     	andb	%dl, 10(%edx)
  407925: 0e                           	pushl	%cs
  407926: 08 41 c3                     	orb	%al, -61(%ecx)
  407929: 0e                           	pushl	%cs
  40792a: 04 48                        	addb	$72, %al
  40792c: 0b 65 0e                     	orl	14(%ebp), %esp
  40792f: 08 41 c3                     	orb	%al, -61(%ecx)
  407932: 0e                           	pushl	%cs
  407933: 04 18                        	addb	$24, %al
  407935: 00 00                        	addb	%al, (%eax)
  407937: 00 88 01 00 00 24            	addb	%cl, 603979777(%eax)
  40793d: c2 ff ff                     	retl	$-1
  407940: 27                           	daa
  407941: 00 00                        	addb	%al, (%eax)
  407943: 00 00                        	addb	%al, (%eax)
  407945: 43                           	incl	%ebx
  407946: 0e                           	pushl	%cs
  407947: 10 51 0a                     	adcb	%dl, 10(%ecx)
  40794a: 0e                           	pushl	%cs
  40794b: 04 41                        	addb	$65, %al
  40794d: 0b 00                        	orl	(%eax), %eax
  40794f: 00 34 00                     	addb	%dh, (%eax,%eax)
  407952: 00 00                        	addb	%al, (%eax)
  407954: a4                           	movsb	(%esi), %es:(%edi)
  407955: 01 00                        	addl	%eax, (%eax)
  407957: 00 38                        	addb	%bh, (%eax)
  407959: c2 ff ff                     	retl	$-1
  40795c: 71 00                        	jno	0x40795e <.eh_frame+0x832>
  40795e: 00 00                        	addb	%al, (%eax)
  407960: 00 41 0e                     	addb	%al, 14(%ecx)
  407963: 08 86 02 41 0e 0c            	orb	%al, 202260738(%esi)
  407969: 83 03 43                     	addl	$67, (%ebx)
  40796c: 0e                           	pushl	%cs
  40796d: 20 02                        	andb	%al, (%edx)
  40796f: 52                           	pushl	%edx
  407970: 0a 0e                        	orb	(%esi), %cl
  407972: 0c 41                        	orb	$65, %al
  407974: c3                           	retl
  407975: 0e                           	pushl	%cs
  407976: 08 41 c6                     	orb	%al, -58(%ecx)
  407979: 0e                           	pushl	%cs
  40797a: 04 47                        	addb	$71, %al
  40797c: 0b 4e 0e                     	orl	14(%esi), %ecx
  40797f: 0c 41                        	orb	$65, %al
  407981: c3                           	retl
  407982: 0e                           	pushl	%cs
  407983: 08 41 c6                     	orb	%al, -58(%ecx)
  407986: 0e                           	pushl	%cs
  407987: 04 14                        	addb	$20, %al
  407989: 00 00                        	addb	%al, (%eax)
  40798b: 00 00                        	addb	%al, (%eax)
  40798d: 00 00                        	addb	%al, (%eax)
  40798f: 00 01                        	addb	%al, (%ecx)
  407991: 7a 52                        	jp	0x4079e5 <.eh_frame+0x8b9>
  407993: 00 01                        	addb	%al, (%ecx)
  407995: 7c 08                        	jl	0x40799f <.eh_frame+0x873>
  407997: 01 1b                        	addl	%ebx, (%ebx)
  407999: 0c 04                        	orb	$4, %al
  40799b: 04 88                        	addb	$-120, %al
  40799d: 01 00                        	addl	%eax, (%eax)
  40799f: 00 3c 00                     	addb	%bh, (%eax,%eax)
  4079a2: 00 00                        	addb	%al, (%eax)
  4079a4: 1c 00                        	sbbb	$0, %al
  4079a6: 00 00                        	addb	%al, (%eax)
  4079a8: 68 c2 ff ff b3               	pushl	$3019898818
  4079ad: 00 00                        	addb	%al, (%eax)
  4079af: 00 00                        	addb	%al, (%eax)
  4079b1: 41                           	incl	%ecx
  4079b2: 0e                           	pushl	%cs
  4079b3: 08 85 02 41 0e 0c            	orb	%al, 202260738(%ebp)
  4079b9: 87 03                        	xchgl	%eax, (%ebx)
  4079bb: 41                           	incl	%ecx
  4079bc: 0e                           	pushl	%cs
  4079bd: 10 86 04 41 0e 14            	adcb	%al, 336478468(%esi)
  4079c3: 83 05 43 0e 1c 02 92         	addl	$-110, 35393091
  4079ca: 0a 0e                        	orb	(%esi), %cl
  4079cc: 14 41                        	adcb	$65, %al
  4079ce: c3                           	retl
  4079cf: 0e                           	pushl	%cs
  4079d0: 10 41 c6                     	adcb	%al, -58(%ecx)
  4079d3: 0e                           	pushl	%cs
  4079d4: 0c 41                        	orb	$65, %al
  4079d6: c7 0e                        	<unknown>
  4079d8: 08 41 c5                     	orb	%al, -59(%ecx)
  4079db: 0e                           	pushl	%cs
  4079dc: 04 43                        	addb	$67, %al
  4079de: 0b 00                        	orl	(%eax), %eax
  4079e0: 14 00                        	adcb	$0, %al
  4079e2: 00 00                        	addb	%al, (%eax)
  4079e4: 00 00                        	addb	%al, (%eax)
  4079e6: 00 00                        	addb	%al, (%eax)
  4079e8: 01 7a 52                     	addl	%edi, 82(%edx)
  4079eb: 00 01                        	addb	%al, (%ecx)
  4079ed: 7c 08                        	jl	0x4079f7 <.eh_frame+0x8cb>
  4079ef: 01 1b                        	addl	%ebx, (%ebx)
  4079f1: 0c 04                        	orb	$4, %al
  4079f3: 04 88                        	addb	$-120, %al
  4079f5: 01 00                        	addl	%eax, (%eax)
  4079f7: 00 54 00 00                  	addb	%dl, (%eax,%eax)
  4079fb: 00 1c 00                     	addb	%bl, (%eax,%eax)
  4079fe: 00 00                        	addb	%al, (%eax)
  407a00: d0 c2                        	rolb	%dl
  407a02: ff ff                        	<unknown>
  407a04: 77 00                        	ja	0x407a06 <.eh_frame+0x8da>
  407a06: 00 00                        	addb	%al, (%eax)
  407a08: 00 41 0e                     	addb	%al, 14(%ecx)
  407a0b: 08 87 02 41 0e 0c            	orb	%al, 202260738(%edi)
  407a11: 86 03                        	xchgb	%al, (%ebx)
  407a13: 41                           	incl	%ecx
  407a14: 0e                           	pushl	%cs
  407a15: 10 83 04 43 0e 30            	adcb	%al, 806241028(%ebx)
  407a1b: 78 0a                        	js	0x407a27 <.eh_frame+0x8fb>
  407a1d: 0e                           	pushl	%cs
  407a1e: 10 43 c3                     	adcb	%al, -61(%ebx)
  407a21: 0e                           	pushl	%cs
  407a22: 0c 41                        	orb	$65, %al
  407a24: c6 0e                        	<unknown>
  407a26: 08 41 c7                     	orb	%al, -57(%ecx)
  407a29: 0e                           	pushl	%cs
  407a2a: 04 45                        	addb	$69, %al
  407a2c: 0b 54 0a 0e                  	orl	14(%edx,%ecx), %edx
  407a30: 10 41 c3                     	adcb	%al, -61(%ecx)
  407a33: 0e                           	pushl	%cs
  407a34: 0c 41                        	orb	$65, %al
  407a36: c6 0e                        	<unknown>
  407a38: 08 41 c7                     	orb	%al, -57(%ecx)
  407a3b: 0e                           	pushl	%cs
  407a3c: 04 41                        	addb	$65, %al
  407a3e: 0b 53 0e                     	orl	14(%ebx), %edx
  407a41: 10 41 c3                     	adcb	%al, -61(%ecx)
  407a44: 0e                           	pushl	%cs
  407a45: 0c 41                        	orb	$65, %al
  407a47: c6 0e                        	<unknown>
  407a49: 08 41 c7                     	orb	%al, -57(%ecx)
  407a4c: 0e                           	pushl	%cs
  407a4d: 04 00                        	addb	$0, %al
  407a4f: 00 14 00                     	addb	%dl, (%eax,%eax)
  407a52: 00 00                        	addb	%al, (%eax)
  407a54: 00 00                        	addb	%al, (%eax)
  407a56: 00 00                        	addb	%al, (%eax)
  407a58: 01 7a 52                     	addl	%edi, 82(%edx)
  407a5b: 00 01                        	addb	%al, (%ecx)
  407a5d: 7c 08                        	jl	0x407a67 <.eh_frame+0x93b>
  407a5f: 01 1b                        	addl	%ebx, (%ebx)
  407a61: 0c 04                        	orb	$4, %al
  407a63: 04 88                        	addb	$-120, %al
  407a65: 01 00                        	addl	%eax, (%eax)
  407a67: 00 50 00                     	addb	%dl, (%eax)
  407a6a: 00 00                        	addb	%al, (%eax)
  407a6c: 1c 00                        	sbbb	$0, %al
  407a6e: 00 00                        	addb	%al, (%eax)
  407a70: e0 c2                        	loopne	0x407a34 <.eh_frame+0x908>
  407a72: ff ff                        	<unknown>
  407a74: de 00                        	fiadds	(%eax)
  407a76: 00 00                        	addb	%al, (%eax)
  407a78: 00 41 0e                     	addb	%al, 14(%ecx)
  407a7b: 08 85 02 41 0e 0c            	orb	%al, 202260738(%ebp)
  407a81: 87 03                        	xchgl	%eax, (%ebx)
  407a83: 41                           	incl	%ecx
  407a84: 0e                           	pushl	%cs
  407a85: 10 86 04 41 0e 14            	adcb	%al, 336478468(%esi)
  407a8b: 83 05 43 0e 30 02 a5         	addl	$-91, 36703811
  407a92: 0a 0e                        	orb	(%esi), %cl
  407a94: 14 43                        	adcb	$67, %al
  407a96: c3                           	retl
  407a97: 0e                           	pushl	%cs
  407a98: 10 41 c6                     	adcb	%al, -58(%ecx)
  407a9b: 0e                           	pushl	%cs
  407a9c: 0c 41                        	orb	$65, %al
  407a9e: c7 0e                        	<unknown>
  407aa0: 08 41 c5                     	orb	%al, -59(%ecx)
  407aa3: 0e                           	pushl	%cs
  407aa4: 04 46                        	addb	$70, %al
  407aa6: 0b 5f 0e                     	orl	14(%edi), %ebx
  407aa9: 14 41                        	adcb	$65, %al
  407aab: c3                           	retl
  407aac: 0e                           	pushl	%cs
  407aad: 10 41 c6                     	adcb	%al, -58(%ecx)
  407ab0: 0e                           	pushl	%cs
  407ab1: 0c 43                        	orb	$67, %al
  407ab3: c7 0e                        	<unknown>
  407ab5: 08 41 c5                     	orb	%al, -59(%ecx)
  407ab8: 0e                           	pushl	%cs
  407ab9: 04 00                        	addb	$0, %al
  407abb: 00 00                        	addb	%al, (%eax)

00407abc <___FRAME_END__>:
  407abc: 00 00                        	addb	%al, (%eax)
  407abe: 00 00                        	addb	%al, (%eax)
  407ac0: 14 00                        	adcb	$0, %al
  407ac2: 00 00                        	addb	%al, (%eax)
  407ac4: 00 00                        	addb	%al, (%eax)
  407ac6: 00 00                        	addb	%al, (%eax)
  407ac8: 01 7a 52                     	addl	%edi, 82(%edx)
  407acb: 00 01                        	addb	%al, (%ecx)
  407acd: 7c 08                        	jl	0x407ad7 <___FRAME_END__+0x1b>
  407acf: 01 1b                        	addl	%ebx, (%ebx)
  407ad1: 0c 04                        	orb	$4, %al
  407ad3: 04 88                        	addb	$-120, %al
  407ad5: 01 00                        	addl	%eax, (%eax)
  407ad7: 00 10                        	addb	%dl, (%eax)
  407ad9: 00 00                        	addb	%al, (%eax)
  407adb: 00 1c 00                     	addb	%bl, (%eax,%eax)
  407ade: 00 00                        	addb	%al, (%eax)
  407ae0: 00 c5                        	addb	%al, %ch
  407ae2: ff ff                        	<unknown>
  407ae4: 05 00 00 00 00               	addl	$0, %eax
  407ae9: 00 00                        	addb	%al, (%eax)
  407aeb: 00                           	<unknown>

Disassembly of section .idata:

00409000 <__head_libkernel32_a>:
  409000: 50                           	pushl	%eax
  409001: 90                           	nop
		...
  40900a: 00 00                        	addb	%al, (%eax)
  40900c: 68 95 00 00 3c               	pushl	$1006633109
  409011: 91                           	xchgl	%ecx, %eax
  409012: 00 00                        	addb	%al, (%eax)

00409014 <__head_libmoldname_a>:
  409014: 9c                           	pushfl
  409015: 90                           	nop
		...
  40901e: 00 00                        	addb	%al, (%eax)
  409020: 80 95 00 00 88 91 00         	adcb	$0, -1853358080(%ebp)
  409027: 00 a8 90 00 00 00            	addb	%ch, 144(%eax)

00409028 <__head_libmsvcrt_a>:
  409028: a8 90                        	testb	$-112, %al
		...
  409032: 00 00                        	addb	%al, (%eax)
  409034: 1c 96                        	sbbb	$-106, %al
  409036: 00 00                        	addb	%al, (%eax)
  409038: 94                           	xchgl	%esp, %eax
  409039: 91                           	xchgl	%ecx, %eax
		...
  40904e: 00 00                        	addb	%al, (%eax)

00409050 <.idata$4>:
  409050: 28 92 00 00 40 92            	subb	%dl, -1841299456(%edx)
  409056: 00 00                        	addb	%al, (%eax)
  409058: 58                           	popl	%eax
  409059: 92                           	xchgl	%edx, %eax
  40905a: 00 00                        	addb	%al, (%eax)
  40905c: 66 92                        	xchgw	%dx, %ax
  40905e: 00 00                        	addb	%al, (%eax)
  409060: 72 92                        	jb	0x408ff4 <__bss_end__+0xf80>
  409062: 00 00                        	addb	%al, (%eax)
  409064: 84 92 00 00 94 92            	testb	%dl, -1835794432(%edx)
  40906a: 00 00                        	addb	%al, (%eax)
  40906c: a2 92 00 00 b4               	movb	%al, 3019899026
  409071: 92                           	xchgl	%edx, %eax
  409072: 00 00                        	addb	%al, (%eax)
  409074: c4 92 00 00 d8 92            	lesl	-1831337984(%edx), %edx
  40907a: 00 00                        	addb	%al, (%eax)
  40907c: ea 92 00 00 06 93 00         	ljmpl	$147, $100663442
  409083: 00 1e                        	addb	%bl, (%esi)
  409085: 93                           	xchgl	%ebx, %eax
  409086: 00 00                        	addb	%al, (%eax)
  409088: 2e 93                        	xchgl	%ebx, %eax
  40908a: 00 00                        	addb	%al, (%eax)
  40908c: 4c                           	decl	%esp
  40908d: 93                           	xchgl	%ebx, %eax
  40908e: 00 00                        	addb	%al, (%eax)
  409090: 5a                           	popl	%edx
  409091: 93                           	xchgl	%ebx, %eax
  409092: 00 00                        	addb	%al, (%eax)
  409094: 6c                           	insb	%dx, %es:(%edi)
  409095: 93                           	xchgl	%ebx, %eax
  409096: 00 00                        	addb	%al, (%eax)
  409098: 00 00                        	addb	%al, (%eax)
  40909a: 00 00                        	addb	%al, (%eax)

0040909c <.idata$4>:
  40909c: 7c 93                        	jl	0x409031 <__head_libmsvcrt_a+0x9>
  40909e: 00 00                        	addb	%al, (%eax)
  4090a0: 86 93 00 00 00 00            	xchgb	%dl, (%ebx)
  4090a6: 00 00                        	addb	%al, (%eax)

004090a8 <.idata$4>:
  4090a8: 92                           	xchgl	%edx, %eax
  4090a9: 93                           	xchgl	%ebx, %eax
  4090aa: 00 00                        	addb	%al, (%eax)
  4090ac: a2 93 00 00 b2               	movb	%al, 2986344595
  4090b1: 93                           	xchgl	%ebx, %eax
  4090b2: 00 00                        	addb	%al, (%eax)
  4090b4: c2 93 00                     	retl	$147
  4090b7: 00 d0                        	addb	%dl, %al
  4090b9: 93                           	xchgl	%ebx, %eax
  4090ba: 00 00                        	addb	%al, (%eax)
  4090bc: e2 93                        	loop	0x409051 <.idata$4+0x1>
  4090be: 00 00                        	addb	%al, (%eax)
  4090c0: ec                           	inb	%dx, %al
  4090c1: 93                           	xchgl	%ebx, %eax
  4090c2: 00 00                        	addb	%al, (%eax)
  4090c4: f6 93 00 00 02 94            	notb	-1811808256(%ebx)
  4090ca: 00 00                        	addb	%al, (%eax)
  4090cc: 0e                           	pushl	%cs
  4090cd: 94                           	xchgl	%esp, %eax
  4090ce: 00 00                        	addb	%al, (%eax)
  4090d0: 16                           	pushl	%ss
  4090d1: 94                           	xchgl	%esp, %eax
  4090d2: 00 00                        	addb	%al, (%eax)
  4090d4: 22 94 00 00 2c 94 00         	andb	9710592(%eax,%eax), %dl
  4090db: 00 36                        	addb	%dh, (%esi)
  4090dd: 94                           	xchgl	%esp, %eax
  4090de: 00 00                        	addb	%al, (%eax)
  4090e0: 40                           	incl	%eax
  4090e1: 94                           	xchgl	%esp, %eax
  4090e2: 00 00                        	addb	%al, (%eax)
  4090e4: 4c                           	decl	%esp
  4090e5: 94                           	xchgl	%esp, %eax
  4090e6: 00 00                        	addb	%al, (%eax)
  4090e8: 54                           	pushl	%esp
  4090e9: 94                           	xchgl	%esp, %eax
  4090ea: 00 00                        	addb	%al, (%eax)
  4090ec: 5e                           	popl	%esi
  4090ed: 94                           	xchgl	%esp, %eax
  4090ee: 00 00                        	addb	%al, (%eax)
  4090f0: 68 94 00 00 72               	pushl	$1912602772
  4090f5: 94                           	xchgl	%esp, %eax
  4090f6: 00 00                        	addb	%al, (%eax)
  4090f8: 7c 94                        	jl	0x40908e <.idata$4+0x3e>
  4090fa: 00 00                        	addb	%al, (%eax)
  4090fc: 88 94 00 00 92 94 00         	movb	%dl, 9736704(%eax,%eax)
  409103: 00 9c 94 00 00 a6 94         	addb	%bl, -1801060352(%esp,%edx,4)
  40910a: 00 00                        	addb	%al, (%eax)
  40910c: ae                           	scasb	%es:(%edi), %al
  40910d: 94                           	xchgl	%esp, %eax
  40910e: 00 00                        	addb	%al, (%eax)
  409110: b6 94                        	movb	$-108, %dh
  409112: 00 00                        	addb	%al, (%eax)
  409114: c2 94 00                     	retl	$148
  409117: 00 cc                        	addb	%cl, %ah
  409119: 94                           	xchgl	%esp, %eax
  40911a: 00 00                        	addb	%al, (%eax)
  40911c: d6                           	salc
  40911d: 94                           	xchgl	%esp, %eax
  40911e: 00 00                        	addb	%al, (%eax)
  409120: e0 94                        	loopne	0x4090b6 <.idata$4+0xe>
  409122: 00 00                        	addb	%al, (%eax)
  409124: ea 94 00 00 f4 94 00         	ljmpl	$148, $4093640852
  40912b: 00 00                        	addb	%al, (%eax)
  40912d: 95                           	xchgl	%ebp, %eax
  40912e: 00 00                        	addb	%al, (%eax)
  409130: 0c 95                        	orb	$-107, %al
  409132: 00 00                        	addb	%al, (%eax)
  409134: 14 95                        	adcb	$-107, %al
  409136: 00 00                        	addb	%al, (%eax)
  409138: 00 00                        	addb	%al, (%eax)
  40913a: 00 00                        	addb	%al, (%eax)

0040913c <__imp__DeleteCriticalSection@4>:
  40913c: 28 92 00 00 40 92            	subb	%dl, -1841299456(%edx)

00409140 <__imp__EnterCriticalSection@4>:
  409140: 40                           	incl	%eax
  409141: 92                           	xchgl	%edx, %eax
  409142: 00 00                        	addb	%al, (%eax)

00409144 <__imp__ExitProcess@4>:
  409144: 58                           	popl	%eax
  409145: 92                           	xchgl	%edx, %eax
  409146: 00 00                        	addb	%al, (%eax)

00409148 <__imp__FindClose@4>:
  409148: 66 92                        	xchgw	%dx, %ax
  40914a: 00 00                        	addb	%al, (%eax)

0040914c <__imp__FindFirstFileA@8>:
  40914c: 72 92                        	jb	0x4090e0 <.idata$4+0x38>
  40914e: 00 00                        	addb	%al, (%eax)

00409150 <__imp__FindNextFileA@8>:
  409150: 84 92 00 00 94 92            	testb	%dl, -1835794432(%edx)

00409154 <__imp__FreeLibrary@4>:
  409154: 94                           	xchgl	%esp, %eax
  409155: 92                           	xchgl	%edx, %eax
  409156: 00 00                        	addb	%al, (%eax)

00409158 <__imp__GetCommandLineA@0>:
  409158: a2 92 00 00 b4               	movb	%al, 3019899026

0040915c <__imp__GetLastError@0>:
  40915c: b4 92                        	movb	$-110, %ah
  40915e: 00 00                        	addb	%al, (%eax)

00409160 <__imp__GetModuleHandleA@4>:
  409160: c4 92 00 00 d8 92            	lesl	-1831337984(%edx), %edx

00409164 <__imp__GetProcAddress@8>:
  409164: d8 92 00 00 ea 92            	fcoms	-1830158336(%edx)

00409168 <__imp__InitializeCriticalSection@4>:
  409168: ea 92 00 00 06 93 00         	ljmpl	$147, $100663442

0040916c <__imp__LeaveCriticalSection@4>:
  40916c: 06                           	pushl	%es
  40916d: 93                           	xchgl	%ebx, %eax
  40916e: 00 00                        	addb	%al, (%eax)

00409170 <__imp__LoadLibraryA@4>:
  409170: 1e                           	pushl	%ds
  409171: 93                           	xchgl	%ebx, %eax
  409172: 00 00                        	addb	%al, (%eax)

00409174 <__imp__SetUnhandledExceptionFilter@4>:
  409174: 2e 93                        	xchgl	%ebx, %eax
  409176: 00 00                        	addb	%al, (%eax)

00409178 <__imp__TlsGetValue@4>:
  409178: 4c                           	decl	%esp
  409179: 93                           	xchgl	%ebx, %eax
  40917a: 00 00                        	addb	%al, (%eax)

0040917c <__imp__VirtualProtect@16>:
  40917c: 5a                           	popl	%edx
  40917d: 93                           	xchgl	%ebx, %eax
  40917e: 00 00                        	addb	%al, (%eax)

00409180 <__imp__VirtualQuery@12>:
  409180: 6c                           	insb	%dx, %es:(%edi)
  409181: 93                           	xchgl	%ebx, %eax
  409182: 00 00                        	addb	%al, (%eax)
  409184: 00 00                        	addb	%al, (%eax)
  409186: 00 00                        	addb	%al, (%eax)

00409188 <__imp__strdup>:
  409188: 7c 93                        	jl	0x40911d <.idata$4+0x75>
  40918a: 00 00                        	addb	%al, (%eax)

0040918c <__imp__stricoll>:
  40918c: 86 93 00 00 00 00            	xchgb	%dl, (%ebx)
  409192: 00 00                        	addb	%al, (%eax)

00409194 <__imp____getmainargs>:
  409194: 92                           	xchgl	%edx, %eax
  409195: 93                           	xchgl	%ebx, %eax
  409196: 00 00                        	addb	%al, (%eax)

00409198 <__imp____mb_cur_max>:
  409198: a2 93 00 00 b2               	movb	%al, 2986344595

0040919c <__imp____p__environ>:
  40919c: b2 93                        	movb	$-109, %dl
  40919e: 00 00                        	addb	%al, (%eax)

004091a0 <__imp____p__fmode>:
  4091a0: c2 93 00                     	retl	$147
  4091a3: 00 d0                        	addb	%dl, %al

004091a4 <__imp____set_app_type>:
  4091a4: d0 93 00 00 e2 93            	rclb	-1813905408(%ebx)

004091a8 <__imp___cexit>:
  4091a8: e2 93                        	loop	0x40913d <__imp__DeleteCriticalSection@4+0x1>
  4091aa: 00 00                        	addb	%al, (%eax)

004091ac <__imp___errno>:
  4091ac: ec                           	inb	%dx, %al
  4091ad: 93                           	xchgl	%ebx, %eax
  4091ae: 00 00                        	addb	%al, (%eax)

004091b0 <__imp___fpreset>:
  4091b0: f6 93 00 00 02 94            	notb	-1811808256(%ebx)

004091b4 <__imp___fullpath>:
  4091b4: 02 94 00 00 0e 94 00         	addb	9702912(%eax,%eax), %dl

004091b8 <__imp___iob>:
  4091b8: 0e                           	pushl	%cs
  4091b9: 94                           	xchgl	%esp, %eax
  4091ba: 00 00                        	addb	%al, (%eax)

004091bc <__imp___isctype>:
  4091bc: 16                           	pushl	%ss
  4091bd: 94                           	xchgl	%esp, %eax
  4091be: 00 00                        	addb	%al, (%eax)

004091c0 <__imp___msize>:
  4091c0: 22 94 00 00 2c 94 00         	andb	9710592(%eax,%eax), %dl

004091c4 <__imp___onexit>:
  4091c4: 2c 94                        	subb	$-108, %al
  4091c6: 00 00                        	addb	%al, (%eax)

004091c8 <__imp___pctype>:
  4091c8: 36 94                        	xchgl	%esp, %eax
  4091ca: 00 00                        	addb	%al, (%eax)

004091cc <__imp___setmode>:
  4091cc: 40                           	incl	%eax
  4091cd: 94                           	xchgl	%esp, %eax
  4091ce: 00 00                        	addb	%al, (%eax)

004091d0 <__imp__abort>:
  4091d0: 4c                           	decl	%esp
  4091d1: 94                           	xchgl	%esp, %eax
  4091d2: 00 00                        	addb	%al, (%eax)

004091d4 <__imp__atexit>:
  4091d4: 54                           	pushl	%esp
  4091d5: 94                           	xchgl	%esp, %eax
  4091d6: 00 00                        	addb	%al, (%eax)

004091d8 <__imp__calloc>:
  4091d8: 5e                           	popl	%esi
  4091d9: 94                           	xchgl	%esp, %eax
  4091da: 00 00                        	addb	%al, (%eax)

004091dc <__imp__fwrite>:
  4091dc: 68 94 00 00 72               	pushl	$1912602772

004091e0 <__imp__malloc>:
  4091e0: 72 94                        	jb	0x409176 <__imp__SetUnhandledExceptionFilter@4+0x2>
  4091e2: 00 00                        	addb	%al, (%eax)

004091e4 <__imp__mbstowcs>:
  4091e4: 7c 94                        	jl	0x40917a <__imp__TlsGetValue@4+0x2>
  4091e6: 00 00                        	addb	%al, (%eax)

004091e8 <__imp__memcpy>:
  4091e8: 88 94 00 00 92 94 00         	movb	%dl, 9736704(%eax,%eax)

004091ec <__imp__memmove>:
  4091ec: 92                           	xchgl	%edx, %eax
  4091ed: 94                           	xchgl	%esp, %eax
  4091ee: 00 00                        	addb	%al, (%eax)

004091f0 <__imp__printf>:
  4091f0: 9c                           	pushfl
  4091f1: 94                           	xchgl	%esp, %eax
  4091f2: 00 00                        	addb	%al, (%eax)

004091f4 <__imp__puts>:
  4091f4: a6                           	cmpsb	%es:(%edi), (%esi)
  4091f5: 94                           	xchgl	%esp, %eax
  4091f6: 00 00                        	addb	%al, (%eax)

004091f8 <__imp__scanf>:
  4091f8: ae                           	scasb	%es:(%edi), %al
  4091f9: 94                           	xchgl	%esp, %eax
  4091fa: 00 00                        	addb	%al, (%eax)

004091fc <__imp__setlocale>:
  4091fc: b6 94                        	movb	$-108, %dh
  4091fe: 00 00                        	addb	%al, (%eax)

00409200 <__imp__signal>:
  409200: c2 94 00                     	retl	$148
  409203: 00 cc                        	addb	%cl, %ah

00409204 <__imp__strcmp>:
  409204: cc                           	int3
  409205: 94                           	xchgl	%esp, %eax
  409206: 00 00                        	addb	%al, (%eax)

00409208 <__imp__strcoll>:
  409208: d6                           	salc
  409209: 94                           	xchgl	%esp, %eax
  40920a: 00 00                        	addb	%al, (%eax)

0040920c <__imp__strlen>:
  40920c: e0 94                        	loopne	0x4091a2 <__imp____p__fmode+0x2>
  40920e: 00 00                        	addb	%al, (%eax)

00409210 <__imp__tolower>:
  409210: ea 94 00 00 f4 94 00         	ljmpl	$148, $4093640852

00409214 <__imp__vfprintf>:
  409214: f4                           	hlt
  409215: 94                           	xchgl	%esp, %eax
  409216: 00 00                        	addb	%al, (%eax)

00409218 <__imp__wcstombs>:
  409218: 00 95 00 00 0c 95            	addb	%dl, -1794375680(%ebp)

0040921c <__imp____msvcrt_free>:
  40921c: 0c 95                        	orb	$-107, %al
  40921e: 00 00                        	addb	%al, (%eax)

00409220 <__imp____msvcrt_realloc>:
  409220: 14 95                        	adcb	$-107, %al
  409222: 00 00                        	addb	%al, (%eax)
  409224: 00 00                        	addb	%al, (%eax)
  409226: 00 00                        	addb	%al, (%eax)

00409228 <__IAT_end__>:
  409228: d0 00                        	rolb	(%eax)
  40922a: 44                           	incl	%esp
  40922b: 65 6c                        	insb	%dx, %es:(%edi)
  40922d: 65 74 65                     	je	0x409295 <.idata$6+0x1>
  409230: 43                           	incl	%ebx
  409231: 72 69                        	jb	0x40929c <.idata$6+0x8>
  409233: 74 69                        	je	0x40929e <.idata$6+0xa>
  409235: 63 61 6c                     	arpl	%sp, 108(%ecx)
  409238: 53                           	pushl	%ebx
  409239: 65 63 74 69 6f               	arpl	%si, %gs:111(%ecx,%ebp,2)
  40923e: 6e                           	outsb	(%esi), %dx
  40923f: 00 ed                        	addb	%ch, %ch

00409240 <.idata$6>:
  409240: ed                           	inl	%dx, %eax
  409241: 00 45 6e                     	addb	%al, 110(%ebp)
  409244: 74 65                        	je	0x4092ab <.idata$6+0x9>
  409246: 72 43                        	jb	0x40928b <.idata$6+0x7>
  409248: 72 69                        	jb	0x4092b3 <.idata$6+0x11>
  40924a: 74 69                        	je	0x4092b5 <.idata$6+0x1>
  40924c: 63 61 6c                     	arpl	%sp, 108(%ecx)
  40924f: 53                           	pushl	%ebx
  409250: 65 63 74 69 6f               	arpl	%si, %gs:111(%ecx,%ebp,2)
  409255: 6e                           	outsb	(%esi), %dx
  409256: 00 00                        	addb	%al, (%eax)

00409258 <.idata$6>:
  409258: 18 01                        	sbbb	%al, (%ecx)
  40925a: 45                           	incl	%ebp
  40925b: 78 69                        	js	0x4092c6 <.idata$6+0x2>
  40925d: 74 50                        	je	0x4092af <.idata$6+0xd>
  40925f: 72 6f                        	jb	0x4092d0 <.idata$6+0xc>
  409261: 63 65 73                     	arpl	%sp, 115(%ebp)
  409264: 73 00                        	jae	0x409266 <.idata$6>

00409266 <.idata$6>:
  409266: 2d 01 46 69 6e               	subl	$1852392961, %eax
  40926b: 64 43                        	incl	%ebx
  40926d: 6c                           	insb	%dx, %es:(%edi)
  40926e: 6f                           	outsl	(%esi), %dx
  40926f: 73 65                        	jae	0x4092d6 <.idata$6+0x12>
  409271: 00 31                        	addb	%dh, (%ecx)

00409272 <.idata$6>:
  409272: 31 01                        	xorl	%eax, (%ecx)
  409274: 46                           	incl	%esi
  409275: 69 6e 64 46 69 72 73         	imull	$1936877894, 100(%esi), %ebp
  40927c: 74 46                        	je	0x4092c4 <.idata$6>
  40927e: 69 6c 65 41 00 00 42 01      	imull	$21102592, 65(%ebp,%eiz,2), %ebp

00409284 <.idata$6>:
  409284: 42                           	incl	%edx
  409285: 01 46 69                     	addl	%eax, 105(%esi)
  409288: 6e                           	outsb	(%esi), %dx
  409289: 64 4e                        	decl	%esi
  40928b: 65 78 74                     	js	0x409302 <.idata$6+0x18>
  40928e: 46                           	incl	%esi
  40928f: 69 6c 65 41 00 61 01 46      	imull	$1174495488, 65(%ebp,%eiz,2), %ebp

00409294 <.idata$6>:
  409294: 61                           	popal
  409295: 01 46 72                     	addl	%eax, 114(%esi)
  409298: 65 65 4c                     	decl	%esp
  40929b: 69 62 72 61 72 79 00         	imull	$7959137, 114(%edx), %esp

004092a2 <.idata$6>:
  4092a2: 85 01                        	testl	%eax, (%ecx)
  4092a4: 47                           	incl	%edi
  4092a5: 65 74 43                     	je	0x4092eb <.idata$6+0x1>
  4092a8: 6f                           	outsl	(%esi), %dx
  4092a9: 6d                           	insl	%dx, %es:(%edi)
  4092aa: 6d                           	insl	%dx, %es:(%edi)
  4092ab: 61                           	popal
  4092ac: 6e                           	outsb	(%esi), %dx
  4092ad: 64 4c                        	decl	%esp
  4092af: 69 6e 65 41 00 ff 01         	imull	$33488961, 101(%esi), %ebp

004092b4 <.idata$6>:
  4092b4: ff 01                        	incl	(%ecx)
  4092b6: 47                           	incl	%edi
  4092b7: 65 74 4c                     	je	0x409306 <.idata$6>
  4092ba: 61                           	popal
  4092bb: 73 74                        	jae	0x409331 <.idata$6+0x3>
  4092bd: 45                           	incl	%ebp
  4092be: 72 72                        	jb	0x409332 <.idata$6+0x4>
  4092c0: 6f                           	outsl	(%esi), %dx
  4092c1: 72 00                        	jb	0x4092c3 <.idata$6+0xf>
  4092c3: 00 12                        	addb	%dl, (%edx)

004092c4 <.idata$6>:
  4092c4: 12 02                        	adcb	(%edx), %al
  4092c6: 47                           	incl	%edi
  4092c7: 65 74 4d                     	je	0x409317 <.idata$6+0x11>
  4092ca: 6f                           	outsl	(%esi), %dx
  4092cb: 64 75 6c                     	jne	0x40933a <.idata$6+0xc>
  4092ce: 65 48                        	decl	%eax
  4092d0: 61                           	popal
  4092d1: 6e                           	outsb	(%esi), %dx
  4092d2: 64 6c                        	insb	%dx, %es:(%edi)
  4092d4: 65 41                        	incl	%ecx
  4092d6: 00 00                        	addb	%al, (%eax)

004092d8 <.idata$6>:
  4092d8: 42                           	incl	%edx
  4092d9: 02 47 65                     	addb	101(%edi), %al
  4092dc: 74 50                        	je	0x40932e <.idata$6>
  4092de: 72 6f                        	jb	0x40934f <.idata$6+0x3>
  4092e0: 63 41 64                     	arpl	%ax, 100(%ecx)
  4092e3: 64 72 65                     	jb	0x40934b <.idata$6+0x1d>
  4092e6: 73 73                        	jae	0x40935b <.idata$6+0x1>
  4092e8: 00 00                        	addb	%al, (%eax)

004092ea <.idata$6>:
  4092ea: df 02                        	filds	(%edx)
  4092ec: 49                           	decl	%ecx
  4092ed: 6e                           	outsb	(%esi), %dx
  4092ee: 69 74 69 61 6c 69 7a 65      	imull	$1702521196, 97(%ecx,%ebp,2), %esi
  4092f6: 43                           	incl	%ebx
  4092f7: 72 69                        	jb	0x409362 <.idata$6+0x8>
  4092f9: 74 69                        	je	0x409364 <.idata$6+0xa>
  4092fb: 63 61 6c                     	arpl	%sp, 108(%ecx)
  4092fe: 53                           	pushl	%ebx
  4092ff: 65 63 74 69 6f               	arpl	%si, %gs:111(%ecx,%ebp,2)
  409304: 6e                           	outsb	(%esi), %dx
  409305: 00 2f                        	addb	%ch, (%edi)

00409306 <.idata$6>:
  409306: 2f                           	das
  409307: 03 4c 65 61                  	addl	97(%ebp,%eiz,2), %ecx
  40930b: 76 65                        	jbe	0x409372 <.idata$6+0x6>
  40930d: 43                           	incl	%ebx
  40930e: 72 69                        	jb	0x409379 <.idata$6+0xd>
  409310: 74 69                        	je	0x40937b <.idata$6+0xf>
  409312: 63 61 6c                     	arpl	%sp, 108(%ecx)
  409315: 53                           	pushl	%ebx
  409316: 65 63 74 69 6f               	arpl	%si, %gs:111(%ecx,%ebp,2)
  40931b: 6e                           	outsb	(%esi), %dx
  40931c: 00 00                        	addb	%al, (%eax)

0040931e <.idata$6>:
  40931e: 32 03                        	xorb	(%ebx), %al
  409320: 4c                           	decl	%esp
  409321: 6f                           	outsl	(%esi), %dx
  409322: 61                           	popal
  409323: 64 4c                        	decl	%esp
  409325: 69 62 72 61 72 79 41         	imull	$1098478177, 114(%edx), %esp
  40932c: 00 00                        	addb	%al, (%eax)

0040932e <.idata$6>:
  40932e: 6c                           	insb	%dx, %es:(%edi)
  40932f: 04 53                        	addb	$83, %al
  409331: 65 74 55                     	je	0x409389 <.idata$6+0x3>
  409334: 6e                           	outsb	(%esi), %dx
  409335: 68 61 6e 64 6c               	pushl	$1818521185
  40933a: 65 64 45                     	incl	%ebp
  40933d: 78 63                        	js	0x4093a2 <.idata$6>
  40933f: 65 70 74                     	jo	0x4093b6 <.idata$6+0x4>
  409342: 69 6f 6e 46 69 6c 74         	imull	$1953261894, 110(%edi), %ebp
  409349: 65 72 00                     	jb	0x40934c <.idata$6>

0040934c <.idata$6>:
  40934c: 8d 04 54                     	leal	(%esp,%edx,2), %eax
  40934f: 6c                           	insb	%dx, %es:(%edi)
  409350: 73 47                        	jae	0x409399 <.idata$6+0x7>
  409352: 65 74 56                     	je	0x4093ab <.idata$6+0x9>
  409355: 61                           	popal
  409356: 6c                           	insb	%dx, %es:(%edi)
  409357: 75 65                        	jne	0x4093be <.idata$6+0xc>
  409359: 00 b5 04 56 69 72            	addb	%dh, 1919505924(%ebp)

0040935a <.idata$6>:
  40935a: b5 04                        	movb	$4, %ch
  40935c: 56                           	pushl	%esi
  40935d: 69 72 74 75 61 6c 50         	imull	$1349280117, 116(%edx), %esi
  409364: 72 6f                        	jb	0x4093d5 <.idata$6+0x5>
  409366: 74 65                        	je	0x4093cd <.idata$6+0xb>
  409368: 63 74 00 00                  	arpl	%si, (%eax,%eax)

0040936c <.idata$6>:
  40936c: b7 04                        	movb	$4, %bh
  40936e: 56                           	pushl	%esi
  40936f: 69 72 74 75 61 6c 51         	imull	$1366057333, 116(%edx), %esi
  409376: 75 65                        	jne	0x4093dd <.idata$6+0xd>
  409378: 72 79                        	jb	0x4093f3 <.idata$6+0x7>
  40937a: 00 00                        	addb	%al, (%eax)

0040937c <.idata$6>:
  40937c: 51                           	pushl	%ecx
  40937d: 00 5f 73                     	addb	%bl, 115(%edi)
  409380: 74 72                        	je	0x4093f4 <.idata$6+0x8>
  409382: 64 75 70                     	jne	0x4093f5 <.idata$6+0x9>
  409385: 00 53 00                     	addb	%dl, (%ebx)

00409386 <.idata$6>:
  409386: 53                           	pushl	%ebx
  409387: 00 5f 73                     	addb	%bl, 115(%edi)
  40938a: 74 72                        	je	0x4093fe <.idata$6+0x8>
  40938c: 69 63 6f 6c 6c 00 59         	imull	$1493199980, 111(%ebx), %esp

00409392 <.idata$6>:
  409392: 59                           	popl	%ecx
  409393: 00 5f 5f                     	addb	%bl, 95(%edi)
  409396: 67 65 74 6d                  	je	0x409407 <.idata$6+0x5>
  40939a: 61                           	popal
  40939b: 69 6e 61 72 67 73 00         	imull	$7563122, 97(%esi), %ebp

004093a2 <.idata$6>:
  4093a2: 78 00                        	js	0x4093a4 <.idata$6+0x2>
  4093a4: 5f                           	popl	%edi
  4093a5: 5f                           	popl	%edi
  4093a6: 6d                           	insl	%dx, %es:(%edi)
  4093a7: 62 5f 63                     	bound	%ebx, 99(%edi)
  4093aa: 75 72                        	jne	0x40941e <.idata$6+0x8>
  4093ac: 5f                           	popl	%edi
  4093ad: 6d                           	insl	%dx, %es:(%edi)
  4093ae: 61                           	popal
  4093af: 78 00                        	js	0x4093b1 <.idata$6+0xf>
  4093b1: 00 84 00 5f 5f 70 5f         	addb	%al, 1601199967(%eax,%eax)

004093b2 <.idata$6>:
  4093b2: 84 00                        	testb	%al, (%eax)
  4093b4: 5f                           	popl	%edi
  4093b5: 5f                           	popl	%edi
  4093b6: 70 5f                        	jo	0x409417 <.idata$6+0x1>
  4093b8: 5f                           	popl	%edi
  4093b9: 65 6e                        	outsb	%gs:(%esi), %dx
  4093bb: 76 69                        	jbe	0x409426 <.idata$6+0x4>
  4093bd: 72 6f                        	jb	0x40942e <.idata$6+0x2>
  4093bf: 6e                           	outsb	(%esi), %dx
  4093c0: 00 00                        	addb	%al, (%eax)

004093c2 <.idata$6>:
  4093c2: 86 00                        	xchgb	%al, (%eax)
  4093c4: 5f                           	popl	%edi
  4093c5: 5f                           	popl	%edi
  4093c6: 70 5f                        	jo	0x409427 <.idata$6+0x5>
  4093c8: 5f                           	popl	%edi
  4093c9: 66 6d                        	insw	%dx, %es:(%edi)
  4093cb: 6f                           	outsl	(%esi), %dx
  4093cc: 64 65 00 00                  	addb	%al, %gs:(%eax)

004093d0 <.idata$6>:
  4093d0: 9a 00 5f 5f 73 65 74         	lcalll	$29797, $1935630080
  4093d7: 5f                           	popl	%edi
  4093d8: 61                           	popal
  4093d9: 70 70                        	jo	0x40944b <.idata$6+0xb>
  4093db: 5f                           	popl	%edi
  4093dc: 74 79                        	je	0x409457 <.idata$6+0x3>
  4093de: 70 65                        	jo	0x409445 <.idata$6+0x5>
  4093e0: 00 00                        	addb	%al, (%eax)

004093e2 <.idata$6>:
  4093e2: d7                           	xlatb
  4093e3: 00 5f 63                     	addb	%bl, 99(%edi)
  4093e6: 65 78 69                     	js	0x409452 <.idata$6+0x6>
  4093e9: 74 00                        	je	0x4093eb <.idata$6+0x9>
  4093eb: 00 18                        	addb	%bl, (%eax)

004093ec <.idata$6>:
  4093ec: 18 01                        	sbbb	%al, (%ecx)
  4093ee: 5f                           	popl	%edi
  4093ef: 65 72 72                     	jb	0x409464 <.idata$6+0x6>
  4093f2: 6e                           	outsb	(%esi), %dx
  4093f3: 6f                           	outsl	(%esi), %dx
  4093f4: 00 00                        	addb	%al, (%eax)

004093f6 <.idata$6>:
  4093f6: 3f                           	aas
  4093f7: 01 5f 66                     	addl	%ebx, 102(%edi)
  4093fa: 70 72                        	jo	0x40946e <.idata$6+0x6>
  4093fc: 65 73 65                     	jae	0x409464 <.idata$6+0x6>
  4093ff: 74 00                        	je	0x409401 <.idata$6+0xb>
  409401: 00 59 01                     	addb	%bl, 1(%ecx)

00409402 <.idata$6>:
  409402: 59                           	popl	%ecx
  409403: 01 5f 66                     	addl	%ebx, 102(%edi)
  409406: 75 6c                        	jne	0x409474 <.idata$6+0x2>
  409408: 6c                           	insb	%dx, %es:(%edi)
  409409: 70 61                        	jo	0x40946c <.idata$6+0x4>
  40940b: 74 68                        	je	0x409475 <.idata$6+0x3>
  40940d: 00 9c 01 5f 69 6f 62         	addb	%bl, 1651468639(%ecx,%eax)

0040940e <.idata$6>:
  40940e: 9c                           	pushfl
  40940f: 01 5f 69                     	addl	%ebx, 105(%edi)
  409412: 6f                           	outsl	(%esi), %dx
  409413: 62 00                        	bound	%eax, (%eax)
  409415: 00 a1 01 5f 69 73            	addb	%ah, 1936285441(%ecx)

00409416 <.idata$6>:
  409416: a1 01 5f 69 73               	movl	1936285441, %eax
  40941b: 63 74 79 70                  	arpl	%si, 112(%ecx,%edi,2)
  40941f: 65 00 00                     	addb	%al, %gs:(%eax)

00409422 <.idata$6>:
  409422: a9 02 5f 6d 73               	testl	$1936547586, %eax
  409427: 69 7a 65 00 00 ac 02         	imull	$44826624, 101(%edx), %edi

0040942c <.idata$6>:
  40942c: ac                           	lodsb	(%esi), %al
  40942d: 02 5f 6f                     	addb	111(%edi), %bl
  409430: 6e                           	outsb	(%esi), %dx
  409431: 65 78 69                     	js	0x40949d <.idata$6+0x1>
  409434: 74 00                        	je	0x409436 <.idata$6>

00409436 <.idata$6>:
  409436: b5 02                        	movb	$2, %ch
  409438: 5f                           	popl	%edi
  409439: 70 63                        	jo	0x40949e <.idata$6+0x2>
  40943b: 74 79                        	je	0x4094b6 <.idata$6>
  40943d: 70 65                        	jo	0x4094a4 <.idata$6+0x8>
  40943f: 00 ec                        	addb	%ch, %ah

00409440 <.idata$6>:
  409440: ec                           	inb	%dx, %al
  409441: 02 5f 73                     	addb	115(%edi), %bl
  409444: 65 74 6d                     	je	0x4094b4 <.idata$6+0x6>
  409447: 6f                           	outsl	(%esi), %dx
  409448: 64 65 00 00                  	addb	%al, %gs:(%eax)

0040944c <.idata$6>:
  40944c: 36 04 61                     	addb	$97, %al
  40944f: 62 6f 72                     	bound	%ebp, 114(%edi)
  409452: 74 00                        	je	0x409454 <.idata$6>

00409454 <.idata$6>:
  409454: 3e 04 61                     	addb	$97, %al
  409457: 74 65                        	je	0x4094be <.idata$6+0x8>
  409459: 78 69                        	js	0x4094c4 <.idata$6+0x2>
  40945b: 74 00                        	je	0x40945d <.idata$6+0x9>
  40945d: 00 45 04                     	addb	%al, 4(%ebp)

0040945e <.idata$6>:
  40945e: 45                           	incl	%ebp
  40945f: 04 63                        	addb	$99, %al
  409461: 61                           	popal
  409462: 6c                           	insb	%dx, %es:(%edi)
  409463: 6c                           	insb	%dx, %es:(%edi)
  409464: 6f                           	outsl	(%esi), %dx
  409465: 63 00                        	arpl	%ax, (%eax)
  409467: 00 71 04                     	addb	%dh, 4(%ecx)

00409468 <.idata$6>:
  409468: 71 04                        	jno	0x40946e <.idata$6+0x6>
  40946a: 66 77 72                     	ja	0x4094df <.idata$6+0x9>
  40946d: 69 74 65 00 00 9e 04 6d      	imull	$1829019136, (%ebp,%eiz,2), %esi

00409472 <.idata$6>:
  409472: 9e                           	sahf
  409473: 04 6d                        	addb	$109, %al
  409475: 61                           	popal
  409476: 6c                           	insb	%dx, %es:(%edi)
  409477: 6c                           	insb	%dx, %es:(%edi)
  409478: 6f                           	outsl	(%esi), %dx
  409479: 63 00                        	arpl	%ax, (%eax)
  40947b: 00 a5 04 6d 62 73            	addb	%ah, 1935830276(%ebp)

0040947c <.idata$6>:
  40947c: a5                           	movsl	(%esi), %es:(%edi)
  40947d: 04 6d                        	addb	$109, %al
  40947f: 62 73 74                     	bound	%esi, 116(%ebx)
  409482: 6f                           	outsl	(%esi), %dx
  409483: 77 63                        	ja	0x4094e8 <.idata$6+0x8>
  409485: 73 00                        	jae	0x409487 <.idata$6+0xb>
  409487: 00 aa 04 6d 65 6d            	addb	%ch, 1835363588(%edx)

00409488 <.idata$6>:
  409488: aa                           	stosb	%al, %es:(%edi)
  409489: 04 6d                        	addb	$109, %al
  40948b: 65 6d                        	insl	%dx, %es:(%edi)
  40948d: 63 70 79                     	arpl	%si, 121(%eax)
  409490: 00 00                        	addb	%al, (%eax)

00409492 <.idata$6>:
  409492: ac                           	lodsb	(%esi), %al
  409493: 04 6d                        	addb	$109, %al
  409495: 65 6d                        	insl	%dx, %es:(%edi)
  409497: 6d                           	insl	%dx, %es:(%edi)
  409498: 6f                           	outsl	(%esi), %dx
  409499: 76 65                        	jbe	0x409500 <.idata$6>
  40949b: 00 b3 04 70 72 69            	addb	%dh, 1769107460(%ebx)

0040949c <.idata$6>:
  40949c: b3 04                        	movb	$4, %bl
  40949e: 70 72                        	jo	0x409512 <.idata$6+0x6>
  4094a0: 69 6e 74 66 00 00 b7         	imull	$3070230630, 116(%esi), %ebp

004094a6 <.idata$6>:
  4094a6: b7 04                        	movb	$4, %bh
  4094a8: 70 75                        	jo	0x40951f <.idata$6+0xb>
  4094aa: 74 73                        	je	0x40951f <.idata$6+0xb>
  4094ac: 00 00                        	addb	%al, (%eax)

004094ae <.idata$6>:
  4094ae: c3                           	retl
  4094af: 04 73                        	addb	$115, %al
  4094b1: 63 61 6e                     	arpl	%sp, 110(%ecx)
  4094b4: 66 00 c6                     	addb	%al, %dh

004094b6 <.idata$6>:
  4094b6: c6 04 73 65                  	movb	$101, (%ebx,%esi,2)
  4094ba: 74 6c                        	je	0x409528 <.idata$6+0x14>
  4094bc: 6f                           	outsl	(%esi), %dx
  4094bd: 63 61 6c                     	arpl	%sp, 108(%ecx)
  4094c0: 65 00 c8                     	addb	%cl, %al

004094c2 <.idata$6>:
  4094c2: c8 04 73 69                  	enter	$29444, $105
  4094c6: 67 6e                        	outsb	(%si), %dx
  4094c8: 61                           	popal
  4094c9: 6c                           	insb	%dx, %es:(%edi)
  4094ca: 00 00                        	addb	%al, (%eax)

004094cc <.idata$6>:
  4094cc: d4 04                        	aam	$4
  4094ce: 73 74                        	jae	0x409544 <.idata$6+0x30>
  4094d0: 72 63                        	jb	0x409535 <.idata$6+0x21>
  4094d2: 6d                           	insl	%dx, %es:(%edi)
  4094d3: 70 00                        	jo	0x4094d5 <.idata$6+0x9>
  4094d5: 00 d5                        	addb	%dl, %ch

004094d6 <.idata$6>:
  4094d6: d5 04                        	aad	$4
  4094d8: 73 74                        	jae	0x40954e <.idata$6+0x3a>
  4094da: 72 63                        	jb	0x40953f <.idata$6+0x2b>
  4094dc: 6f                           	outsl	(%esi), %dx
  4094dd: 6c                           	insb	%dx, %es:(%edi)
  4094de: 6c                           	insb	%dx, %es:(%edi)
  4094df: 00 dc                        	addb	%bl, %ah

004094e0 <.idata$6>:
  4094e0: dc 04 73                     	faddl	(%ebx,%esi,2)
  4094e3: 74 72                        	je	0x409557 <.idata$6+0x43>
  4094e5: 6c                           	insb	%dx, %es:(%edi)
  4094e6: 65 6e                        	outsb	%gs:(%esi), %dx
  4094e8: 00 00                        	addb	%al, (%eax)

004094ea <.idata$6>:
  4094ea: f8                           	clc
  4094eb: 04 74                        	addb	$116, %al
  4094ed: 6f                           	outsl	(%esi), %dx
  4094ee: 6c                           	insb	%dx, %es:(%edi)
  4094ef: 6f                           	outsl	(%esi), %dx
  4094f0: 77 65                        	ja	0x409557 <.idata$6+0x43>
  4094f2: 72 00                        	jb	0x4094f4 <.idata$6>

004094f4 <.idata$6>:
  4094f4: ff 04 76                     	incl	(%esi,%esi,2)
  4094f7: 66 70 72                     	jo	0x40956c <__libkernel32_a_iname+0x4>
  4094fa: 69 6e 74 66 00 00 28         	imull	$671088742, 116(%esi), %ebp

00409500 <.idata$6>:
  409500: 28 05 77 63 73 74            	subb	%al, 1953719159
  409506: 6f                           	outsl	(%esi), %dx
  409507: 6d                           	insl	%dx, %es:(%edi)
  409508: 62 73 00                     	bound	%esi, (%ebx)
  40950b: 00 66 04                     	addb	%ah, 4(%esi)

0040950c <.idata$6>:
  40950c: 66 04 66                     	addb	$102, %al
  40950f: 72 65                        	jb	0x409576 <__libkernel32_a_iname+0xe>
  409511: 65 00 00                     	addb	%al, %gs:(%eax)

00409514 <.idata$6>:
  409514: bf 04 72 65 61               	movl	$1634038276, %edi
  409519: 6c                           	insb	%dx, %es:(%edi)
  40951a: 6c                           	insb	%dx, %es:(%edi)
  40951b: 6f                           	outsl	(%esi), %dx
  40951c: 63 00                        	arpl	%ax, (%eax)
  40951e: 00 00                        	addb	%al, (%eax)
  409520: 00 90 00 00 00 90            	addb	%dl, -1879048192(%eax)
  409526: 00 00                        	addb	%al, (%eax)
  409528: 00 90 00 00 00 90            	addb	%dl, -1879048192(%eax)
  40952e: 00 00                        	addb	%al, (%eax)
  409530: 00 90 00 00 00 90            	addb	%dl, -1879048192(%eax)
  409536: 00 00                        	addb	%al, (%eax)
  409538: 00 90 00 00 00 90            	addb	%dl, -1879048192(%eax)
  40953e: 00 00                        	addb	%al, (%eax)
  409540: 00 90 00 00 00 90            	addb	%dl, -1879048192(%eax)
  409546: 00 00                        	addb	%al, (%eax)
  409548: 00 90 00 00 00 90            	addb	%dl, -1879048192(%eax)
  40954e: 00 00                        	addb	%al, (%eax)
  409550: 00 90 00 00 00 90            	addb	%dl, -1879048192(%eax)
  409556: 00 00                        	addb	%al, (%eax)
  409558: 00 90 00 00 00 90            	addb	%dl, -1879048192(%eax)
  40955e: 00 00                        	addb	%al, (%eax)
  409560: 00 90 00 00 00 90            	addb	%dl, -1879048192(%eax)
  409566: 00 00                        	addb	%al, (%eax)

00409568 <__libkernel32_a_iname>:
  409568: 4b                           	decl	%ebx
  409569: 45                           	incl	%ebp
  40956a: 52                           	pushl	%edx
  40956b: 4e                           	decl	%esi
  40956c: 45                           	incl	%ebp
  40956d: 4c                           	decl	%esp
  40956e: 33 32                        	xorl	(%edx), %esi
  409570: 2e 64 6c                     	insb	%dx, %es:(%edi)
  409573: 6c                           	insb	%dx, %es:(%edi)
  409574: 00 00                        	addb	%al, (%eax)
  409576: 00 00                        	addb	%al, (%eax)
  409578: 14 90                        	adcb	$-112, %al
  40957a: 00 00                        	addb	%al, (%eax)
  40957c: 14 90                        	adcb	$-112, %al
  40957e: 00 00                        	addb	%al, (%eax)

00409580 <__libmoldname_a_iname>:
  409580: 6d                           	insl	%dx, %es:(%edi)
  409581: 73 76                        	jae	0x4095f9 <__libmoldname_a_iname+0x79>
  409583: 63 72 74                     	arpl	%si, 116(%edx)
  409586: 2e 64 6c                     	insb	%dx, %es:(%edi)
  409589: 6c                           	insb	%dx, %es:(%edi)
  40958a: 00 00                        	addb	%al, (%eax)
  40958c: 28 90 00 00 28 90            	subb	%dl, -1876426752(%eax)
  409592: 00 00                        	addb	%al, (%eax)
  409594: 28 90 00 00 28 90            	subb	%dl, -1876426752(%eax)
  40959a: 00 00                        	addb	%al, (%eax)
  40959c: 28 90 00 00 28 90            	subb	%dl, -1876426752(%eax)
  4095a2: 00 00                        	addb	%al, (%eax)
  4095a4: 28 90 00 00 28 90            	subb	%dl, -1876426752(%eax)
  4095aa: 00 00                        	addb	%al, (%eax)
  4095ac: 28 90 00 00 28 90            	subb	%dl, -1876426752(%eax)
  4095b2: 00 00                        	addb	%al, (%eax)
  4095b4: 28 90 00 00 28 90            	subb	%dl, -1876426752(%eax)
  4095ba: 00 00                        	addb	%al, (%eax)
  4095bc: 28 90 00 00 28 90            	subb	%dl, -1876426752(%eax)
  4095c2: 00 00                        	addb	%al, (%eax)
  4095c4: 28 90 00 00 28 90            	subb	%dl, -1876426752(%eax)
  4095ca: 00 00                        	addb	%al, (%eax)
  4095cc: 28 90 00 00 28 90            	subb	%dl, -1876426752(%eax)
  4095d2: 00 00                        	addb	%al, (%eax)
  4095d4: 28 90 00 00 28 90            	subb	%dl, -1876426752(%eax)
  4095da: 00 00                        	addb	%al, (%eax)
  4095dc: 28 90 00 00 28 90            	subb	%dl, -1876426752(%eax)
  4095e2: 00 00                        	addb	%al, (%eax)
  4095e4: 28 90 00 00 28 90            	subb	%dl, -1876426752(%eax)
  4095ea: 00 00                        	addb	%al, (%eax)
  4095ec: 28 90 00 00 28 90            	subb	%dl, -1876426752(%eax)
  4095f2: 00 00                        	addb	%al, (%eax)
  4095f4: 28 90 00 00 28 90            	subb	%dl, -1876426752(%eax)
  4095fa: 00 00                        	addb	%al, (%eax)
  4095fc: 28 90 00 00 28 90            	subb	%dl, -1876426752(%eax)
  409602: 00 00                        	addb	%al, (%eax)
  409604: 28 90 00 00 28 90            	subb	%dl, -1876426752(%eax)
  40960a: 00 00                        	addb	%al, (%eax)
  40960c: 28 90 00 00 28 90            	subb	%dl, -1876426752(%eax)
  409612: 00 00                        	addb	%al, (%eax)
  409614: 28 90 00 00 28 90            	subb	%dl, -1876426752(%eax)
  40961a: 00 00                        	addb	%al, (%eax)

0040961c <__libmsvcrt_a_iname>:
  40961c: 6d                           	insl	%dx, %es:(%edi)
  40961d: 73 76                        	jae	0x409695 <__libmsvcrt_a_iname+0x79>
  40961f: 63 72 74                     	arpl	%si, 116(%edx)
  409622: 2e 64 6c                     	insb	%dx, %es:(%edi)
  409625: 6c                           	insb	%dx, %es:(%edi)
  409626: 00 00                        	addb	%al, (%eax)

Disassembly of section .CRT:

0040a000 <___xl_a>:
  40a000: 00 00                        	addb	%al, (%eax)
  40a002: 00 00                        	addb	%al, (%eax)

0040a004 <___xl_c>:
  40a004: c0 1a 40                     	rcrb	$64, (%edx)
  40a007: 00 70 1a                     	addb	%dh, 26(%eax)

0040a008 <___xl_d>:
  40a008: 70 1a                        	jo	0x40a024 <.CRT$XDZ+0x10>
  40a00a: 40                           	incl	%eax
  40a00b: 00 00                        	addb	%al, (%eax)

0040a00c <___xl_z>:
  40a00c: 00 00                        	addb	%al, (%eax)
  40a00e: 00 00                        	addb	%al, (%eax)

0040a010 <___crt_xt_start__>:
  40a010: 00 00                        	addb	%al, (%eax)
  40a012: 00 00                        	addb	%al, (%eax)

0040a014 <.CRT$XDZ>:
  40a014: 00 00                        	addb	%al, (%eax)
  40a016: 00 00                        	addb	%al, (%eax)

Disassembly of section .tls:

0040b000 <__tls_start>:
  40b000: 00 00                        	addb	%al, (%eax)
  40b002: 00 00                        	addb	%al, (%eax)

0040b004 <__tls_used>:
  40b004: 01 b0 40 00 1c b0            	addl	%esi, -1340342208(%eax)
  40b00a: 40                           	incl	%eax
  40b00b: 00 38                        	addb	%bh, (%eax)
  40b00d: 80 40 00 04                  	addb	$4, (%eax)
  40b011: a0 40 00 00 00               	movb	64, %al
  40b016: 00 00                        	addb	%al, (%eax)
  40b018: 00 00                        	addb	%al, (%eax)
  40b01a: 00 00                        	addb	%al, (%eax)

0040b01c <__tls_end>:
  40b01c: 00 00                        	addb	%al, (%eax)
  40b01e: 00 00                        	addb	%al, (%eax)

Disassembly of section .debug_aranges:

0040c000 <.debug_aranges>:
  40c000: 1c 00                        	sbbb	$0, %al
  40c002: 00 00                        	addb	%al, (%eax)
  40c004: 02 00                        	addb	(%eax), %al
  40c006: 00 00                        	addb	%al, (%eax)
  40c008: 00 00                        	addb	%al, (%eax)
  40c00a: 04 00                        	addb	$0, %al
  40c00c: 00 00                        	addb	%al, (%eax)
  40c00e: 00 00                        	addb	%al, (%eax)
  40c010: 30 3e                        	xorb	%bh, (%esi)
  40c012: 40                           	incl	%eax
  40c013: 00 2a                        	addb	%ch, (%edx)
		...
  40c01d: 00 00                        	addb	%al, (%eax)
  40c01f: 00 14 00                     	addb	%dl, (%eax,%eax)

0040c020 <.debug_aranges>:
  40c020: 14 00                        	adcb	$0, %al
  40c022: 00 00                        	addb	%al, (%eax)
  40c024: 02 00                        	addb	(%eax), %al
  40c026: 26 00 00                     	addb	%al, %es:(%eax)
  40c029: 00 04 00                     	addb	%al, (%eax,%eax)
		...

Disassembly of section .debug_info:

0040d000 <.debug_info>:
  40d000: 22 00                        	andb	(%eax), %al
  40d002: 00 00                        	addb	%al, (%eax)
  40d004: 02 00                        	addb	(%eax), %al
  40d006: 00 00                        	addb	%al, (%eax)
  40d008: 00 00                        	addb	%al, (%eax)
  40d00a: 04 01                        	addb	$1, %al
  40d00c: 00 00                        	addb	%al, (%eax)
  40d00e: 00 00                        	addb	%al, (%eax)
  40d010: 30 3e                        	xorb	%bh, (%esi)
  40d012: 40                           	incl	%eax
  40d013: 00 5a 3e                     	addb	%bl, 62(%edx)
  40d016: 40                           	incl	%eax
  40d017: 00 00                        	addb	%al, (%eax)
  40d019: 00 00                        	addb	%al, (%eax)
  40d01b: 00 33                        	addb	%dh, (%ebx)
  40d01d: 00 00                        	addb	%al, (%eax)
  40d01f: 00 7a 00                     	addb	%bh, (%edx)
  40d022: 00 00                        	addb	%al, (%eax)
  40d024: 01 80 a2 1e 00 00            	addl	%eax, 7842(%eax)

0040d026 <.debug_info>:
  40d026: a2 1e 00 00 04               	movb	%al, 67108894
  40d02b: 00 14 00                     	addb	%dl, (%eax,%eax)
  40d02e: 00 00                        	addb	%al, (%eax)
  40d030: 04 01                        	addb	$1, %al
  40d032: 47                           	incl	%edi
  40d033: 4e                           	decl	%esi
  40d034: 55                           	pushl	%ebp
  40d035: 20 43 31                     	andb	%al, 49(%ebx)
  40d038: 37                           	aaa
  40d039: 20 39                        	andb	%bh, (%ecx)
  40d03b: 2e 32 2e                     	xorb	%cs:(%esi), %ch
  40d03e: 30 20                        	xorb	%ah, (%eax)
  40d040: 2d 6d 74 75 6e               	subl	$1853191277, %eax
  40d045: 65 3d 67 65 6e 65            	cmpl	$1701733735, %eax
  40d04b: 72 69                        	jb	0x40d0b6 <.debug_info+0x90>
  40d04d: 63 20                        	arpl	%sp, (%eax)
  40d04f: 2d 6d 61 72 63               	subl	$1668440429, %eax
  40d054: 68 3d 69 35 38               	pushl	$943024445
  40d059: 36 20 2d 67 20 2d 67         	andb	%ch, %ss:1731010663
  40d060: 20 2d 67 20 2d 4f            	andb	%ch, 1328357479
  40d066: 32 20                        	xorb	(%eax), %ah
  40d068: 2d 4f 32 20 2d               	subl	$757084751, %eax
  40d06d: 4f                           	decl	%edi
  40d06e: 32 20                        	xorb	(%eax), %ah
  40d070: 2d 66 62 75 69               	subl	$1769300582, %eax
  40d075: 6c                           	insb	%dx, %es:(%edi)
  40d076: 64 69 6e 67 2d 6c 69 62      	imull	$1651076141, %fs:103(%esi), %ebp
  40d07e: 67 63 63 20                  	arpl	%sp, 32(%bp,%di)
  40d082: 2d 66 6e 6f 2d               	subl	$762277478, %eax
  40d087: 73 74                        	jae	0x40d0fd <.debug_info+0xd7>
  40d089: 61                           	popal
  40d08a: 63 6b 2d                     	arpl	%bp, 45(%ebx)
  40d08d: 70 72                        	jo	0x40d101 <.debug_info+0xdb>
  40d08f: 6f                           	outsl	(%esi), %dx
  40d090: 74 65                        	je	0x40d0f7 <.debug_info+0xd1>
  40d092: 63 74 6f 72                  	arpl	%si, 114(%edi,%ebp,2)
  40d096: 00 0c 2e                     	addb	%cl, (%esi,%ebp)
  40d099: 2e 2f                        	das
  40d09b: 2e 2e 2f                     	das
  40d09e: 2e 2e 2f                     	das
  40d0a1: 73 72                        	jae	0x40d115 <.debug_info+0xef>
  40d0a3: 63 2f                        	arpl	%bp, (%edi)
  40d0a5: 67 63 63 2d                  	arpl	%sp, 45(%bp,%di)
  40d0a9: 39 2e                        	cmpl	%ebp, (%esi)
  40d0ab: 32 2e                        	xorb	(%esi), %ch
  40d0ad: 30 2f                        	xorb	%ch, (%edi)
  40d0af: 6c                           	insb	%dx, %es:(%edi)
  40d0b0: 69 62 67 63 63 2f 6c         	imull	$1815044963, 103(%edx), %esp
  40d0b7: 69 62 67 63 63 32 2e         	imull	$775054179, 103(%edx), %esp
  40d0be: 63 00                        	arpl	%ax, (%eax)
  40d0c0: 2f                           	das
  40d0c1: 68 6f 6d 65 2f               	pushl	$795176303
  40d0c6: 6b 65 69 74                  	imull	$116, 105(%ebp), %esp
  40d0ca: 68 2f 62 75 69               	pushl	$1769300527
  40d0cf: 6c                           	insb	%dx, %es:(%edi)
  40d0d0: 64 73 2f                     	jae	0x40d102 <.debug_info+0xdc>
  40d0d3: 6d                           	insl	%dx, %es:(%edi)
  40d0d4: 69 6e 67 77 2f 67 63         	imull	$1667706743, 103(%esi), %ebp
  40d0db: 63 2d 39 2e 32 2e            	arpl	%bp, 775040569
  40d0e1: 30 2d 6d 69 6e 67            	xorb	%ch, 1735289197
  40d0e7: 77 33                        	ja	0x40d11c <.debug_info+0xf6>
  40d0e9: 32 2d 63 72 6f 73            	xorb	1936683619, %ch
  40d0ef: 73 2d                        	jae	0x40d11e <.debug_info+0xf8>
  40d0f1: 6e                           	outsb	(%esi), %dx
  40d0f2: 61                           	popal
  40d0f3: 74 69                        	je	0x40d15e <.debug_info+0x138>
  40d0f5: 76 65                        	jbe	0x40d15c <.debug_info+0x136>
  40d0f7: 2f                           	das
  40d0f8: 6d                           	insl	%dx, %es:(%edi)
  40d0f9: 69 6e 67 77 33 32 2f         	imull	$791819127, 103(%esi), %ebp
  40d100: 6c                           	insb	%dx, %es:(%edi)
  40d101: 69 62 67 63 63 00 71         	imull	$1895850851, 103(%edx), %esp
  40d108: 00 00                        	addb	%al, (%eax)
  40d10a: 00 02                        	addb	%al, (%edx)
  40d10c: 04 05                        	addb	$5, %al
  40d10e: 69 6e 74 00 03 e5 00         	imull	$15008512, 116(%esi), %ebp
  40d115: 00 00                        	addb	%al, (%eax)
  40d117: 02 04 07                     	addb	(%edi,%eax), %al
  40d11a: 75 6e                        	jne	0x40d18a <.debug_info+0x164>
  40d11c: 73 69                        	jae	0x40d187 <.debug_info+0x161>
  40d11e: 67 6e                        	outsb	(%si), %dx
  40d120: 65 64 20 69 6e               	andb	%ch, %fs:110(%ecx)
  40d125: 74 00                        	je	0x40d127 <.debug_info+0x101>
  40d127: 02 02                        	addb	(%edx), %al
  40d129: 07                           	popl	%es
  40d12a: 73 68                        	jae	0x40d194 <.debug_info+0x16e>
  40d12c: 6f                           	outsl	(%esi), %dx
  40d12d: 72 74                        	jb	0x40d1a3 <.debug_info+0x17d>
  40d12f: 20 75 6e                     	andb	%dh, 110(%ebp)
  40d132: 73 69                        	jae	0x40d19d <.debug_info+0x177>
  40d134: 67 6e                        	outsb	(%si), %dx
  40d136: 65 64 20 69 6e               	andb	%ch, %fs:110(%ecx)
  40d13b: 74 00                        	je	0x40d13d <.debug_info+0x117>
  40d13d: 02 08                        	addb	(%eax), %cl
  40d13f: 05 6c 6f 6e 67               	addl	$1735290732, %eax
  40d144: 20 6c 6f 6e                  	andb	%ch, 110(%edi,%ebp,2)
  40d148: 67 20 69 6e                  	andb	%ch, 110(%bx,%di)
  40d14c: 74 00                        	je	0x40d14e <.debug_info+0x128>
  40d14e: 02 0c 04                     	addb	(%esp,%eax), %cl
  40d151: 6c                           	insb	%dx, %es:(%edi)
  40d152: 6f                           	outsl	(%esi), %dx
  40d153: 6e                           	outsb	(%esi), %dx
  40d154: 67 20 64 6f                  	andb	%ah, 111(%si)
  40d158: 75 62                        	jne	0x40d1bc <.debug_info+0x196>
  40d15a: 6c                           	insb	%dx, %es:(%edi)
  40d15b: 65 00 02                     	addb	%al, %gs:(%edx)
  40d15e: 10 04 5f                     	adcb	%al, (%edi,%ebx,2)
  40d161: 46                           	incl	%esi
  40d162: 6c                           	insb	%dx, %es:(%edi)
  40d163: 6f                           	outsl	(%esi), %dx
  40d164: 61                           	popal
  40d165: 74 31                        	je	0x40d198 <.debug_info+0x172>
  40d167: 32 38                        	xorb	(%eax), %bh
  40d169: 00 02                        	addb	%al, (%edx)
  40d16b: 01 06                        	addl	%eax, (%esi)
  40d16d: 63 68 61                     	arpl	%bp, 97(%eax)
  40d170: 72 00                        	jb	0x40d172 <.debug_info+0x14c>
  40d172: 03 44 01 00                  	addl	(%ecx,%eax), %eax
  40d176: 00 02                        	addb	%al, (%edx)
  40d178: 04 05                        	addb	$5, %al
  40d17a: 6c                           	insb	%dx, %es:(%edi)
  40d17b: 6f                           	outsl	(%esi), %dx
  40d17c: 6e                           	outsb	(%esi), %dx
  40d17d: 67 20 69 6e                  	andb	%ch, 110(%bx,%di)
  40d181: 74 00                        	je	0x40d183 <.debug_info+0x15d>
  40d183: 04 5f                        	addb	$95, %al
  40d185: 69 6f 62 75 66 00 20         	imull	$536897141, 98(%edi), %ebp
  40d18c: 01 d2                        	addl	%edx, %edx
  40d18e: 10 ed                        	adcb	%ch, %ch
  40d190: 01 00                        	addl	%eax, (%eax)
  40d192: 00 05 5f 70 74 72            	addb	%al, 1920233567
  40d198: 00 01                        	addb	%al, (%ecx)
  40d19a: d4 09                        	aam	$9
  40d19c: ed                           	inl	%dx, %eax
  40d19d: 01 00                        	addl	%eax, (%eax)
  40d19f: 00 00                        	addb	%al, (%eax)
  40d1a1: 05 5f 63 6e 74               	addl	$1953391455, %eax
  40d1a6: 00 01                        	addb	%al, (%ecx)
  40d1a8: d5 08                        	aad	$8
  40d1aa: e5 00                        	inl	$0, %eax
  40d1ac: 00 00                        	addb	%al, (%eax)
  40d1ae: 04 05                        	addb	$5, %al
  40d1b0: 5f                           	popl	%edi
  40d1b1: 62 61 73                     	bound	%esp, 115(%ecx)
  40d1b4: 65 00 01                     	addb	%al, %gs:(%ecx)
  40d1b7: d6                           	salc
  40d1b8: 09 ed                        	orl	%ebp, %ebp
  40d1ba: 01 00                        	addl	%eax, (%eax)
  40d1bc: 00 08                        	addb	%cl, (%eax)
  40d1be: 05 5f 66 6c 61               	addl	$1634494047, %eax
  40d1c3: 67 00 01                     	addb	%al, (%bx,%di)
  40d1c6: d7                           	xlatb
  40d1c7: 08 e5                        	orb	%ah, %ch
  40d1c9: 00 00                        	addb	%al, (%eax)
  40d1cb: 00 0c 05 5f 66 69 6c         	addb	%cl, 1818846815(,%eax)
  40d1d2: 65 00 01                     	addb	%al, %gs:(%ecx)
  40d1d5: d8 08                        	fmuls	(%eax)
  40d1d7: e5 00                        	inl	$0, %eax
  40d1d9: 00 00                        	addb	%al, (%eax)
  40d1db: 10 05 5f 63 68 61            	adcb	%al, 1634231135
  40d1e1: 72 62                        	jb	0x40d245 <.debug_info+0x21f>
  40d1e3: 75 66                        	jne	0x40d24b <.debug_info+0x225>
  40d1e5: 00 01                        	addb	%al, (%ecx)
  40d1e7: d9 08                        	<unknown>
  40d1e9: e5 00                        	inl	$0, %eax
  40d1eb: 00 00                        	addb	%al, (%eax)
  40d1ed: 14 05                        	adcb	$5, %al
  40d1ef: 5f                           	popl	%edi
  40d1f0: 62 75 66                     	bound	%esi, 102(%ebp)
  40d1f3: 73 69                        	jae	0x40d25e <.debug_info+0x238>
  40d1f5: 7a 00                        	jp	0x40d1f7 <.debug_info+0x1d1>
  40d1f7: 01 da                        	addl	%ebx, %edx
  40d1f9: 08 e5                        	orb	%ah, %ch
  40d1fb: 00 00                        	addb	%al, (%eax)
  40d1fd: 00 18                        	addb	%bl, (%eax)
  40d1ff: 05 5f 74 6d 70               	addl	$1886221407, %eax
  40d204: 66 6e                        	outsb	(%esi), %dx
  40d206: 61                           	popal
  40d207: 6d                           	insl	%dx, %es:(%edi)
  40d208: 65 00 01                     	addb	%al, %gs:(%ecx)
  40d20b: db 09                        	fisttpl	(%ecx)
  40d20d: ed                           	inl	%dx, %eax
  40d20e: 01 00                        	addl	%eax, (%eax)
  40d210: 00 1c 00                     	addb	%bl, (%eax,%eax)
  40d213: 06                           	pushl	%es
  40d214: 04 44                        	addb	$68, %al
  40d216: 01 00                        	addl	%eax, (%eax)
  40d218: 00 07                        	addb	%al, (%edi)
  40d21a: 46                           	incl	%esi
  40d21b: 49                           	decl	%ecx
  40d21c: 4c                           	decl	%esp
  40d21d: 45                           	incl	%ebp
  40d21e: 00 01                        	addb	%al, (%ecx)
  40d220: dc 03                        	faddl	(%ebx)
  40d222: 5d                           	popl	%ebp
  40d223: 01 00                        	addl	%eax, (%eax)
  40d225: 00 08                        	addb	%cl, (%eax)
  40d227: f3 01 00                     	rep		addl	%eax, (%eax)
  40d22a: 00 0b                        	addb	%cl, (%ebx)
  40d22c: 02 00                        	addb	(%eax), %al
  40d22e: 00 09                        	addb	%cl, (%ecx)
  40d230: 00 0a                        	addb	%cl, (%edx)
  40d232: 5f                           	popl	%edi
  40d233: 69 6f 62 00 01 ef 15         	imull	$367984896, 98(%edi), %ebp
  40d23a: 00 02                        	addb	%al, (%edx)
  40d23c: 00 00                        	addb	%al, (%eax)
  40d23e: 02 02                        	addb	(%edx), %al
  40d240: 05 73 68 6f 72               	addl	$1919903859, %eax
  40d245: 74 20                        	je	0x40d267 <.debug_info+0x241>
  40d247: 69 6e 74 00 02 04 07         	imull	$117703168, 116(%esi), %ebp
  40d24e: 6c                           	insb	%dx, %es:(%edi)
  40d24f: 6f                           	outsl	(%esi), %dx
  40d250: 6e                           	outsb	(%esi), %dx
  40d251: 67 20 75 6e                  	andb	%dh, 110(%di)
  40d255: 73 69                        	jae	0x40d2c0 <.debug_info+0x29a>
  40d257: 67 6e                        	outsb	(%si), %dx
  40d259: 65 64 20 69 6e               	andb	%ch, %fs:110(%ecx)
  40d25e: 74 00                        	je	0x40d260 <.debug_info+0x23a>
  40d260: 0a 5f 61                     	orb	97(%edi), %bl
  40d263: 72 67                        	jb	0x40d2cc <.debug_info+0x2a6>
  40d265: 63 00                        	arpl	%ax, (%eax)
  40d267: 02 63 10                     	addb	16(%ebx), %ah
  40d26a: e5 00                        	inl	$0, %eax
  40d26c: 00 00                        	addb	%al, (%eax)
  40d26e: 0a 5f 61                     	orb	97(%edi), %bl
  40d271: 72 67                        	jb	0x40d2da <.debug_info+0x2b4>
  40d273: 76 00                        	jbe	0x40d275 <.debug_info+0x24f>
  40d275: 02 64 10 56                  	addb	86(%eax,%edx), %ah
  40d279: 02 00                        	addb	(%eax), %al
  40d27b: 00 06                        	addb	%al, (%esi)
  40d27d: 04 ed                        	addb	$-19, %al
  40d27f: 01 00                        	addl	%eax, (%eax)
  40d281: 00 0a                        	addb	%cl, (%edx)
  40d283: 5f                           	popl	%edi
  40d284: 5f                           	popl	%edi
  40d285: 6d                           	insl	%dx, %es:(%edi)
  40d286: 62 5f 63                     	bound	%ebx, 99(%edi)
  40d289: 75 72                        	jne	0x40d2fd <.debug_info+0x2d7>
  40d28b: 5f                           	popl	%edi
  40d28c: 6d                           	insl	%dx, %es:(%edi)
  40d28d: 61                           	popal
  40d28e: 78 00                        	js	0x40d290 <.debug_info+0x26a>
  40d290: 02 8e 17 e5 00 00            	addb	58647(%esi), %cl
  40d296: 00 0a                        	addb	%cl, (%edx)
  40d298: 5f                           	popl	%edi
  40d299: 73 79                        	jae	0x40d314 <.debug_info+0x2ee>
  40d29b: 73 5f                        	jae	0x40d2fc <.debug_info+0x2d6>
  40d29d: 6e                           	outsb	(%esi), %dx
  40d29e: 65 72 72                     	jb	0x40d313 <.debug_info+0x2ed>
  40d2a1: 00 02                        	addb	%al, (%edx)
  40d2a3: e5 14                        	inl	$20, %eax
  40d2a5: e5 00                        	inl	$0, %eax
  40d2a7: 00 00                        	addb	%al, (%eax)
  40d2a9: 08 ed                        	orb	%ch, %ch
  40d2ab: 01 00                        	addl	%eax, (%eax)
  40d2ad: 00 8e 02 00 00 09            	addb	%cl, 150994946(%esi)
  40d2b3: 00 0a                        	addb	%cl, (%edx)
  40d2b5: 5f                           	popl	%edi
  40d2b6: 73 79                        	jae	0x40d331 <.debug_info+0x30b>
  40d2b8: 73 5f                        	jae	0x40d319 <.debug_info+0x2f3>
  40d2ba: 65 72 72                     	jb	0x40d32f <.debug_info+0x309>
  40d2bd: 6c                           	insb	%dx, %es:(%edi)
  40d2be: 69 73 74 00 02 fe 16         	imull	$385745408, 116(%ebx), %esi
  40d2c5: 83 02 00                     	addl	$0, (%edx)
  40d2c8: 00 0b                        	addb	%cl, (%ebx)
  40d2ca: 5f                           	popl	%edi
  40d2cb: 6f                           	outsl	(%esi), %dx
  40d2cc: 73 76                        	jae	0x40d344 <.debug_info+0x31e>
  40d2ce: 65 72 00                     	jb	0x40d2d1 <.debug_info+0x2ab>
  40d2d1: 02 15 01 1e f1 00            	addb	15801857, %dl
  40d2d7: 00 00                        	addb	%al, (%eax)
  40d2d9: 0b 5f 77                     	orl	119(%edi), %ebx
  40d2dc: 69 6e 76 65 72 00 02         	imull	$33583717, 118(%esi), %ebp
  40d2e3: 16                           	pushl	%ss
  40d2e4: 01 1e                        	addl	%ebx, (%esi)
  40d2e6: f1                           	<unknown>
  40d2e7: 00 00                        	addb	%al, (%eax)
  40d2e9: 00 0b                        	addb	%cl, (%ebx)
  40d2eb: 5f                           	popl	%edi
  40d2ec: 77 69                        	ja	0x40d357 <.debug_info+0x331>
  40d2ee: 6e                           	outsb	(%esi), %dx
  40d2ef: 6d                           	insl	%dx, %es:(%edi)
  40d2f0: 61                           	popal
  40d2f1: 6a 6f                        	pushl	$111
  40d2f3: 72 00                        	jb	0x40d2f5 <.debug_info+0x2cf>
  40d2f5: 02 17                        	addb	(%edi), %dl
  40d2f7: 01 1e                        	addl	%ebx, (%esi)
  40d2f9: f1                           	<unknown>
  40d2fa: 00 00                        	addb	%al, (%eax)
  40d2fc: 00 0b                        	addb	%cl, (%ebx)
  40d2fe: 5f                           	popl	%edi
  40d2ff: 77 69                        	ja	0x40d36a <.debug_info+0x344>
  40d301: 6e                           	outsb	(%esi), %dx
  40d302: 6d                           	insl	%dx, %es:(%edi)
  40d303: 69 6e 6f 72 00 02 18         	imull	$402784370, 111(%esi), %ebp
  40d30a: 01 1e                        	addl	%ebx, (%esi)
  40d30c: f1                           	<unknown>
  40d30d: 00 00                        	addb	%al, (%eax)
  40d30f: 00 0b                        	addb	%cl, (%ebx)
  40d311: 5f                           	popl	%edi
  40d312: 66 6d                        	insw	%dx, %es:(%edi)
  40d314: 6f                           	outsl	(%esi), %dx
  40d315: 64 65 00 02                  	addb	%al, %gs:(%edx)
  40d319: 60                           	pushal
  40d31a: 01 15 e5 00 00 00            	addl	%edx, 229
  40d320: 0a 6f 70                     	orb	112(%edi), %ch
  40d323: 74 69                        	je	0x40d38e <.debug_info+0x368>
  40d325: 6e                           	outsb	(%esi), %dx
  40d326: 64 00 03                     	addb	%al, %fs:(%ebx)
  40d329: 3c 0c                        	cmpb	$12, %al
  40d32b: e5 00                        	inl	$0, %eax
  40d32d: 00 00                        	addb	%al, (%eax)
  40d32f: 0a 6f 70                     	orb	112(%edi), %ch
  40d332: 74 6f                        	je	0x40d3a3 <.debug_info+0x37d>
  40d334: 70 74                        	jo	0x40d3aa <.debug_info+0x384>
  40d336: 00 03                        	addb	%al, (%ebx)
  40d338: 3d 0c e5 00 00               	cmpl	$58636, %eax
  40d33d: 00 0a                        	addb	%cl, (%edx)
  40d33f: 6f                           	outsl	(%esi), %dx
  40d340: 70 74                        	jo	0x40d3b6 <.debug_info+0x390>
  40d342: 65 72 72                     	jb	0x40d3b7 <.debug_info+0x391>
  40d345: 00 03                        	addb	%al, (%ebx)
  40d347: 3e 0c e5                     	orb	$-27, %al
  40d34a: 00 00                        	addb	%al, (%eax)
  40d34c: 00 0a                        	addb	%cl, (%edx)
  40d34e: 6f                           	outsl	(%esi), %dx
  40d34f: 70 74                        	jo	0x40d3c5 <.debug_info+0x39f>
  40d351: 61                           	popal
  40d352: 72 67                        	jb	0x40d3bb <.debug_info+0x395>
  40d354: 00 03                        	addb	%al, (%ebx)
  40d356: 41                           	incl	%ecx
  40d357: 0e                           	pushl	%cs
  40d358: ed                           	inl	%dx, %eax
  40d359: 01 00                        	addl	%eax, (%eax)
  40d35b: 00 0b                        	addb	%cl, (%ebx)
  40d35d: 5f                           	popl	%edi
  40d35e: 64 61                        	popal
  40d360: 79 6c                        	jns	0x40d3ce <.debug_info+0x3a8>
  40d362: 69 67 68 74 00 04 5c         	imull	$1543766132, 104(%edi), %esp
  40d369: 01 16                        	addl	%edx, (%esi)
  40d36b: e5 00                        	inl	$0, %eax
  40d36d: 00 00                        	addb	%al, (%eax)
  40d36f: 0b 5f 74                     	orl	116(%edi), %ebx
  40d372: 69 6d 65 7a 6f 6e 65         	imull	$1701736314, 101(%ebp), %ebp
  40d379: 00 04 5d 01 16 51 01         	addb	%al, 22091265(,%ebx,2)
  40d380: 00 00                        	addb	%al, (%eax)
  40d382: 08 ed                        	orb	%ch, %ch
  40d384: 01 00                        	addl	%eax, (%eax)
  40d386: 00 6c 03 00                  	addb	%ch, (%ebx,%eax)
  40d38a: 00 0c f1                     	addb	%cl, (%ecx,%esi,8)
  40d38d: 00 00                        	addb	%al, (%eax)
  40d38f: 00 01                        	addb	%al, (%ecx)
  40d391: 00 0b                        	addb	%cl, (%ebx)
  40d393: 5f                           	popl	%edi
  40d394: 74 7a                        	je	0x40d410 <.debug_info+0x3ea>
  40d396: 6e                           	outsb	(%esi), %dx
  40d397: 61                           	popal
  40d398: 6d                           	insl	%dx, %es:(%edi)
  40d399: 65 00 04 5e                  	addb	%al, %gs:(%esi,%ebx,2)
  40d39d: 01 16                        	addl	%edx, (%esi)
  40d39f: 5c                           	popl	%esp
  40d3a0: 03 00                        	addl	(%eax), %eax
  40d3a2: 00 0b                        	addb	%cl, (%ebx)
  40d3a4: 64 61                        	popal
  40d3a6: 79 6c                        	jns	0x40d414 <.debug_info+0x3ee>
  40d3a8: 69 67 68 74 00 04 7d         	imull	$2097414260, 104(%edi), %esp
  40d3af: 01 16                        	addl	%edx, (%esi)
  40d3b1: e5 00                        	inl	$0, %eax
  40d3b3: 00 00                        	addb	%al, (%eax)
  40d3b5: 0b 74 69 6d                  	orl	109(%ecx,%ebp,2), %esi
  40d3b9: 65 7a 6f                     	jp	0x40d42b <.debug_info+0x405>
  40d3bc: 6e                           	outsb	(%esi), %dx
  40d3bd: 65 00 04 7e                  	addb	%al, %gs:(%esi,%edi,2)
  40d3c1: 01 16                        	addl	%edx, (%esi)
  40d3c3: 51                           	pushl	%ecx
  40d3c4: 01 00                        	addl	%eax, (%eax)
  40d3c6: 00 0b                        	addb	%cl, (%ebx)
  40d3c8: 74 7a                        	je	0x40d444 <.debug_info+0x41e>
  40d3ca: 6e                           	outsb	(%esi), %dx
  40d3cb: 61                           	popal
  40d3cc: 6d                           	insl	%dx, %es:(%edi)
  40d3cd: 65 00 04 7f                  	addb	%al, %gs:(%edi,%edi,2)
  40d3d1: 01 16                        	addl	%edx, (%esi)
  40d3d3: 5c                           	popl	%esp
  40d3d4: 03 00                        	addl	(%eax), %eax
  40d3d6: 00 07                        	addb	%al, (%edi)
  40d3d8: 68 61 73 68 76               	pushl	$1986556769
  40d3dd: 61                           	popal
  40d3de: 6c                           	insb	%dx, %es:(%edi)
  40d3df: 5f                           	popl	%edi
  40d3e0: 74 00                        	je	0x40d3e2 <.debug_info+0x3bc>
  40d3e2: 05 2a 16 f1 00               	addl	$15799850, %eax
  40d3e7: 00 00                        	addb	%al, (%eax)
  40d3e9: 07                           	popl	%es
  40d3ea: 68 74 61 62 5f               	pushl	$1600282996
  40d3ef: 68 61 73 68 00               	pushl	$6845281
  40d3f4: 05 2f 15 d5 03               	addl	$64296239, %eax
  40d3f9: 00 00                        	addb	%al, (%eax)
  40d3fb: 06                           	pushl	%es
  40d3fc: 04 db                        	addb	$-37, %al
  40d3fe: 03 00                        	addl	(%eax), %eax
  40d400: 00 0d b1 03 00 00            	addb	%cl, 945
  40d406: ea 03 00 00 0e ea 03         	ljmpl	$1002, $234881027
  40d40d: 00 00                        	addb	%al, (%eax)
  40d40f: 00 06                        	addb	%al, (%esi)
  40d411: 04 f0                        	addb	$-16, %al
  40d413: 03 00                        	addl	(%eax), %eax
  40d415: 00 0f                        	addb	%cl, (%edi)
  40d417: 07                           	popl	%es
  40d418: 68 74 61 62 5f               	pushl	$1600282996
  40d41d: 65 71 00                     	jno	0x40d420 <.debug_info+0x3fa>
  40d420: 05 36 0f 01 04               	addl	$67178294, %eax
  40d425: 00 00                        	addb	%al, (%eax)
  40d427: 06                           	pushl	%es
  40d428: 04 07                        	addb	$7, %al
  40d42a: 04 00                        	addb	$0, %al
  40d42c: 00 0d e5 00 00 00            	addb	%cl, 229
  40d432: 1b 04 00                     	sbbl	(%eax,%eax), %eax
  40d435: 00 0e                        	addb	%cl, (%esi)
  40d437: ea 03 00 00 0e ea 03         	ljmpl	$1002, $234881027
  40d43e: 00 00                        	addb	%al, (%eax)
  40d440: 00 0a                        	addb	%cl, (%edx)
  40d442: 68 74 61 62 5f               	pushl	$1600282996
  40d447: 68 61 73 68 5f               	pushl	$1600680801
  40d44c: 70 6f                        	jo	0x40d4bd <.debug_info+0x497>
  40d44e: 69 6e 74 65 72 00 05         	imull	$83915365, 116(%esi), %ebp
  40d455: bb 12 c3 03 00               	movl	$246546, %ebx
  40d45a: 00 0a                        	addb	%cl, (%edx)
  40d45c: 68 74 61 62 5f               	pushl	$1600282996
  40d461: 65 71 5f                     	jno	0x40d4c3 <.debug_info+0x49d>
  40d464: 70 6f                        	jo	0x40d4d5 <.debug_info+0x4af>
  40d466: 69 6e 74 65 72 00 05         	imull	$83915365, 116(%esi), %ebp
  40d46d: be 10 f1 03 00               	movl	$258320, %esi
  40d472: 00 02                        	addb	%al, (%edx)
  40d474: 01 08                        	addl	%ecx, (%eax)
  40d476: 75 6e                        	jne	0x40d4e6 <.debug_info+0x4c0>
  40d478: 73 69                        	jae	0x40d4e3 <.debug_info+0x4bd>
  40d47a: 67 6e                        	outsb	(%si), %dx
  40d47c: 65 64 20 63 68               	andb	%ah, %fs:104(%ebx)
  40d481: 61                           	popal
  40d482: 72 00                        	jb	0x40d484 <.debug_info+0x45e>
  40d484: 10 73 74                     	adcb	%dh, 116(%ebx)
  40d487: 72 69                        	jb	0x40d4f2 <.debug_info+0x4cc>
  40d489: 6e                           	outsb	(%esi), %dx
  40d48a: 67 6f                        	outsl	(%si), %dx
  40d48c: 70 5f                        	jo	0x40d4ed <.debug_info+0x4c7>
  40d48e: 61                           	popal
  40d48f: 6c                           	insb	%dx, %es:(%edi)
  40d490: 67 00 07                     	addb	%al, (%bx)
  40d493: 04 f1                        	addb	$-15, %al
  40d495: 00 00                        	addb	%al, (%eax)
  40d497: 00 08                        	addb	%cl, (%eax)
  40d499: 1d 06 0c 05 00               	sbbl	$330758, %eax
  40d49e: 00 11                        	addb	%dl, (%ecx)
  40d4a0: 6e                           	outsb	(%esi), %dx
  40d4a1: 6f                           	outsl	(%esi), %dx
  40d4a2: 5f                           	popl	%edi
  40d4a3: 73 74                        	jae	0x40d519 <.debug_info+0x4f3>
  40d4a5: 72 69                        	jb	0x40d510 <.debug_info+0x4ea>
  40d4a7: 6e                           	outsb	(%esi), %dx
  40d4a8: 67 6f                        	outsl	(%si), %dx
  40d4aa: 70 00                        	jo	0x40d4ac <.debug_info+0x486>
  40d4ac: 00 11                        	addb	%dl, (%ecx)
  40d4ae: 6c                           	insb	%dx, %es:(%edi)
  40d4af: 69 62 63 61 6c 6c 00         	imull	$7105633, 99(%edx), %esp
  40d4b6: 01 11                        	addl	%edx, (%ecx)
  40d4b8: 72 65                        	jb	0x40d51f <.debug_info+0x4f9>
  40d4ba: 70 5f                        	jo	0x40d51b <.debug_info+0x4f5>
  40d4bc: 70 72                        	jo	0x40d530 <.debug_info+0x50a>
  40d4be: 65 66 69 78 5f 31 5f         	imulw	$24369, %gs:95(%eax), %di
  40d4c5: 62 79 74                     	bound	%edi, 116(%ecx)
  40d4c8: 65 00 02                     	addb	%al, %gs:(%edx)
  40d4cb: 11 72 65                     	adcl	%esi, 101(%edx)
  40d4ce: 70 5f                        	jo	0x40d52f <.debug_info+0x509>
  40d4d0: 70 72                        	jo	0x40d544 <.debug_info+0x51e>
  40d4d2: 65 66 69 78 5f 34 5f         	imulw	$24372, %gs:95(%eax), %di
  40d4d9: 62 79 74                     	bound	%edi, 116(%ecx)
  40d4dc: 65 00 03                     	addb	%al, %gs:(%ebx)
  40d4df: 11 72 65                     	adcl	%esi, 101(%edx)
  40d4e2: 70 5f                        	jo	0x40d543 <.debug_info+0x51d>
  40d4e4: 70 72                        	jo	0x40d558 <.debug_info+0x532>
  40d4e6: 65 66 69 78 5f 38 5f         	imulw	$24376, %gs:95(%eax), %di
  40d4ed: 62 79 74                     	bound	%edi, 116(%ecx)
  40d4f0: 65 00 04 11                  	addb	%al, %gs:(%ecx,%edx)
  40d4f4: 6c                           	insb	%dx, %es:(%edi)
  40d4f5: 6f                           	outsl	(%esi), %dx
  40d4f6: 6f                           	outsl	(%esi), %dx
  40d4f7: 70 5f                        	jo	0x40d558 <.debug_info+0x532>
  40d4f9: 31 5f 62                     	xorl	%ebx, 98(%edi)
  40d4fc: 79 74                        	jns	0x40d572 <.debug_info+0x54c>
  40d4fe: 65 00 05 11 6c 6f 6f         	addb	%al, %gs:1869573137
  40d505: 70 00                        	jo	0x40d507 <.debug_info+0x4e1>
  40d507: 06                           	pushl	%es
  40d508: 11 75 6e                     	adcl	%esi, 110(%ebp)
  40d50b: 72 6f                        	jb	0x40d57c <.debug_info+0x556>
  40d50d: 6c                           	insb	%dx, %es:(%edi)
  40d50e: 6c                           	insb	%dx, %es:(%edi)
  40d50f: 65 64 5f                     	popl	%edi
  40d512: 6c                           	insb	%dx, %es:(%edi)
  40d513: 6f                           	outsl	(%esi), %dx
  40d514: 6f                           	outsl	(%esi), %dx
  40d515: 70 00                        	jo	0x40d517 <.debug_info+0x4f1>
  40d517: 07                           	popl	%es
  40d518: 11 76 65                     	adcl	%esi, 101(%esi)
  40d51b: 63 74 6f 72                  	arpl	%si, 114(%edi,%ebp,2)
  40d51f: 5f                           	popl	%edi
  40d520: 6c                           	insb	%dx, %es:(%edi)
  40d521: 6f                           	outsl	(%esi), %dx
  40d522: 6f                           	outsl	(%esi), %dx
  40d523: 70 00                        	jo	0x40d525 <.debug_info+0x4ff>
  40d525: 08 11                        	orb	%dl, (%ecx)
  40d527: 6c                           	insb	%dx, %es:(%edi)
  40d528: 61                           	popal
  40d529: 73 74                        	jae	0x40d59f <.debug_info+0x579>
  40d52b: 5f                           	popl	%edi
  40d52c: 61                           	popal
  40d52d: 6c                           	insb	%dx, %es:(%edi)
  40d52e: 67 00 09                     	addb	%cl, (%bx,%di)
  40d531: 00 03                        	addb	%al, (%ebx)
  40d533: 5e                           	popl	%esi
  40d534: 04 00                        	addb	$0, %al
  40d536: 00 08                        	addb	%cl, (%eax)
  40d538: 27                           	daa
  40d539: 05 00 00 1c 05               	addl	$85721088, %eax
  40d53e: 00 00                        	addb	%al, (%eax)
  40d540: 09 00                        	orl	%eax, (%eax)
  40d542: 03 11                        	addl	(%ecx), %edx
  40d544: 05 00 00 06 04               	addl	$67502080, %eax
  40d549: 4c                           	decl	%esp
  40d54a: 01 00                        	addl	%eax, (%eax)
  40d54c: 00 03                        	addb	%al, (%ebx)
  40d54e: 21 05 00 00 0b 75            	andl	%eax, 1963655168
  40d554: 6e                           	outsb	(%esi), %dx
  40d555: 73 70                        	jae	0x40d5c7 <.debug_info+0x5a1>
  40d557: 65 63 5f 73                  	arpl	%bx, %gs:115(%edi)
  40d55b: 74 72                        	je	0x40d5cf <.debug_info+0x5a9>
  40d55d: 69 6e 67 73 00 06 4a         	imull	$1241907315, 103(%esi), %ebp
  40d564: 01 1a                        	addl	%ebx, (%edx)
  40d566: 1c 05                        	sbbb	$5, %al
  40d568: 00 00                        	addb	%al, (%eax)
  40d56a: 0b 75 6e                     	orl	110(%ebp), %esi
  40d56d: 73 70                        	jae	0x40d5df <.debug_info+0x5b9>
  40d56f: 65 63 76 5f                  	arpl	%si, %gs:95(%esi)
  40d573: 73 74                        	jae	0x40d5e9 <.debug_info+0x5c3>
  40d575: 72 69                        	jb	0x40d5e0 <.debug_info+0x5ba>
  40d577: 6e                           	outsb	(%esi), %dx
  40d578: 67 73 00                     	jae	0x40d57b <.debug_info+0x555>
  40d57b: 06                           	pushl	%es
  40d57c: a6                           	cmpsb	%es:(%edi), (%esi)
  40d57d: 01 1a                        	addl	%ebx, (%edx)
  40d57f: 1c 05                        	sbbb	$5, %al
  40d581: 00 00                        	addb	%al, (%eax)
  40d583: 04 73                        	addb	$115, %al
  40d585: 74 72                        	je	0x40d5f9 <.debug_info+0x5d3>
  40d587: 69 6e 67 6f 70 5f 73         	imull	$1935634543, 103(%esi), %ebp
  40d58e: 74 72                        	je	0x40d602 <.debug_info+0x5dc>
  40d590: 61                           	popal
  40d591: 74 65                        	je	0x40d5f8 <.debug_info+0x5d2>
  40d593: 67 79 00                     	jns	0x40d596 <.debug_info+0x570>
  40d596: 0c 07                        	orb	$7, %al
  40d598: e1 10                        	loope	0x40d5aa <.debug_info+0x584>
  40d59a: a4                           	movsb	(%esi), %es:(%edi)
  40d59b: 05 00 00 05 6d               	addl	$1829044224, %eax
  40d5a0: 61                           	popal
  40d5a1: 78 00                        	js	0x40d5a3 <.debug_info+0x57d>
  40d5a3: 07                           	popl	%es
  40d5a4: e2 0f                        	loop	0x40d5b5 <.debug_info+0x58f>
  40d5a6: ec                           	inb	%dx, %al
  40d5a7: 00 00                        	addb	%al, (%eax)
  40d5a9: 00 00                        	addb	%al, (%eax)
  40d5ab: 05 61 6c 67 00               	addl	$6777953, %eax
  40d5b0: 07                           	popl	%es
  40d5b1: e3 1d                        	jecxz	0x40d5d0 <.debug_info+0x5aa>
  40d5b3: 0c 05                        	orb	$5, %al
  40d5b5: 00 00                        	addb	%al, (%eax)
  40d5b7: 04 05                        	addb	$5, %al
  40d5b9: 6e                           	outsb	(%esi), %dx
  40d5ba: 6f                           	outsl	(%esi), %dx
  40d5bb: 61                           	popal
  40d5bc: 6c                           	insb	%dx, %es:(%edi)
  40d5bd: 69 67 6e 00 07 e4 09         	imull	$165938944, 110(%edi), %esp
  40d5c4: e5 00                        	inl	$0, %eax
  40d5c6: 00 00                        	addb	%al, (%eax)
  40d5c8: 08 00                        	orb	%al, (%eax)
  40d5ca: 03 5d 05                     	addl	5(%ebp), %ebx
  40d5cd: 00 00                        	addb	%al, (%eax)
  40d5cf: 04 73                        	addb	$115, %al
  40d5d1: 74 72                        	je	0x40d645 <.debug_info+0x61f>
  40d5d3: 69 6e 67 6f 70 5f 61         	imull	$1633644655, 103(%esi), %ebp
  40d5da: 6c                           	insb	%dx, %es:(%edi)
  40d5db: 67 73 00                     	jae	0x40d5de <.debug_info+0x5b8>
  40d5de: 34 07                        	xorb	$7, %al
  40d5e0: de 08                        	fimuls	(%eax)
  40d5e2: e5 05                        	inl	$5, %eax
  40d5e4: 00 00                        	addb	%al, (%eax)
  40d5e6: 05 75 6e 6b 6e               	addl	$1852534389, %eax
  40d5eb: 6f                           	outsl	(%esi), %dx
  40d5ec: 77 6e                        	ja	0x40d65c <.debug_info+0x636>
  40d5ee: 5f                           	popl	%edi
  40d5ef: 73 69                        	jae	0x40d65a <.debug_info+0x634>
  40d5f1: 7a 65                        	jp	0x40d658 <.debug_info+0x632>
  40d5f3: 00 07                        	addb	%al, (%edi)
  40d5f5: e0 1b                        	loopne	0x40d612 <.debug_info+0x5ec>
  40d5f7: 0c 05                        	orb	$5, %al
  40d5f9: 00 00                        	addb	%al, (%eax)
  40d5fb: 00 05 73 69 7a 65            	addb	%al, 1702521203
  40d601: 00 07                        	addb	%al, (%edi)
  40d603: e5 05                        	inl	$5, %eax
  40d605: f5                           	cmc
  40d606: 05 00 00 04 00               	addl	$262144, %eax
  40d60b: 08 a4 05 00 00 f5 05         	orb	%ah, 99942400(%ebp,%eax)
  40d612: 00 00                        	addb	%al, (%eax)
  40d614: 0c f1                        	orb	$-15, %al
  40d616: 00 00                        	addb	%al, (%eax)
  40d618: 00 03                        	addb	%al, (%ebx)
  40d61a: 00 03                        	addb	%al, (%ebx)
  40d61c: e5 05                        	inl	$5, %eax
  40d61e: 00 00                        	addb	%al, (%eax)
  40d620: 12 70 72                     	adcb	114(%eax), %dh
  40d623: 6f                           	outsl	(%esi), %dx
  40d624: 63 65 73                     	arpl	%sp, 115(%ebp)
  40d627: 73 6f                        	jae	0x40d698 <.debug_info+0x672>
  40d629: 72 5f                        	jb	0x40d68a <.debug_info+0x664>
  40d62b: 63 6f 73                     	arpl	%bp, 115(%edi)
  40d62e: 74 73                        	je	0x40d6a3 <.debug_info+0x67d>
  40d630: 00 90 01 07 ea 08            	addb	%dl, 149554945(%eax)
  40d636: 71 0b                        	jno	0x40d643 <.debug_info+0x61d>
  40d638: 00 00                        	addb	%al, (%eax)
  40d63a: 05 61 64 64 00               	addl	$6579297, %eax
  40d63f: 07                           	popl	%es
  40d640: eb 0d                        	jmp	0x40d64f <.debug_info+0x629>
  40d642: ec                           	inb	%dx, %al
  40d643: 00 00                        	addb	%al, (%eax)
  40d645: 00 00                        	addb	%al, (%eax)
  40d647: 05 6c 65 61 00               	addl	$6382956, %eax
  40d64c: 07                           	popl	%es
  40d64d: ec                           	inb	%dx, %al
  40d64e: 0d ec 00 00 00               	orl	$236, %eax
  40d653: 04 05                        	addb	$5, %al
  40d655: 73 68                        	jae	0x40d6bf <.debug_info+0x699>
  40d657: 69 66 74 5f 76 61 72         	imull	$1918989919, 116(%esi), %esp
  40d65e: 00 07                        	addb	%al, (%edi)
  40d660: ed                           	inl	%dx, %eax
  40d661: 0d ec 00 00 00               	orl	$236, %eax
  40d666: 08 05 73 68 69 66            	orb	%al, 1718184051
  40d66c: 74 5f                        	je	0x40d6cd <.debug_info+0x6a7>
  40d66e: 63 6f 6e                     	arpl	%bp, 110(%edi)
  40d671: 73 74                        	jae	0x40d6e7 <.debug_info+0x6c1>
  40d673: 00 07                        	addb	%al, (%edi)
  40d675: ee                           	outb	%al, %dx
  40d676: 0d ec 00 00 00               	orl	$236, %eax
  40d67b: 0c 05                        	orb	$5, %al
  40d67d: 6d                           	insl	%dx, %es:(%edi)
  40d67e: 75 6c                        	jne	0x40d6ec <.debug_info+0x6c6>
  40d680: 74 5f                        	je	0x40d6e1 <.debug_info+0x6bb>
  40d682: 69 6e 69 74 00 07 ef         	imull	$4010213492, 105(%esi), %ebp
  40d689: 0d 86 0b 00 00               	orl	$2950, %eax
  40d68e: 10 05 6d 75 6c 74            	adcb	%al, 1953265005
  40d694: 5f                           	popl	%edi
  40d695: 62 69 74                     	bound	%ebp, 116(%ecx)
  40d698: 00 07                        	addb	%al, (%edi)
  40d69a: f1                           	<unknown>
  40d69b: 0d ec 00 00 00               	orl	$236, %eax
  40d6a0: 24 05                        	andb	$5, %al
  40d6a2: 64 69 76 69 64 65 00 07      	imull	$117466468, %fs:105(%esi), %esi
  40d6aa: f2 0d 86 0b 00 00            	repne		orl	$2950, %eax
  40d6b0: 28 05 6d 6f 76 73            	subb	%al, 1937141613
  40d6b6: 78 00                        	js	0x40d6b8 <.debug_info+0x692>
  40d6b8: 07                           	popl	%es
  40d6b9: f4                           	hlt
  40d6ba: 07                           	popl	%es
  40d6bb: e5 00                        	inl	$0, %eax
  40d6bd: 00 00                        	addb	%al, (%eax)
  40d6bf: 3c 05                        	cmpb	$5, %al
  40d6c1: 6d                           	insl	%dx, %es:(%edi)
  40d6c2: 6f                           	outsl	(%esi), %dx
  40d6c3: 76 7a                        	jbe	0x40d73f <.debug_info+0x719>
  40d6c5: 78 00                        	js	0x40d6c7 <.debug_info+0x6a1>
  40d6c7: 07                           	popl	%es
  40d6c8: f5                           	cmc
  40d6c9: 07                           	popl	%es
  40d6ca: e5 00                        	inl	$0, %eax
  40d6cc: 00 00                        	addb	%al, (%eax)
  40d6ce: 40                           	incl	%eax
  40d6cf: 05 6c 61 72 67               	addl	$1735549292, %eax
  40d6d4: 65 5f                        	popl	%edi
  40d6d6: 69 6e 73 6e 00 07 f6         	imull	$4127653998, 115(%esi), %ebp
  40d6dd: 0d ec 00 00 00               	orl	$236, %eax
  40d6e2: 44                           	incl	%esp
  40d6e3: 05 6d 6f 76 65               	addl	$1702260589, %eax
  40d6e8: 5f                           	popl	%edi
  40d6e9: 72 61                        	jb	0x40d74c <.debug_info+0x726>
  40d6eb: 74 69                        	je	0x40d756 <.debug_info+0x730>
  40d6ed: 6f                           	outsl	(%esi), %dx
  40d6ee: 00 07                        	addb	%al, (%edi)
  40d6f0: f7 0d ec 00 00 00            	<unknown>
  40d6f6: 48                           	decl	%eax
  40d6f7: 05 6d 6f 76 7a               	addl	$2054582125, %eax
  40d6fc: 62 6c 5f 6c                  	bound	%ebp, 108(%edi,%ebx,2)
  40d700: 6f                           	outsl	(%esi), %dx
  40d701: 61                           	popal
  40d702: 64 00 07                     	addb	%al, %fs:(%edi)
  40d705: f9                           	stc
  40d706: 0d ec 00 00 00               	orl	$236, %eax
  40d70b: 4c                           	decl	%esp
  40d70c: 05 69 6e 74 5f               	addl	$1601465961, %eax
  40d711: 6c                           	insb	%dx, %es:(%edi)
  40d712: 6f                           	outsl	(%esi), %dx
  40d713: 61                           	popal
  40d714: 64 00 07                     	addb	%al, %fs:(%edi)
  40d717: fa                           	cli
  40d718: 0d 9b 0b 00 00               	orl	$2971, %eax
  40d71d: 50                           	pushl	%eax
  40d71e: 05 69 6e 74 5f               	addl	$1601465961, %eax
  40d723: 73 74                        	jae	0x40d799 <.debug_info+0x773>
  40d725: 6f                           	outsl	(%esi), %dx
  40d726: 72 65                        	jb	0x40d78d <.debug_info+0x767>
  40d728: 00 07                        	addb	%al, (%edi)
  40d72a: fd                           	std
  40d72b: 0d 9b 0b 00 00               	orl	$2971, %eax
  40d730: 5c                           	popl	%esp
  40d731: 05 66 70 5f 6d               	addl	$1834971238, %eax
  40d736: 6f                           	outsl	(%esi), %dx
  40d737: 76 65                        	jbe	0x40d79e <.debug_info+0x778>
  40d739: 00 07                        	addb	%al, (%edi)
  40d73b: ff 0d ec 00 00 00            	decl	236
  40d741: 68 13 66 70 5f               	pushl	$1601201683
  40d746: 6c                           	insb	%dx, %es:(%edi)
  40d747: 6f                           	outsl	(%esi), %dx
  40d748: 61                           	popal
  40d749: 64 00 07                     	addb	%al, %fs:(%edi)
  40d74c: 00 01                        	addb	%al, (%ecx)
  40d74e: 0d 9b 0b 00 00               	orl	$2971, %eax
  40d753: 6c                           	insb	%dx, %es:(%edi)
  40d754: 13 66 70                     	adcl	112(%esi), %esp
  40d757: 5f                           	popl	%edi
  40d758: 73 74                        	jae	0x40d7ce <.debug_info+0x7a8>
  40d75a: 6f                           	outsl	(%esi), %dx
  40d75b: 72 65                        	jb	0x40d7c2 <.debug_info+0x79c>
  40d75d: 00 07                        	addb	%al, (%edi)
  40d75f: 02 01                        	addb	(%ecx), %al
  40d761: 0d 9b 0b 00 00               	orl	$2971, %eax
  40d766: 78 13                        	js	0x40d77b <.debug_info+0x755>
  40d768: 6d                           	insl	%dx, %es:(%edi)
  40d769: 6d                           	insl	%dx, %es:(%edi)
  40d76a: 78 5f                        	js	0x40d7cb <.debug_info+0x7a5>
  40d76c: 6d                           	insl	%dx, %es:(%edi)
  40d76d: 6f                           	outsl	(%esi), %dx
  40d76e: 76 65                        	jbe	0x40d7d5 <.debug_info+0x7af>
  40d770: 00 07                        	addb	%al, (%edi)
  40d772: 04 01                        	addb	$1, %al
  40d774: 0d ec 00 00 00               	orl	$236, %eax
  40d779: 84 13                        	testb	%dl, (%ebx)
  40d77b: 6d                           	insl	%dx, %es:(%edi)
  40d77c: 6d                           	insl	%dx, %es:(%edi)
  40d77d: 78 5f                        	js	0x40d7de <.debug_info+0x7b8>
  40d77f: 6c                           	insb	%dx, %es:(%edi)
  40d780: 6f                           	outsl	(%esi), %dx
  40d781: 61                           	popal
  40d782: 64 00 07                     	addb	%al, %fs:(%edi)
  40d785: 05 01 0d b0 0b               	addl	$196087041, %eax
  40d78a: 00 00                        	addb	%al, (%eax)
  40d78c: 88 13                        	movb	%dl, (%ebx)
  40d78e: 6d                           	insl	%dx, %es:(%edi)
  40d78f: 6d                           	insl	%dx, %es:(%edi)
  40d790: 78 5f                        	js	0x40d7f1 <.debug_info+0x7cb>
  40d792: 73 74                        	jae	0x40d808 <.debug_info+0x7e2>
  40d794: 6f                           	outsl	(%esi), %dx
  40d795: 72 65                        	jb	0x40d7fc <.debug_info+0x7d6>
  40d797: 00 07                        	addb	%al, (%edi)
  40d799: 07                           	popl	%es
  40d79a: 01 0d b0 0b 00 00            	addl	%ecx, 2992
  40d7a0: 90                           	nop
  40d7a1: 13 78 6d                     	adcl	109(%eax), %edi
  40d7a4: 6d                           	insl	%dx, %es:(%edi)
  40d7a5: 5f                           	popl	%edi
  40d7a6: 6d                           	insl	%dx, %es:(%edi)
  40d7a7: 6f                           	outsl	(%esi), %dx
  40d7a8: 76 65                        	jbe	0x40d80f <.debug_info+0x7e9>
  40d7aa: 00 07                        	addb	%al, (%edi)
  40d7ac: 09 01                        	orl	%eax, (%ecx)
  40d7ae: 0d ec 00 00 00               	orl	$236, %eax
  40d7b3: 98                           	cwtl
  40d7b4: 13 79 6d                     	adcl	109(%ecx), %edi
  40d7b7: 6d                           	insl	%dx, %es:(%edi)
  40d7b8: 5f                           	popl	%edi
  40d7b9: 6d                           	insl	%dx, %es:(%edi)
  40d7ba: 6f                           	outsl	(%esi), %dx
  40d7bb: 76 65                        	jbe	0x40d822 <.debug_info+0x7fc>
  40d7bd: 00 07                        	addb	%al, (%edi)
  40d7bf: 09 01                        	orl	%eax, (%ecx)
  40d7c1: 17                           	popl	%ss
  40d7c2: ec                           	inb	%dx, %al
  40d7c3: 00 00                        	addb	%al, (%eax)
  40d7c5: 00 9c 13 7a 6d 6d 5f         	addb	%bl, 1601006970(%ebx,%edx)
  40d7cc: 6d                           	insl	%dx, %es:(%edi)
  40d7cd: 6f                           	outsl	(%esi), %dx
  40d7ce: 76 65                        	jbe	0x40d835 <.debug_info+0x80f>
  40d7d0: 00 07                        	addb	%al, (%edi)
  40d7d2: 0a 01                        	orb	(%ecx), %al
  40d7d4: 06                           	pushl	%es
  40d7d5: ec                           	inb	%dx, %al
  40d7d6: 00 00                        	addb	%al, (%eax)
  40d7d8: 00 a0 13 73 73 65            	addb	%ah, 1702064915(%eax)
  40d7de: 5f                           	popl	%edi
  40d7df: 6c                           	insb	%dx, %es:(%edi)
  40d7e0: 6f                           	outsl	(%esi), %dx
  40d7e1: 61                           	popal
  40d7e2: 64 00 07                     	addb	%al, %fs:(%edi)
  40d7e5: 0b 01                        	orl	(%ecx), %eax
  40d7e7: 0d 86 0b 00 00               	orl	$2950, %eax
  40d7ec: a4                           	movsb	(%esi), %es:(%edi)
  40d7ed: 13 73 73                     	adcl	115(%ebx), %esi
  40d7f0: 65 5f                        	popl	%edi
  40d7f2: 75 6e                        	jne	0x40d862 <.debug_info+0x83c>
  40d7f4: 61                           	popal
  40d7f5: 6c                           	insb	%dx, %es:(%edi)
  40d7f6: 69 67 6e 65 64 5f 6c         	imull	$1818190949, 110(%edi), %esp
  40d7fd: 6f                           	outsl	(%esi), %dx
  40d7fe: 61                           	popal
  40d7ff: 64 00 07                     	addb	%al, %fs:(%edi)
  40d802: 0d 01 0d 86 0b               	orl	$193334529, %eax
  40d807: 00 00                        	addb	%al, (%eax)
  40d809: b8 13 73 73 65               	movl	$1702064915, %eax
  40d80e: 5f                           	popl	%edi
  40d80f: 73 74                        	jae	0x40d885 <.debug_info+0x85f>
  40d811: 6f                           	outsl	(%esi), %dx
  40d812: 72 65                        	jb	0x40d879 <.debug_info+0x853>
  40d814: 00 07                        	addb	%al, (%edi)
  40d816: 0e                           	pushl	%cs
  40d817: 01 0d 86 0b 00 00            	addl	%ecx, 2950
  40d81d: cc                           	int3
  40d81e: 13 73 73                     	adcl	115(%ebx), %esi
  40d821: 65 5f                        	popl	%edi
  40d823: 75 6e                        	jne	0x40d893 <.debug_info+0x86d>
  40d825: 61                           	popal
  40d826: 6c                           	insb	%dx, %es:(%edi)
  40d827: 69 67 6e 65 64 5f 73         	imull	$1935631461, 110(%edi), %esp
  40d82e: 74 6f                        	je	0x40d89f <.debug_info+0x879>
  40d830: 72 65                        	jb	0x40d897 <.debug_info+0x871>
  40d832: 00 07                        	addb	%al, (%edi)
  40d834: 10 01                        	adcb	%al, (%ecx)
  40d836: 0d 86 0b 00 00               	orl	$2950, %eax
  40d83b: e0 13                        	loopne	0x40d850 <.debug_info+0x82a>
  40d83d: 6d                           	insl	%dx, %es:(%edi)
  40d83e: 6d                           	insl	%dx, %es:(%edi)
  40d83f: 78 73                        	js	0x40d8b4 <.debug_info+0x88e>
  40d841: 73 65                        	jae	0x40d8a8 <.debug_info+0x882>
  40d843: 5f                           	popl	%edi
  40d844: 74 6f                        	je	0x40d8b5 <.debug_info+0x88f>
  40d846: 5f                           	popl	%edi
  40d847: 69 6e 74 65 67 65 72         	imull	$1919248229, 116(%esi), %ebp
  40d84e: 00 07                        	addb	%al, (%edi)
  40d850: 11 01                        	adcl	%eax, (%ecx)
  40d852: 0d ec 00 00 00               	orl	$236, %eax
  40d857: f4                           	hlt
  40d858: 13 73 73                     	adcl	115(%ebx), %esi
  40d85b: 65 6d                        	insl	%dx, %es:(%edi)
  40d85d: 6d                           	insl	%dx, %es:(%edi)
  40d85e: 78 5f                        	js	0x40d8bf <.debug_info+0x899>
  40d860: 74 6f                        	je	0x40d8d1 <.debug_info+0x8ab>
  40d862: 5f                           	popl	%edi
  40d863: 69 6e 74 65 67 65 72         	imull	$1919248229, 116(%esi), %ebp
  40d86a: 00 07                        	addb	%al, (%edi)
  40d86c: 13 01                        	adcl	(%ecx), %eax
  40d86e: 0d ec 00 00 00               	orl	$236, %eax
  40d873: f8                           	clc
  40d874: 13 67 61                     	adcl	97(%edi), %esp
  40d877: 74 68                        	je	0x40d8e1 <.debug_info+0x8bb>
  40d879: 65 72 5f                     	jb	0x40d8db <.debug_info+0x8b5>
  40d87c: 73 74                        	jae	0x40d8f2 <.debug_info+0x8cc>
  40d87e: 61                           	popal
  40d87f: 74 69                        	je	0x40d8ea <.debug_info+0x8c4>
  40d881: 63 00                        	arpl	%ax, (%eax)
  40d883: 07                           	popl	%es
  40d884: 14 01                        	adcb	$1, %al
  40d886: 0d ec 00 00 00               	orl	$236, %eax
  40d88b: fc                           	cld
  40d88c: 14 67                        	adcb	$103, %al
  40d88e: 61                           	popal
  40d88f: 74 68                        	je	0x40d8f9 <.debug_info+0x8d3>
  40d891: 65 72 5f                     	jb	0x40d8f3 <.debug_info+0x8cd>
  40d894: 70 65                        	jo	0x40d8fb <.debug_info+0x8d5>
  40d896: 72 5f                        	jb	0x40d8f7 <.debug_info+0x8d1>
  40d898: 65 6c                        	insb	%dx, %es:(%edi)
  40d89a: 74 00                        	je	0x40d89c <.debug_info+0x876>
  40d89c: 07                           	popl	%es
  40d89d: 14 01                        	adcb	$1, %al
  40d89f: 1c ec                        	sbbb	$-20, %al
  40d8a1: 00 00                        	addb	%al, (%eax)
  40d8a3: 00 00                        	addb	%al, (%eax)
  40d8a5: 01 14 73                     	addl	%edx, (%ebx,%esi,2)
  40d8a8: 63 61 74                     	arpl	%sp, 116(%ecx)
  40d8ab: 74 65                        	je	0x40d912 <.debug_info+0x8ec>
  40d8ad: 72 5f                        	jb	0x40d90e <.debug_info+0x8e8>
  40d8af: 73 74                        	jae	0x40d925 <.debug_info+0x8ff>
  40d8b1: 61                           	popal
  40d8b2: 74 69                        	je	0x40d91d <.debug_info+0x8f7>
  40d8b4: 63 00                        	arpl	%ax, (%eax)
  40d8b6: 07                           	popl	%es
  40d8b7: 16                           	pushl	%ss
  40d8b8: 01 0d ec 00 00 00            	addl	%ecx, 236
  40d8be: 04 01                        	addb	$1, %al
  40d8c0: 14 73                        	adcb	$115, %al
  40d8c2: 63 61 74                     	arpl	%sp, 116(%ecx)
  40d8c5: 74 65                        	je	0x40d92c <.debug_info+0x906>
  40d8c7: 72 5f                        	jb	0x40d928 <.debug_info+0x902>
  40d8c9: 70 65                        	jo	0x40d930 <.debug_info+0x90a>
  40d8cb: 72 5f                        	jb	0x40d92c <.debug_info+0x906>
  40d8cd: 65 6c                        	insb	%dx, %es:(%edi)
  40d8cf: 74 00                        	je	0x40d8d1 <.debug_info+0x8ab>
  40d8d1: 07                           	popl	%es
  40d8d2: 16                           	pushl	%ss
  40d8d3: 01 1d ec 00 00 00            	addl	%ebx, 236
  40d8d9: 08 01                        	orb	%al, (%ecx)
  40d8db: 14 6c                        	adcb	$108, %al
  40d8dd: 31 5f 63                     	xorl	%ebx, 99(%edi)
  40d8e0: 61                           	popal
  40d8e1: 63 68 65                     	arpl	%bp, 101(%eax)
  40d8e4: 5f                           	popl	%edi
  40d8e5: 73 69                        	jae	0x40d950 <.debug_info+0x92a>
  40d8e7: 7a 65                        	jp	0x40d94e <.debug_info+0x928>
  40d8e9: 00 07                        	addb	%al, (%edi)
  40d8eb: 18 01                        	sbbb	%al, (%ecx)
  40d8ed: 0d ec 00 00 00               	orl	$236, %eax
  40d8f2: 0c 01                        	orb	$1, %al
  40d8f4: 14 6c                        	adcb	$108, %al
  40d8f6: 32 5f 63                     	xorb	99(%edi), %bl
  40d8f9: 61                           	popal
  40d8fa: 63 68 65                     	arpl	%bp, 101(%eax)
  40d8fd: 5f                           	popl	%edi
  40d8fe: 73 69                        	jae	0x40d969 <.debug_info+0x943>
  40d900: 7a 65                        	jp	0x40d967 <.debug_info+0x941>
  40d902: 00 07                        	addb	%al, (%edi)
  40d904: 19 01                        	sbbl	%eax, (%ecx)
  40d906: 0d ec 00 00 00               	orl	$236, %eax
  40d90b: 10 01                        	adcb	%al, (%ecx)
  40d90d: 14 70                        	adcb	$112, %al
  40d90f: 72 65                        	jb	0x40d976 <.debug_info+0x950>
  40d911: 66 65 74 63                  	je	0x40d978 <.debug_info+0x952>
  40d915: 68 5f 62 6c 6f               	pushl	$1869374047
  40d91a: 63 6b 00                     	arpl	%bp, (%ebx)
  40d91d: 07                           	popl	%es
  40d91e: 1a 01                        	sbbb	(%ecx), %al
  40d920: 0d ec 00 00 00               	orl	$236, %eax
  40d925: 14 01                        	adcb	$1, %al
  40d927: 14 73                        	adcb	$115, %al
  40d929: 69 6d 75 6c 74 61 6e         	imull	$1851880556, 117(%ebp), %ebp
  40d930: 65 6f                        	outsl	%gs:(%esi), %dx
  40d932: 75 73                        	jne	0x40d9a7 <.debug_info+0x981>
  40d934: 5f                           	popl	%edi
  40d935: 70 72                        	jo	0x40d9a9 <.debug_info+0x983>
  40d937: 65 66 65 74 63               	je	0x40d99f <.debug_info+0x979>
  40d93c: 68 65 73 00 07               	pushl	$117470053
  40d941: 1b 01                        	sbbl	(%ecx), %eax
  40d943: 0d ec 00 00 00               	orl	$236, %eax
  40d948: 18 01                        	sbbb	%al, (%ecx)
  40d94a: 14 62                        	adcb	$98, %al
  40d94c: 72 61                        	jb	0x40d9af <.debug_info+0x989>
  40d94e: 6e                           	outsb	(%esi), %dx
  40d94f: 63 68 5f                     	arpl	%bp, 95(%eax)
  40d952: 63 6f 73                     	arpl	%bp, 115(%edi)
  40d955: 74 00                        	je	0x40d957 <.debug_info+0x931>
  40d957: 07                           	popl	%es
  40d958: 1d 01 0d ec 00               	sbbl	$15469825, %eax
  40d95d: 00 00                        	addb	%al, (%eax)
  40d95f: 1c 01                        	sbbb	$1, %al
  40d961: 14 66                        	adcb	$102, %al
  40d963: 61                           	popal
  40d964: 64 64 00 07                  	addb	%al, %fs:(%edi)
  40d968: 1e                           	pushl	%ds
  40d969: 01 0d ec 00 00 00            	addl	%ecx, 236
  40d96f: 20 01                        	andb	%al, (%ecx)
  40d971: 14 66                        	adcb	$102, %al
  40d973: 6d                           	insl	%dx, %es:(%edi)
  40d974: 75 6c                        	jne	0x40d9e2 <.debug_info+0x9bc>
  40d976: 00 07                        	addb	%al, (%edi)
  40d978: 1f                           	popl	%ds
  40d979: 01 0d ec 00 00 00            	addl	%ecx, 236
  40d97f: 24 01                        	andb	$1, %al
  40d981: 14 66                        	adcb	$102, %al
  40d983: 64 69 76 00 07 20 01 0d      	imull	$218177543, %fs:(%esi), %esi
  40d98b: ec                           	inb	%dx, %al
  40d98c: 00 00                        	addb	%al, (%eax)
  40d98e: 00 28                        	addb	%ch, (%eax)
  40d990: 01 14 66                     	addl	%edx, (%esi,%eiz,2)
  40d993: 61                           	popal
  40d994: 62 73 00                     	bound	%esi, (%ebx)
  40d997: 07                           	popl	%es
  40d998: 21 01                        	andl	%eax, (%ecx)
  40d99a: 0d ec 00 00 00               	orl	$236, %eax
  40d99f: 2c 01                        	subb	$1, %al
  40d9a1: 14 66                        	adcb	$102, %al
  40d9a3: 63 68 73                     	arpl	%bp, 115(%eax)
  40d9a6: 00 07                        	addb	%al, (%edi)
  40d9a8: 22 01                        	andb	(%ecx), %al
  40d9aa: 0d ec 00 00 00               	orl	$236, %eax
  40d9af: 30 01                        	xorb	%al, (%ecx)
  40d9b1: 14 66                        	adcb	$102, %al
  40d9b3: 73 71                        	jae	0x40da26 <.debug_info+0xa00>
  40d9b5: 72 74                        	jb	0x40da2b <.debug_info+0xa05>
  40d9b7: 00 07                        	addb	%al, (%edi)
  40d9b9: 23 01                        	andl	(%ecx), %eax
  40d9bb: 0d ec 00 00 00               	orl	$236, %eax
  40d9c0: 34 01                        	xorb	$1, %al
  40d9c2: 14 73                        	adcb	$115, %al
  40d9c4: 73 65                        	jae	0x40da2b <.debug_info+0xa05>
  40d9c6: 5f                           	popl	%edi
  40d9c7: 6f                           	outsl	(%esi), %dx
  40d9c8: 70 00                        	jo	0x40d9ca <.debug_info+0x9a4>
  40d9ca: 07                           	popl	%es
  40d9cb: 26 01 0d ec 00 00 00         	addl	%ecx, %es:236
  40d9d2: 38 01                        	cmpb	%al, (%ecx)
  40d9d4: 14 61                        	adcb	$97, %al
  40d9d6: 64 64 73 73                  	jae	0x40da4d <.debug_info+0xa27>
  40d9da: 00 07                        	addb	%al, (%edi)
  40d9dc: 27                           	daa
  40d9dd: 01 0d ec 00 00 00            	addl	%ecx, 236
  40d9e3: 3c 01                        	cmpb	$1, %al
  40d9e5: 14 6d                        	adcb	$109, %al
  40d9e7: 75 6c                        	jne	0x40da55 <.debug_info+0xa2f>
  40d9e9: 73 73                        	jae	0x40da5e <.debug_info+0xa38>
  40d9eb: 00 07                        	addb	%al, (%edi)
  40d9ed: 28 01                        	subb	%al, (%ecx)
  40d9ef: 0d ec 00 00 00               	orl	$236, %eax
  40d9f4: 40                           	incl	%eax
  40d9f5: 01 14 6d 75 6c 73 64         	addl	%edx, 1685286005(,%ebp,2)
  40d9fc: 00 07                        	addb	%al, (%edi)
  40d9fe: 29 01                        	subl	%eax, (%ecx)
  40da00: 0d ec 00 00 00               	orl	$236, %eax
  40da05: 44                           	incl	%esp
  40da06: 01 14 66                     	addl	%edx, (%esi,%eiz,2)
  40da09: 6d                           	insl	%dx, %es:(%edi)
  40da0a: 61                           	popal
  40da0b: 73 73                        	jae	0x40da80 <.debug_info+0xa5a>
  40da0d: 00 07                        	addb	%al, (%edi)
  40da0f: 2a 01                        	subb	(%ecx), %al
  40da11: 0d ec 00 00 00               	orl	$236, %eax
  40da16: 48                           	decl	%eax
  40da17: 01 14 66                     	addl	%edx, (%esi,%eiz,2)
  40da1a: 6d                           	insl	%dx, %es:(%edi)
  40da1b: 61                           	popal
  40da1c: 73 64                        	jae	0x40da82 <.debug_info+0xa5c>
  40da1e: 00 07                        	addb	%al, (%edi)
  40da20: 2b 01                        	subl	(%ecx), %eax
  40da22: 0d ec 00 00 00               	orl	$236, %eax
  40da27: 4c                           	decl	%esp
  40da28: 01 14 64                     	addl	%edx, (%esp,%eiz,2)
  40da2b: 69 76 73 73 00 07 2c         	imull	$738656371, 115(%esi), %esi
  40da32: 01 0d ec 00 00 00            	addl	%ecx, 236
  40da38: 50                           	pushl	%eax
  40da39: 01 14 64                     	addl	%edx, (%esp,%eiz,2)
  40da3c: 69 76 73 64 00 07 2d         	imull	$755433572, 115(%esi), %esi
  40da43: 01 0d ec 00 00 00            	addl	%ecx, 236
  40da49: 54                           	pushl	%esp
  40da4a: 01 14 73                     	addl	%edx, (%ebx,%esi,2)
  40da4d: 71 72                        	jno	0x40dac1 <.debug_info+0xa9b>
  40da4f: 74 73                        	je	0x40dac4 <.debug_info+0xa9e>
  40da51: 73 00                        	jae	0x40da53 <.debug_info+0xa2d>
  40da53: 07                           	popl	%es
  40da54: 2e 01 0d ec 00 00 00         	addl	%ecx, %cs:236
  40da5b: 58                           	popl	%eax
  40da5c: 01 14 73                     	addl	%edx, (%ebx,%esi,2)
  40da5f: 71 72                        	jno	0x40dad3 <.debug_info+0xaad>
  40da61: 74 73                        	je	0x40dad6 <.debug_info+0xab0>
  40da63: 64 00 07                     	addb	%al, %fs:(%edi)
  40da66: 2f                           	das
  40da67: 01 0d ec 00 00 00            	addl	%ecx, 236
  40da6d: 5c                           	popl	%esp
  40da6e: 01 14 72                     	addl	%edx, (%edx,%esi,2)
  40da71: 65 61                        	popal
  40da73: 73 73                        	jae	0x40dae8 <.debug_info+0xac2>
  40da75: 6f                           	outsl	(%esi), %dx
  40da76: 63 5f 69                     	arpl	%bx, 105(%edi)
  40da79: 6e                           	outsb	(%esi), %dx
  40da7a: 74 00                        	je	0x40da7c <.debug_info+0xa56>
  40da7c: 07                           	popl	%es
  40da7d: 30 01                        	xorb	%al, (%ecx)
  40da7f: 0d ec 00 00 00               	orl	$236, %eax
  40da84: 60                           	pushal
  40da85: 01 14 72                     	addl	%edx, (%edx,%esi,2)
  40da88: 65 61                        	popal
  40da8a: 73 73                        	jae	0x40daff <.debug_info+0xad9>
  40da8c: 6f                           	outsl	(%esi), %dx
  40da8d: 63 5f 66                     	arpl	%bx, 102(%edi)
  40da90: 70 00                        	jo	0x40da92 <.debug_info+0xa6c>
  40da92: 07                           	popl	%es
  40da93: 30 01                        	xorb	%al, (%ecx)
  40da95: 1a ec                        	sbbb	%ah, %ch
  40da97: 00 00                        	addb	%al, (%eax)
  40da99: 00 64 01 14                  	addb	%ah, 20(%ecx,%eax)
  40da9d: 72 65                        	jb	0x40db04 <.debug_info+0xade>
  40da9f: 61                           	popal
  40daa0: 73 73                        	jae	0x40db15 <.debug_info+0xaef>
  40daa2: 6f                           	outsl	(%esi), %dx
  40daa3: 63 5f 76                     	arpl	%bx, 118(%edi)
  40daa6: 65 63 5f 69                  	arpl	%bx, %gs:105(%edi)
  40daaa: 6e                           	outsb	(%esi), %dx
  40daab: 74 00                        	je	0x40daad <.debug_info+0xa87>
  40daad: 07                           	popl	%es
  40daae: 30 01                        	xorb	%al, (%ecx)
  40dab0: 26 ec                        	inb	%dx, %al
  40dab2: 00 00                        	addb	%al, (%eax)
  40dab4: 00 68 01                     	addb	%ch, 1(%eax)
  40dab7: 14 72                        	adcb	$114, %al
  40dab9: 65 61                        	popal
  40dabb: 73 73                        	jae	0x40db30 <.debug_info+0xb0a>
  40dabd: 6f                           	outsl	(%esi), %dx
  40dabe: 63 5f 76                     	arpl	%bx, 118(%edi)
  40dac1: 65 63 5f 66                  	arpl	%bx, %gs:102(%edi)
  40dac5: 70 00                        	jo	0x40dac7 <.debug_info+0xaa1>
  40dac7: 07                           	popl	%es
  40dac8: 30 01                        	xorb	%al, (%ecx)
  40daca: 37                           	aaa
  40dacb: ec                           	inb	%dx, %al
  40dacc: 00 00                        	addb	%al, (%eax)
  40dace: 00 6c 01 14                  	addb	%ch, 20(%ecx,%eax)
  40dad2: 6d                           	insl	%dx, %es:(%edi)
  40dad3: 65 6d                        	insl	%dx, %es:(%edi)
  40dad5: 63 70 79                     	arpl	%si, 121(%eax)
  40dad8: 00 07                        	addb	%al, (%edi)
  40dada: 37                           	aaa
  40dadb: 01 19                        	addl	%ebx, (%ecx)
  40dadd: b5 0b                        	movb	$11, %ch
  40dadf: 00 00                        	addb	%al, (%eax)
  40dae1: 70 01                        	jo	0x40dae4 <.debug_info+0xabe>
  40dae3: 14 6d                        	adcb	$109, %al
  40dae5: 65 6d                        	insl	%dx, %es:(%edi)
  40dae7: 73 65                        	jae	0x40db4e <.debug_info+0xb28>
  40dae9: 74 00                        	je	0x40daeb <.debug_info+0xac5>
  40daeb: 07                           	popl	%es
  40daec: 37                           	aaa
  40daed: 01 22                        	addl	%esp, (%edx)
  40daef: b5 0b                        	movb	$11, %ch
  40daf1: 00 00                        	addb	%al, (%eax)
  40daf3: 74 01                        	je	0x40daf6 <.debug_info+0xad0>
  40daf5: 14 63                        	adcb	$99, %al
  40daf7: 6f                           	outsl	(%esi), %dx
  40daf8: 6e                           	outsb	(%esi), %dx
  40daf9: 64 5f                        	popl	%edi
  40dafb: 74 61                        	je	0x40db5e <.debug_info+0xb38>
  40dafd: 6b 65 6e 5f                  	imull	$95, 110(%ebp), %esp
  40db01: 62 72 61                     	bound	%esi, 97(%edx)
  40db04: 6e                           	outsb	(%esi), %dx
  40db05: 63 68 5f                     	arpl	%bp, 95(%eax)
  40db08: 63 6f 73                     	arpl	%bp, 115(%edi)
  40db0b: 74 00                        	je	0x40db0d <.debug_info+0xae7>
  40db0d: 07                           	popl	%es
  40db0e: 38 01                        	cmpb	%al, (%ecx)
  40db10: 0d ec 00 00 00               	orl	$236, %eax
  40db15: 78 01                        	js	0x40db18 <.debug_info+0xaf2>
  40db17: 14 63                        	adcb	$99, %al
  40db19: 6f                           	outsl	(%esi), %dx
  40db1a: 6e                           	outsb	(%esi), %dx
  40db1b: 64 5f                        	popl	%edi
  40db1d: 6e                           	outsb	(%esi), %dx
  40db1e: 6f                           	outsl	(%esi), %dx
  40db1f: 74 5f                        	je	0x40db80 <.debug_info+0xb5a>
  40db21: 74 61                        	je	0x40db84 <.debug_info+0xb5e>
  40db23: 6b 65 6e 5f                  	imull	$95, 110(%ebp), %esp
  40db27: 62 72 61                     	bound	%esi, 97(%edx)
  40db2a: 6e                           	outsb	(%esi), %dx
  40db2b: 63 68 5f                     	arpl	%bp, 95(%eax)
  40db2e: 63 6f 73                     	arpl	%bp, 115(%edi)
  40db31: 74 00                        	je	0x40db33 <.debug_info+0xb0d>
  40db33: 07                           	popl	%es
  40db34: 3a 01                        	cmpb	(%ecx), %al
  40db36: 0d ec 00 00 00               	orl	$236, %eax
  40db3b: 7c 01                        	jl	0x40db3e <.debug_info+0xb18>
  40db3d: 14 61                        	adcb	$97, %al
  40db3f: 6c                           	insb	%dx, %es:(%edi)
  40db40: 69 67 6e 5f 6c 6f 6f         	imull	$1869573215, 110(%edi), %esp
  40db47: 70 00                        	jo	0x40db49 <.debug_info+0xb23>
  40db49: 07                           	popl	%es
  40db4a: 40                           	incl	%eax
  40db4b: 01 15 27 05 00 00            	addl	%edx, 1319
  40db51: 80 01 14                     	addb	$20, (%ecx)
  40db54: 61                           	popal
  40db55: 6c                           	insb	%dx, %es:(%edi)
  40db56: 69 67 6e 5f 6a 75 6d         	imull	$1836411487, 110(%edi), %esp
  40db5d: 70 00                        	jo	0x40db5f <.debug_info+0xb39>
  40db5f: 07                           	popl	%es
  40db60: 41                           	incl	%ecx
  40db61: 01 15 27 05 00 00            	addl	%edx, 1319
  40db67: 84 01                        	testb	%al, (%ecx)
  40db69: 14 61                        	adcb	$97, %al
  40db6b: 6c                           	insb	%dx, %es:(%edi)
  40db6c: 69 67 6e 5f 6c 61 62         	imull	$1650551903, 110(%edi), %esp
  40db73: 65 6c                        	insb	%dx, %es:(%edi)
  40db75: 00 07                        	addb	%al, (%edi)
  40db77: 42                           	incl	%edx
  40db78: 01 15 27 05 00 00            	addl	%edx, 1319
  40db7e: 88 01                        	movb	%al, (%ecx)
  40db80: 14 61                        	adcb	$97, %al
  40db82: 6c                           	insb	%dx, %es:(%edi)
  40db83: 69 67 6e 5f 66 75 6e         	imull	$1853187679, 110(%edi), %esp
  40db8a: 63 00                        	arpl	%ax, (%eax)
  40db8c: 07                           	popl	%es
  40db8d: 43                           	incl	%ebx
  40db8e: 01 15 27 05 00 00            	addl	%edx, 1319
  40db94: 8c 01                        	movw	%es, (%ecx)
  40db96: 00 03                        	addb	%al, (%ebx)
  40db98: fa                           	cli
  40db99: 05 00 00 08 ec               	addl	$3959947264, %eax
  40db9e: 00 00                        	addb	%al, (%eax)
  40dba0: 00 86 0b 00 00 0c            	addb	%al, 201326603(%esi)
  40dba6: f1                           	<unknown>
  40dba7: 00 00                        	addb	%al, (%eax)
  40dba9: 00 04 00                     	addb	%al, (%eax,%eax)
  40dbac: 03 76 0b                     	addl	11(%esi), %esi
  40dbaf: 00 00                        	addb	%al, (%eax)
  40dbb1: 08 ec                        	orb	%ch, %ah
  40dbb3: 00 00                        	addb	%al, (%eax)
  40dbb5: 00 9b 0b 00 00 0c            	addb	%bl, 201326603(%ebx)
  40dbbb: f1                           	<unknown>
  40dbbc: 00 00                        	addb	%al, (%eax)
  40dbbe: 00 02                        	addb	%al, (%edx)
  40dbc0: 00 03                        	addb	%al, (%ebx)
  40dbc2: 8b 0b                        	movl	(%ebx), %ecx
  40dbc4: 00 00                        	addb	%al, (%eax)
  40dbc6: 08 ec                        	orb	%ch, %ah
  40dbc8: 00 00                        	addb	%al, (%eax)
  40dbca: 00 b0 0b 00 00 0c            	addb	%dh, 201326603(%eax)
  40dbd0: f1                           	<unknown>
  40dbd1: 00 00                        	addb	%al, (%eax)
  40dbd3: 00 01                        	addb	%al, (%ecx)
  40dbd5: 00 03                        	addb	%al, (%ebx)
  40dbd7: a0 0b 00 00 06               	movb	100663307, %al
  40dbdc: 04 a9                        	addb	$-87, %al
  40dbde: 05 00 00 0b 69               	addl	$1762328576, %eax
  40dbe3: 78 38                        	js	0x40dc1d <.debug_info+0xbf7>
  40dbe5: 36 5f                        	popl	%edi
  40dbe7: 63 6f 73                     	arpl	%bp, 115(%edi)
  40dbea: 74 00                        	je	0x40dbec <.debug_info+0xbc6>
  40dbec: 07                           	popl	%es
  40dbed: 46                           	incl	%esi
  40dbee: 01 26                        	addl	%esp, (%esi)
  40dbf0: ce                           	into
  40dbf1: 0b 00                        	orl	(%eax), %eax
  40dbf3: 00 06                        	addb	%al, (%esi)
  40dbf5: 04 71                        	addb	$113, %al
  40dbf7: 0b 00                        	orl	(%eax), %eax
  40dbf9: 00 0b                        	addb	%cl, (%ebx)
  40dbfb: 69 78 38 36 5f 73 69         	imull	$1769168694, 56(%eax), %edi
  40dc02: 7a 65                        	jp	0x40dc69 <.debug_info+0xc43>
  40dc04: 5f                           	popl	%edi
  40dc05: 63 6f 73                     	arpl	%bp, 115(%edi)
  40dc08: 74 00                        	je	0x40dc0a <.debug_info+0xbe4>
  40dc0a: 07                           	popl	%es
  40dc0b: 47                           	incl	%edi
  40dc0c: 01 25 71 0b 00 00            	addl	%esp, 2929
  40dc12: 15 69 78 38 36               	adcl	$909670505, %eax
  40dc17: 5f                           	popl	%edi
  40dc18: 74 75                        	je	0x40dc8f <.debug_info+0xc69>
  40dc1a: 6e                           	outsb	(%esi), %dx
  40dc1b: 65 5f                        	popl	%edi
  40dc1d: 69 6e 64 69 63 65 73         	imull	$1936024425, 100(%esi), %ebp
  40dc24: 00 07                        	addb	%al, (%edi)
  40dc26: 04 f1                        	addb	$-15, %al
  40dc28: 00 00                        	addb	%al, (%eax)
  40dc2a: 00 07                        	addb	%al, (%edi)
  40dc2c: a8 01                        	testb	$1, %al
  40dc2e: 06                           	pushl	%es
  40dc2f: 2d 16 00 00 11               	subl	$285212694, %eax
  40dc34: 58                           	popl	%eax
  40dc35: 38 36                        	cmpb	%dh, (%esi)
  40dc37: 5f                           	popl	%edi
  40dc38: 54                           	pushl	%esp
  40dc39: 55                           	pushl	%ebp
  40dc3a: 4e                           	decl	%esi
  40dc3b: 45                           	incl	%ebp
  40dc3c: 5f                           	popl	%edi
  40dc3d: 53                           	pushl	%ebx
  40dc3e: 43                           	incl	%ebx
  40dc3f: 48                           	decl	%eax
  40dc40: 45                           	incl	%ebp
  40dc41: 44                           	incl	%esp
  40dc42: 55                           	pushl	%ebp
  40dc43: 4c                           	decl	%esp
  40dc44: 45                           	incl	%ebp
  40dc45: 00 00                        	addb	%al, (%eax)
  40dc47: 11 58 38                     	adcl	%ebx, 56(%eax)
  40dc4a: 36 5f                        	popl	%edi
  40dc4c: 54                           	pushl	%esp
  40dc4d: 55                           	pushl	%ebp
  40dc4e: 4e                           	decl	%esi
  40dc4f: 45                           	incl	%ebp
  40dc50: 5f                           	popl	%edi
  40dc51: 50                           	pushl	%eax
  40dc52: 41                           	incl	%ecx
  40dc53: 52                           	pushl	%edx
  40dc54: 54                           	pushl	%esp
  40dc55: 49                           	decl	%ecx
  40dc56: 41                           	incl	%ecx
  40dc57: 4c                           	decl	%esp
  40dc58: 5f                           	popl	%edi
  40dc59: 52                           	pushl	%edx
  40dc5a: 45                           	incl	%ebp
  40dc5b: 47                           	incl	%edi
  40dc5c: 5f                           	popl	%edi
  40dc5d: 44                           	incl	%esp
  40dc5e: 45                           	incl	%ebp
  40dc5f: 50                           	pushl	%eax
  40dc60: 45                           	incl	%ebp
  40dc61: 4e                           	decl	%esi
  40dc62: 44                           	incl	%esp
  40dc63: 45                           	incl	%ebp
  40dc64: 4e                           	decl	%esi
  40dc65: 43                           	incl	%ebx
  40dc66: 59                           	popl	%ecx
  40dc67: 00 01                        	addb	%al, (%ecx)
  40dc69: 11 58 38                     	adcl	%ebx, 56(%eax)
  40dc6c: 36 5f                        	popl	%edi
  40dc6e: 54                           	pushl	%esp
  40dc6f: 55                           	pushl	%ebp
  40dc70: 4e                           	decl	%esi
  40dc71: 45                           	incl	%ebp
  40dc72: 5f                           	popl	%edi
  40dc73: 53                           	pushl	%ebx
  40dc74: 53                           	pushl	%ebx
  40dc75: 45                           	incl	%ebp
  40dc76: 5f                           	popl	%edi
  40dc77: 50                           	pushl	%eax
  40dc78: 41                           	incl	%ecx
  40dc79: 52                           	pushl	%edx
  40dc7a: 54                           	pushl	%esp
  40dc7b: 49                           	decl	%ecx
  40dc7c: 41                           	incl	%ecx
  40dc7d: 4c                           	decl	%esp
  40dc7e: 5f                           	popl	%edi
  40dc7f: 52                           	pushl	%edx
  40dc80: 45                           	incl	%ebp
  40dc81: 47                           	incl	%edi
  40dc82: 5f                           	popl	%edi
  40dc83: 44                           	incl	%esp
  40dc84: 45                           	incl	%ebp
  40dc85: 50                           	pushl	%eax
  40dc86: 45                           	incl	%ebp
  40dc87: 4e                           	decl	%esi
  40dc88: 44                           	incl	%esp
  40dc89: 45                           	incl	%ebp
  40dc8a: 4e                           	decl	%esi
  40dc8b: 43                           	incl	%ebx
  40dc8c: 59                           	popl	%ecx
  40dc8d: 00 02                        	addb	%al, (%edx)
  40dc8f: 11 58 38                     	adcl	%ebx, 56(%eax)
  40dc92: 36 5f                        	popl	%edi
  40dc94: 54                           	pushl	%esp
  40dc95: 55                           	pushl	%ebp
  40dc96: 4e                           	decl	%esi
  40dc97: 45                           	incl	%ebp
  40dc98: 5f                           	popl	%edi
  40dc99: 53                           	pushl	%ebx
  40dc9a: 53                           	pushl	%ebx
  40dc9b: 45                           	incl	%ebp
  40dc9c: 5f                           	popl	%edi
  40dc9d: 53                           	pushl	%ebx
  40dc9e: 50                           	pushl	%eax
  40dc9f: 4c                           	decl	%esp
  40dca0: 49                           	decl	%ecx
  40dca1: 54                           	pushl	%esp
  40dca2: 5f                           	popl	%edi
  40dca3: 52                           	pushl	%edx
  40dca4: 45                           	incl	%ebp
  40dca5: 47                           	incl	%edi
  40dca6: 53                           	pushl	%ebx
  40dca7: 00 03                        	addb	%al, (%ebx)
  40dca9: 11 58 38                     	adcl	%ebx, 56(%eax)
  40dcac: 36 5f                        	popl	%edi
  40dcae: 54                           	pushl	%esp
  40dcaf: 55                           	pushl	%ebp
  40dcb0: 4e                           	decl	%esi
  40dcb1: 45                           	incl	%ebp
  40dcb2: 5f                           	popl	%edi
  40dcb3: 50                           	pushl	%eax
  40dcb4: 41                           	incl	%ecx
  40dcb5: 52                           	pushl	%edx
  40dcb6: 54                           	pushl	%esp
  40dcb7: 49                           	decl	%ecx
  40dcb8: 41                           	incl	%ecx
  40dcb9: 4c                           	decl	%esp
  40dcba: 5f                           	popl	%edi
  40dcbb: 46                           	incl	%esi
  40dcbc: 4c                           	decl	%esp
  40dcbd: 41                           	incl	%ecx
  40dcbe: 47                           	incl	%edi
  40dcbf: 5f                           	popl	%edi
  40dcc0: 52                           	pushl	%edx
  40dcc1: 45                           	incl	%ebp
  40dcc2: 47                           	incl	%edi
  40dcc3: 5f                           	popl	%edi
  40dcc4: 53                           	pushl	%ebx
  40dcc5: 54                           	pushl	%esp
  40dcc6: 41                           	incl	%ecx
  40dcc7: 4c                           	decl	%esp
  40dcc8: 4c                           	decl	%esp
  40dcc9: 00 04 11                     	addb	%al, (%ecx,%edx)
  40dccc: 58                           	popl	%eax
  40dccd: 38 36                        	cmpb	%dh, (%esi)
  40dccf: 5f                           	popl	%edi
  40dcd0: 54                           	pushl	%esp
  40dcd1: 55                           	pushl	%ebp
  40dcd2: 4e                           	decl	%esi
  40dcd3: 45                           	incl	%ebp
  40dcd4: 5f                           	popl	%edi
  40dcd5: 4d                           	decl	%ebp
  40dcd6: 4f                           	decl	%edi
  40dcd7: 56                           	pushl	%esi
  40dcd8: 58                           	popl	%eax
  40dcd9: 00 05 11 58 38 36            	addb	%al, 909662225
  40dcdf: 5f                           	popl	%edi
  40dce0: 54                           	pushl	%esp
  40dce1: 55                           	pushl	%ebp
  40dce2: 4e                           	decl	%esi
  40dce3: 45                           	incl	%ebp
  40dce4: 5f                           	popl	%edi
  40dce5: 4d                           	decl	%ebp
  40dce6: 45                           	incl	%ebp
  40dce7: 4d                           	decl	%ebp
  40dce8: 4f                           	decl	%edi
  40dce9: 52                           	pushl	%edx
  40dcea: 59                           	popl	%ecx
  40dceb: 5f                           	popl	%edi
  40dcec: 4d                           	decl	%ebp
  40dced: 49                           	decl	%ecx
  40dcee: 53                           	pushl	%ebx
  40dcef: 4d                           	decl	%ebp
  40dcf0: 41                           	incl	%ecx
  40dcf1: 54                           	pushl	%esp
  40dcf2: 43                           	incl	%ebx
  40dcf3: 48                           	decl	%eax
  40dcf4: 5f                           	popl	%edi
  40dcf5: 53                           	pushl	%ebx
  40dcf6: 54                           	pushl	%esp
  40dcf7: 41                           	incl	%ecx
  40dcf8: 4c                           	decl	%esp
  40dcf9: 4c                           	decl	%esp
  40dcfa: 00 06                        	addb	%al, (%esi)
  40dcfc: 11 58 38                     	adcl	%ebx, 56(%eax)
  40dcff: 36 5f                        	popl	%edi
  40dd01: 54                           	pushl	%esp
  40dd02: 55                           	pushl	%ebp
  40dd03: 4e                           	decl	%esi
  40dd04: 45                           	incl	%ebp
  40dd05: 5f                           	popl	%edi
  40dd06: 46                           	incl	%esi
  40dd07: 55                           	pushl	%ebp
  40dd08: 53                           	pushl	%ebx
  40dd09: 45                           	incl	%ebp
  40dd0a: 5f                           	popl	%edi
  40dd0b: 43                           	incl	%ebx
  40dd0c: 4d                           	decl	%ebp
  40dd0d: 50                           	pushl	%eax
  40dd0e: 5f                           	popl	%edi
  40dd0f: 41                           	incl	%ecx
  40dd10: 4e                           	decl	%esi
  40dd11: 44                           	incl	%esp
  40dd12: 5f                           	popl	%edi
  40dd13: 42                           	incl	%edx
  40dd14: 52                           	pushl	%edx
  40dd15: 41                           	incl	%ecx
  40dd16: 4e                           	decl	%esi
  40dd17: 43                           	incl	%ebx
  40dd18: 48                           	decl	%eax
  40dd19: 5f                           	popl	%edi
  40dd1a: 33 32                        	xorl	(%edx), %esi
  40dd1c: 00 07                        	addb	%al, (%edi)
  40dd1e: 11 58 38                     	adcl	%ebx, 56(%eax)
  40dd21: 36 5f                        	popl	%edi
  40dd23: 54                           	pushl	%esp
  40dd24: 55                           	pushl	%ebp
  40dd25: 4e                           	decl	%esi
  40dd26: 45                           	incl	%ebp
  40dd27: 5f                           	popl	%edi
  40dd28: 46                           	incl	%esi
  40dd29: 55                           	pushl	%ebp
  40dd2a: 53                           	pushl	%ebx
  40dd2b: 45                           	incl	%ebp
  40dd2c: 5f                           	popl	%edi
  40dd2d: 43                           	incl	%ebx
  40dd2e: 4d                           	decl	%ebp
  40dd2f: 50                           	pushl	%eax
  40dd30: 5f                           	popl	%edi
  40dd31: 41                           	incl	%ecx
  40dd32: 4e                           	decl	%esi
  40dd33: 44                           	incl	%esp
  40dd34: 5f                           	popl	%edi
  40dd35: 42                           	incl	%edx
  40dd36: 52                           	pushl	%edx
  40dd37: 41                           	incl	%ecx
  40dd38: 4e                           	decl	%esi
  40dd39: 43                           	incl	%ebx
  40dd3a: 48                           	decl	%eax
  40dd3b: 5f                           	popl	%edi
  40dd3c: 36 34 00                     	xorb	$0, %al
  40dd3f: 08 11                        	orb	%dl, (%ecx)
  40dd41: 58                           	popl	%eax
  40dd42: 38 36                        	cmpb	%dh, (%esi)
  40dd44: 5f                           	popl	%edi
  40dd45: 54                           	pushl	%esp
  40dd46: 55                           	pushl	%ebp
  40dd47: 4e                           	decl	%esi
  40dd48: 45                           	incl	%ebp
  40dd49: 5f                           	popl	%edi
  40dd4a: 46                           	incl	%esi
  40dd4b: 55                           	pushl	%ebp
  40dd4c: 53                           	pushl	%ebx
  40dd4d: 45                           	incl	%ebp
  40dd4e: 5f                           	popl	%edi
  40dd4f: 43                           	incl	%ebx
  40dd50: 4d                           	decl	%ebp
  40dd51: 50                           	pushl	%eax
  40dd52: 5f                           	popl	%edi
  40dd53: 41                           	incl	%ecx
  40dd54: 4e                           	decl	%esi
  40dd55: 44                           	incl	%esp
  40dd56: 5f                           	popl	%edi
  40dd57: 42                           	incl	%edx
  40dd58: 52                           	pushl	%edx
  40dd59: 41                           	incl	%ecx
  40dd5a: 4e                           	decl	%esi
  40dd5b: 43                           	incl	%ebx
  40dd5c: 48                           	decl	%eax
  40dd5d: 5f                           	popl	%edi
  40dd5e: 53                           	pushl	%ebx
  40dd5f: 4f                           	decl	%edi
  40dd60: 46                           	incl	%esi
  40dd61: 4c                           	decl	%esp
  40dd62: 41                           	incl	%ecx
  40dd63: 47                           	incl	%edi
  40dd64: 53                           	pushl	%ebx
  40dd65: 00 09                        	addb	%cl, (%ecx)
  40dd67: 11 58 38                     	adcl	%ebx, 56(%eax)
  40dd6a: 36 5f                        	popl	%edi
  40dd6c: 54                           	pushl	%esp
  40dd6d: 55                           	pushl	%ebp
  40dd6e: 4e                           	decl	%esi
  40dd6f: 45                           	incl	%ebp
  40dd70: 5f                           	popl	%edi
  40dd71: 46                           	incl	%esi
  40dd72: 55                           	pushl	%ebp
  40dd73: 53                           	pushl	%ebx
  40dd74: 45                           	incl	%ebp
  40dd75: 5f                           	popl	%edi
  40dd76: 41                           	incl	%ecx
  40dd77: 4c                           	decl	%esp
  40dd78: 55                           	pushl	%ebp
  40dd79: 5f                           	popl	%edi
  40dd7a: 41                           	incl	%ecx
  40dd7b: 4e                           	decl	%esi
  40dd7c: 44                           	incl	%esp
  40dd7d: 5f                           	popl	%edi
  40dd7e: 42                           	incl	%edx
  40dd7f: 52                           	pushl	%edx
  40dd80: 41                           	incl	%ecx
  40dd81: 4e                           	decl	%esi
  40dd82: 43                           	incl	%ebx
  40dd83: 48                           	decl	%eax
  40dd84: 00 0a                        	addb	%cl, (%edx)
  40dd86: 11 58 38                     	adcl	%ebx, 56(%eax)
  40dd89: 36 5f                        	popl	%edi
  40dd8b: 54                           	pushl	%esp
  40dd8c: 55                           	pushl	%ebp
  40dd8d: 4e                           	decl	%esi
  40dd8e: 45                           	incl	%ebp
  40dd8f: 5f                           	popl	%edi
  40dd90: 41                           	incl	%ecx
  40dd91: 43                           	incl	%ebx
  40dd92: 43                           	incl	%ebx
  40dd93: 55                           	pushl	%ebp
  40dd94: 4d                           	decl	%ebp
  40dd95: 55                           	pushl	%ebp
  40dd96: 4c                           	decl	%esp
  40dd97: 41                           	incl	%ecx
  40dd98: 54                           	pushl	%esp
  40dd99: 45                           	incl	%ebp
  40dd9a: 5f                           	popl	%edi
  40dd9b: 4f                           	decl	%edi
  40dd9c: 55                           	pushl	%ebp
  40dd9d: 54                           	pushl	%esp
  40dd9e: 47                           	incl	%edi
  40dd9f: 4f                           	decl	%edi
  40dda0: 49                           	decl	%ecx
  40dda1: 4e                           	decl	%esi
  40dda2: 47                           	incl	%edi
  40dda3: 5f                           	popl	%edi
  40dda4: 41                           	incl	%ecx
  40dda5: 52                           	pushl	%edx
  40dda6: 47                           	incl	%edi
  40dda7: 53                           	pushl	%ebx
  40dda8: 00 0b                        	addb	%cl, (%ebx)
  40ddaa: 11 58 38                     	adcl	%ebx, 56(%eax)
  40ddad: 36 5f                        	popl	%edi
  40ddaf: 54                           	pushl	%esp
  40ddb0: 55                           	pushl	%ebp
  40ddb1: 4e                           	decl	%esi
  40ddb2: 45                           	incl	%ebp
  40ddb3: 5f                           	popl	%edi
  40ddb4: 50                           	pushl	%eax
  40ddb5: 52                           	pushl	%edx
  40ddb6: 4f                           	decl	%edi
  40ddb7: 4c                           	decl	%esp
  40ddb8: 4f                           	decl	%edi
  40ddb9: 47                           	incl	%edi
  40ddba: 55                           	pushl	%ebp
  40ddbb: 45                           	incl	%ebp
  40ddbc: 5f                           	popl	%edi
  40ddbd: 55                           	pushl	%ebp
  40ddbe: 53                           	pushl	%ebx
  40ddbf: 49                           	decl	%ecx
  40ddc0: 4e                           	decl	%esi
  40ddc1: 47                           	incl	%edi
  40ddc2: 5f                           	popl	%edi
  40ddc3: 4d                           	decl	%ebp
  40ddc4: 4f                           	decl	%edi
  40ddc5: 56                           	pushl	%esi
  40ddc6: 45                           	incl	%ebp
  40ddc7: 00 0c 11                     	addb	%cl, (%ecx,%edx)
  40ddca: 58                           	popl	%eax
  40ddcb: 38 36                        	cmpb	%dh, (%esi)
  40ddcd: 5f                           	popl	%edi
  40ddce: 54                           	pushl	%esp
  40ddcf: 55                           	pushl	%ebp
  40ddd0: 4e                           	decl	%esi
  40ddd1: 45                           	incl	%ebp
  40ddd2: 5f                           	popl	%edi
  40ddd3: 45                           	incl	%ebp
  40ddd4: 50                           	pushl	%eax
  40ddd5: 49                           	decl	%ecx
  40ddd6: 4c                           	decl	%esp
  40ddd7: 4f                           	decl	%edi
  40ddd8: 47                           	incl	%edi
  40ddd9: 55                           	pushl	%ebp
  40ddda: 45                           	incl	%ebp
  40dddb: 5f                           	popl	%edi
  40dddc: 55                           	pushl	%ebp
  40dddd: 53                           	pushl	%ebx
  40ddde: 49                           	decl	%ecx
  40dddf: 4e                           	decl	%esi
  40dde0: 47                           	incl	%edi
  40dde1: 5f                           	popl	%edi
  40dde2: 4d                           	decl	%ebp
  40dde3: 4f                           	decl	%edi
  40dde4: 56                           	pushl	%esi
  40dde5: 45                           	incl	%ebp
  40dde6: 00 0d 11 58 38 36            	addb	%cl, 909662225
  40ddec: 5f                           	popl	%edi
  40dded: 54                           	pushl	%esp
  40ddee: 55                           	pushl	%ebp
  40ddef: 4e                           	decl	%esi
  40ddf0: 45                           	incl	%ebp
  40ddf1: 5f                           	popl	%edi
  40ddf2: 55                           	pushl	%ebp
  40ddf3: 53                           	pushl	%ebx
  40ddf4: 45                           	incl	%ebp
  40ddf5: 5f                           	popl	%edi
  40ddf6: 4c                           	decl	%esp
  40ddf7: 45                           	incl	%ebp
  40ddf8: 41                           	incl	%ecx
  40ddf9: 56                           	pushl	%esi
  40ddfa: 45                           	incl	%ebp
  40ddfb: 00 0e                        	addb	%cl, (%esi)
  40ddfd: 11 58 38                     	adcl	%ebx, 56(%eax)
  40de00: 36 5f                        	popl	%edi
  40de02: 54                           	pushl	%esp
  40de03: 55                           	pushl	%ebp
  40de04: 4e                           	decl	%esi
  40de05: 45                           	incl	%ebp
  40de06: 5f                           	popl	%edi
  40de07: 50                           	pushl	%eax
  40de08: 55                           	pushl	%ebp
  40de09: 53                           	pushl	%ebx
  40de0a: 48                           	decl	%eax
  40de0b: 5f                           	popl	%edi
  40de0c: 4d                           	decl	%ebp
  40de0d: 45                           	incl	%ebp
  40de0e: 4d                           	decl	%ebp
  40de0f: 4f                           	decl	%edi
  40de10: 52                           	pushl	%edx
  40de11: 59                           	popl	%ecx
  40de12: 00 0f                        	addb	%cl, (%edi)
  40de14: 11 58 38                     	adcl	%ebx, 56(%eax)
  40de17: 36 5f                        	popl	%edi
  40de19: 54                           	pushl	%esp
  40de1a: 55                           	pushl	%ebp
  40de1b: 4e                           	decl	%esi
  40de1c: 45                           	incl	%ebp
  40de1d: 5f                           	popl	%edi
  40de1e: 53                           	pushl	%ebx
  40de1f: 49                           	decl	%ecx
  40de20: 4e                           	decl	%esi
  40de21: 47                           	incl	%edi
  40de22: 4c                           	decl	%esp
  40de23: 45                           	incl	%ebp
  40de24: 5f                           	popl	%edi
  40de25: 50                           	pushl	%eax
  40de26: 55                           	pushl	%ebp
  40de27: 53                           	pushl	%ebx
  40de28: 48                           	decl	%eax
  40de29: 00 10                        	addb	%dl, (%eax)
  40de2b: 11 58 38                     	adcl	%ebx, 56(%eax)
  40de2e: 36 5f                        	popl	%edi
  40de30: 54                           	pushl	%esp
  40de31: 55                           	pushl	%ebp
  40de32: 4e                           	decl	%esi
  40de33: 45                           	incl	%ebp
  40de34: 5f                           	popl	%edi
  40de35: 44                           	incl	%esp
  40de36: 4f                           	decl	%edi
  40de37: 55                           	pushl	%ebp
  40de38: 42                           	incl	%edx
  40de39: 4c                           	decl	%esp
  40de3a: 45                           	incl	%ebp
  40de3b: 5f                           	popl	%edi
  40de3c: 50                           	pushl	%eax
  40de3d: 55                           	pushl	%ebp
  40de3e: 53                           	pushl	%ebx
  40de3f: 48                           	decl	%eax
  40de40: 00 11                        	addb	%dl, (%ecx)
  40de42: 11 58 38                     	adcl	%ebx, 56(%eax)
  40de45: 36 5f                        	popl	%edi
  40de47: 54                           	pushl	%esp
  40de48: 55                           	pushl	%ebp
  40de49: 4e                           	decl	%esi
  40de4a: 45                           	incl	%ebp
  40de4b: 5f                           	popl	%edi
  40de4c: 53                           	pushl	%ebx
  40de4d: 49                           	decl	%ecx
  40de4e: 4e                           	decl	%esi
  40de4f: 47                           	incl	%edi
  40de50: 4c                           	decl	%esp
  40de51: 45                           	incl	%ebp
  40de52: 5f                           	popl	%edi
  40de53: 50                           	pushl	%eax
  40de54: 4f                           	decl	%edi
  40de55: 50                           	pushl	%eax
  40de56: 00 12                        	addb	%dl, (%edx)
  40de58: 11 58 38                     	adcl	%ebx, 56(%eax)
  40de5b: 36 5f                        	popl	%edi
  40de5d: 54                           	pushl	%esp
  40de5e: 55                           	pushl	%ebp
  40de5f: 4e                           	decl	%esi
  40de60: 45                           	incl	%ebp
  40de61: 5f                           	popl	%edi
  40de62: 44                           	incl	%esp
  40de63: 4f                           	decl	%edi
  40de64: 55                           	pushl	%ebp
  40de65: 42                           	incl	%edx
  40de66: 4c                           	decl	%esp
  40de67: 45                           	incl	%ebp
  40de68: 5f                           	popl	%edi
  40de69: 50                           	pushl	%eax
  40de6a: 4f                           	decl	%edi
  40de6b: 50                           	pushl	%eax
  40de6c: 00 13                        	addb	%dl, (%ebx)
  40de6e: 11 58 38                     	adcl	%ebx, 56(%eax)
  40de71: 36 5f                        	popl	%edi
  40de73: 54                           	pushl	%esp
  40de74: 55                           	pushl	%ebp
  40de75: 4e                           	decl	%esi
  40de76: 45                           	incl	%ebp
  40de77: 5f                           	popl	%edi
  40de78: 50                           	pushl	%eax
  40de79: 41                           	incl	%ecx
  40de7a: 44                           	incl	%esp
  40de7b: 5f                           	popl	%edi
  40de7c: 53                           	pushl	%ebx
  40de7d: 48                           	decl	%eax
  40de7e: 4f                           	decl	%edi
  40de7f: 52                           	pushl	%edx
  40de80: 54                           	pushl	%esp
  40de81: 5f                           	popl	%edi
  40de82: 46                           	incl	%esi
  40de83: 55                           	pushl	%ebp
  40de84: 4e                           	decl	%esi
  40de85: 43                           	incl	%ebx
  40de86: 54                           	pushl	%esp
  40de87: 49                           	decl	%ecx
  40de88: 4f                           	decl	%edi
  40de89: 4e                           	decl	%esi
  40de8a: 00 14 11                     	addb	%dl, (%ecx,%edx)
  40de8d: 58                           	popl	%eax
  40de8e: 38 36                        	cmpb	%dh, (%esi)
  40de90: 5f                           	popl	%edi
  40de91: 54                           	pushl	%esp
  40de92: 55                           	pushl	%ebp
  40de93: 4e                           	decl	%esi
  40de94: 45                           	incl	%ebp
  40de95: 5f                           	popl	%edi
  40de96: 50                           	pushl	%eax
  40de97: 41                           	incl	%ecx
  40de98: 44                           	incl	%esp
  40de99: 5f                           	popl	%edi
  40de9a: 52                           	pushl	%edx
  40de9b: 45                           	incl	%ebp
  40de9c: 54                           	pushl	%esp
  40de9d: 55                           	pushl	%ebp
  40de9e: 52                           	pushl	%edx
  40de9f: 4e                           	decl	%esi
  40dea0: 53                           	pushl	%ebx
  40dea1: 00 15 11 58 38 36            	addb	%dl, 909662225
  40dea7: 5f                           	popl	%edi
  40dea8: 54                           	pushl	%esp
  40dea9: 55                           	pushl	%ebp
  40deaa: 4e                           	decl	%esi
  40deab: 45                           	incl	%ebp
  40deac: 5f                           	popl	%edi
  40dead: 46                           	incl	%esi
  40deae: 4f                           	decl	%edi
  40deaf: 55                           	pushl	%ebp
  40deb0: 52                           	pushl	%edx
  40deb1: 5f                           	popl	%edi
  40deb2: 4a                           	decl	%edx
  40deb3: 55                           	pushl	%ebp
  40deb4: 4d                           	decl	%ebp
  40deb5: 50                           	pushl	%eax
  40deb6: 5f                           	popl	%edi
  40deb7: 4c                           	decl	%esp
  40deb8: 49                           	decl	%ecx
  40deb9: 4d                           	decl	%ebp
  40deba: 49                           	decl	%ecx
  40debb: 54                           	pushl	%esp
  40debc: 00 16                        	addb	%dl, (%esi)
  40debe: 11 58 38                     	adcl	%ebx, 56(%eax)
  40dec1: 36 5f                        	popl	%edi
  40dec3: 54                           	pushl	%esp
  40dec4: 55                           	pushl	%ebp
  40dec5: 4e                           	decl	%esi
  40dec6: 45                           	incl	%ebp
  40dec7: 5f                           	popl	%edi
  40dec8: 53                           	pushl	%ebx
  40dec9: 4f                           	decl	%edi
  40deca: 46                           	incl	%esi
  40decb: 54                           	pushl	%esp
  40decc: 57                           	pushl	%edi
  40decd: 41                           	incl	%ecx
  40dece: 52                           	pushl	%edx
  40decf: 45                           	incl	%ebp
  40ded0: 5f                           	popl	%edi
  40ded1: 50                           	pushl	%eax
  40ded2: 52                           	pushl	%edx
  40ded3: 45                           	incl	%ebp
  40ded4: 46                           	incl	%esi
  40ded5: 45                           	incl	%ebp
  40ded6: 54                           	pushl	%esp
  40ded7: 43                           	incl	%ebx
  40ded8: 48                           	decl	%eax
  40ded9: 49                           	decl	%ecx
  40deda: 4e                           	decl	%esi
  40dedb: 47                           	incl	%edi
  40dedc: 5f                           	popl	%edi
  40dedd: 42                           	incl	%edx
  40dede: 45                           	incl	%ebp
  40dedf: 4e                           	decl	%esi
  40dee0: 45                           	incl	%ebp
  40dee1: 46                           	incl	%esi
  40dee2: 49                           	decl	%ecx
  40dee3: 43                           	incl	%ebx
  40dee4: 49                           	decl	%ecx
  40dee5: 41                           	incl	%ecx
  40dee6: 4c                           	decl	%esp
  40dee7: 00 17                        	addb	%dl, (%edi)
  40dee9: 11 58 38                     	adcl	%ebx, 56(%eax)
  40deec: 36 5f                        	popl	%edi
  40deee: 54                           	pushl	%esp
  40deef: 55                           	pushl	%ebp
  40def0: 4e                           	decl	%esi
  40def1: 45                           	incl	%ebp
  40def2: 5f                           	popl	%edi
  40def3: 4c                           	decl	%esp
  40def4: 43                           	incl	%ebx
  40def5: 50                           	pushl	%eax
  40def6: 5f                           	popl	%edi
  40def7: 53                           	pushl	%ebx
  40def8: 54                           	pushl	%esp
  40def9: 41                           	incl	%ecx
  40defa: 4c                           	decl	%esp
  40defb: 4c                           	decl	%esp
  40defc: 00 18                        	addb	%bl, (%eax)
  40defe: 11 58 38                     	adcl	%ebx, 56(%eax)
  40df01: 36 5f                        	popl	%edi
  40df03: 54                           	pushl	%esp
  40df04: 55                           	pushl	%ebp
  40df05: 4e                           	decl	%esi
  40df06: 45                           	incl	%ebp
  40df07: 5f                           	popl	%edi
  40df08: 52                           	pushl	%edx
  40df09: 45                           	incl	%ebp
  40df0a: 41                           	incl	%ecx
  40df0b: 44                           	incl	%esp
  40df0c: 5f                           	popl	%edi
  40df0d: 4d                           	decl	%ebp
  40df0e: 4f                           	decl	%edi
  40df0f: 44                           	incl	%esp
  40df10: 49                           	decl	%ecx
  40df11: 46                           	incl	%esi
  40df12: 59                           	popl	%ecx
  40df13: 00 19                        	addb	%bl, (%ecx)
  40df15: 11 58 38                     	adcl	%ebx, 56(%eax)
  40df18: 36 5f                        	popl	%edi
  40df1a: 54                           	pushl	%esp
  40df1b: 55                           	pushl	%ebp
  40df1c: 4e                           	decl	%esi
  40df1d: 45                           	incl	%ebp
  40df1e: 5f                           	popl	%edi
  40df1f: 55                           	pushl	%ebp
  40df20: 53                           	pushl	%ebx
  40df21: 45                           	incl	%ebp
  40df22: 5f                           	popl	%edi
  40df23: 49                           	decl	%ecx
  40df24: 4e                           	decl	%esi
  40df25: 43                           	incl	%ebx
  40df26: 44                           	incl	%esp
  40df27: 45                           	incl	%ebp
  40df28: 43                           	incl	%ebx
  40df29: 00 1a                        	addb	%bl, (%edx)
  40df2b: 11 58 38                     	adcl	%ebx, 56(%eax)
  40df2e: 36 5f                        	popl	%edi
  40df30: 54                           	pushl	%esp
  40df31: 55                           	pushl	%ebp
  40df32: 4e                           	decl	%esi
  40df33: 45                           	incl	%ebp
  40df34: 5f                           	popl	%edi
  40df35: 49                           	decl	%ecx
  40df36: 4e                           	decl	%esi
  40df37: 54                           	pushl	%esp
  40df38: 45                           	incl	%ebp
  40df39: 47                           	incl	%edi
  40df3a: 45                           	incl	%ebp
  40df3b: 52                           	pushl	%edx
  40df3c: 5f                           	popl	%edi
  40df3d: 44                           	incl	%esp
  40df3e: 46                           	incl	%esi
  40df3f: 4d                           	decl	%ebp
  40df40: 4f                           	decl	%edi
  40df41: 44                           	incl	%esp
  40df42: 45                           	incl	%ebp
  40df43: 5f                           	popl	%edi
  40df44: 4d                           	decl	%ebp
  40df45: 4f                           	decl	%edi
  40df46: 56                           	pushl	%esi
  40df47: 45                           	incl	%ebp
  40df48: 53                           	pushl	%ebx
  40df49: 00 1b                        	addb	%bl, (%ebx)
  40df4b: 11 58 38                     	adcl	%ebx, 56(%eax)
  40df4e: 36 5f                        	popl	%edi
  40df50: 54                           	pushl	%esp
  40df51: 55                           	pushl	%ebp
  40df52: 4e                           	decl	%esi
  40df53: 45                           	incl	%ebp
  40df54: 5f                           	popl	%edi
  40df55: 4f                           	decl	%edi
  40df56: 50                           	pushl	%eax
  40df57: 54                           	pushl	%esp
  40df58: 5f                           	popl	%edi
  40df59: 41                           	incl	%ecx
  40df5a: 47                           	incl	%edi
  40df5b: 55                           	pushl	%ebp
  40df5c: 00 1c 11                     	addb	%bl, (%ecx,%edx)
  40df5f: 58                           	popl	%eax
  40df60: 38 36                        	cmpb	%dh, (%esi)
  40df62: 5f                           	popl	%edi
  40df63: 54                           	pushl	%esp
  40df64: 55                           	pushl	%ebp
  40df65: 4e                           	decl	%esi
  40df66: 45                           	incl	%ebp
  40df67: 5f                           	popl	%edi
  40df68: 41                           	incl	%ecx
  40df69: 56                           	pushl	%esi
  40df6a: 4f                           	decl	%edi
  40df6b: 49                           	decl	%ecx
  40df6c: 44                           	incl	%esp
  40df6d: 5f                           	popl	%edi
  40df6e: 4c                           	decl	%esp
  40df6f: 45                           	incl	%ebp
  40df70: 41                           	incl	%ecx
  40df71: 5f                           	popl	%edi
  40df72: 46                           	incl	%esi
  40df73: 4f                           	decl	%edi
  40df74: 52                           	pushl	%edx
  40df75: 5f                           	popl	%edi
  40df76: 41                           	incl	%ecx
  40df77: 44                           	incl	%esp
  40df78: 44                           	incl	%esp
  40df79: 52                           	pushl	%edx
  40df7a: 00 1d 11 58 38 36            	addb	%bl, 909662225
  40df80: 5f                           	popl	%edi
  40df81: 54                           	pushl	%esp
  40df82: 55                           	pushl	%ebp
  40df83: 4e                           	decl	%esi
  40df84: 45                           	incl	%ebp
  40df85: 5f                           	popl	%edi
  40df86: 53                           	pushl	%ebx
  40df87: 4c                           	decl	%esp
  40df88: 4f                           	decl	%edi
  40df89: 57                           	pushl	%edi
  40df8a: 5f                           	popl	%edi
  40df8b: 49                           	decl	%ecx
  40df8c: 4d                           	decl	%ebp
  40df8d: 55                           	pushl	%ebp
  40df8e: 4c                           	decl	%esp
  40df8f: 5f                           	popl	%edi
  40df90: 49                           	decl	%ecx
  40df91: 4d                           	decl	%ebp
  40df92: 4d                           	decl	%ebp
  40df93: 33 32                        	xorl	(%edx), %esi
  40df95: 5f                           	popl	%edi
  40df96: 4d                           	decl	%ebp
  40df97: 45                           	incl	%ebp
  40df98: 4d                           	decl	%ebp
  40df99: 00 1e                        	addb	%bl, (%esi)
  40df9b: 11 58 38                     	adcl	%ebx, 56(%eax)
  40df9e: 36 5f                        	popl	%edi
  40dfa0: 54                           	pushl	%esp
  40dfa1: 55                           	pushl	%ebp
  40dfa2: 4e                           	decl	%esi
  40dfa3: 45                           	incl	%ebp
  40dfa4: 5f                           	popl	%edi
  40dfa5: 53                           	pushl	%ebx
  40dfa6: 4c                           	decl	%esp
  40dfa7: 4f                           	decl	%edi
  40dfa8: 57                           	pushl	%edi
  40dfa9: 5f                           	popl	%edi
  40dfaa: 49                           	decl	%ecx
  40dfab: 4d                           	decl	%ebp
  40dfac: 55                           	pushl	%ebp
  40dfad: 4c                           	decl	%esp
  40dfae: 5f                           	popl	%edi
  40dfaf: 49                           	decl	%ecx
  40dfb0: 4d                           	decl	%ebp
  40dfb1: 4d                           	decl	%ebp
  40dfb2: 38 00                        	cmpb	%al, (%eax)
  40dfb4: 1f                           	popl	%ds
  40dfb5: 11 58 38                     	adcl	%ebx, 56(%eax)
  40dfb8: 36 5f                        	popl	%edi
  40dfba: 54                           	pushl	%esp
  40dfbb: 55                           	pushl	%ebp
  40dfbc: 4e                           	decl	%esi
  40dfbd: 45                           	incl	%ebp
  40dfbe: 5f                           	popl	%edi
  40dfbf: 41                           	incl	%ecx
  40dfc0: 56                           	pushl	%esi
  40dfc1: 4f                           	decl	%edi
  40dfc2: 49                           	decl	%ecx
  40dfc3: 44                           	incl	%esp
  40dfc4: 5f                           	popl	%edi
  40dfc5: 4d                           	decl	%ebp
  40dfc6: 45                           	incl	%ebp
  40dfc7: 4d                           	decl	%ebp
  40dfc8: 5f                           	popl	%edi
  40dfc9: 4f                           	decl	%edi
  40dfca: 50                           	pushl	%eax
  40dfcb: 4e                           	decl	%esi
  40dfcc: 44                           	incl	%esp
  40dfcd: 5f                           	popl	%edi
  40dfce: 46                           	incl	%esi
  40dfcf: 4f                           	decl	%edi
  40dfd0: 52                           	pushl	%edx
  40dfd1: 5f                           	popl	%edi
  40dfd2: 43                           	incl	%ebx
  40dfd3: 4d                           	decl	%ebp
  40dfd4: 4f                           	decl	%edi
  40dfd5: 56                           	pushl	%esi
  40dfd6: 45                           	incl	%ebp
  40dfd7: 00 20                        	addb	%ah, (%eax)
  40dfd9: 11 58 38                     	adcl	%ebx, 56(%eax)
  40dfdc: 36 5f                        	popl	%edi
  40dfde: 54                           	pushl	%esp
  40dfdf: 55                           	pushl	%ebp
  40dfe0: 4e                           	decl	%esi
  40dfe1: 45                           	incl	%ebp
  40dfe2: 5f                           	popl	%edi
  40dfe3: 53                           	pushl	%ebx
  40dfe4: 49                           	decl	%ecx
  40dfe5: 4e                           	decl	%esi
  40dfe6: 47                           	incl	%edi
  40dfe7: 4c                           	decl	%esp
  40dfe8: 45                           	incl	%ebp
  40dfe9: 5f                           	popl	%edi
  40dfea: 53                           	pushl	%ebx
  40dfeb: 54                           	pushl	%esp
  40dfec: 52                           	pushl	%edx
  40dfed: 49                           	decl	%ecx
  40dfee: 4e                           	decl	%esi
  40dfef: 47                           	incl	%edi
  40dff0: 4f                           	decl	%edi
  40dff1: 50                           	pushl	%eax
  40dff2: 00 21                        	addb	%ah, (%ecx)
  40dff4: 11 58 38                     	adcl	%ebx, 56(%eax)
  40dff7: 36 5f                        	popl	%edi
  40dff9: 54                           	pushl	%esp
  40dffa: 55                           	pushl	%ebp
  40dffb: 4e                           	decl	%esi
  40dffc: 45                           	incl	%ebp
  40dffd: 5f                           	popl	%edi
  40dffe: 4d                           	decl	%ebp
  40dfff: 49                           	decl	%ecx
  40e000: 53                           	pushl	%ebx
  40e001: 41                           	incl	%ecx
  40e002: 4c                           	decl	%esp
  40e003: 49                           	decl	%ecx
  40e004: 47                           	incl	%edi
  40e005: 4e                           	decl	%esi
  40e006: 45                           	incl	%ebp
  40e007: 44                           	incl	%esp
  40e008: 5f                           	popl	%edi
  40e009: 4d                           	decl	%ebp
  40e00a: 4f                           	decl	%edi
  40e00b: 56                           	pushl	%esi
  40e00c: 45                           	incl	%ebp
  40e00d: 5f                           	popl	%edi
  40e00e: 53                           	pushl	%ebx
  40e00f: 54                           	pushl	%esp
  40e010: 52                           	pushl	%edx
  40e011: 49                           	decl	%ecx
  40e012: 4e                           	decl	%esi
  40e013: 47                           	incl	%edi
  40e014: 5f                           	popl	%edi
  40e015: 50                           	pushl	%eax
  40e016: 52                           	pushl	%edx
  40e017: 4f                           	decl	%edi
  40e018: 5f                           	popl	%edi
  40e019: 45                           	incl	%ebp
  40e01a: 50                           	pushl	%eax
  40e01b: 49                           	decl	%ecx
  40e01c: 4c                           	decl	%esp
  40e01d: 4f                           	decl	%edi
  40e01e: 47                           	incl	%edi
  40e01f: 55                           	pushl	%ebp
  40e020: 45                           	incl	%ebp
  40e021: 53                           	pushl	%ebx
  40e022: 00 22                        	addb	%ah, (%edx)
  40e024: 11 58 38                     	adcl	%ebx, 56(%eax)
  40e027: 36 5f                        	popl	%edi
  40e029: 54                           	pushl	%esp
  40e02a: 55                           	pushl	%ebp
  40e02b: 4e                           	decl	%esi
  40e02c: 45                           	incl	%ebp
  40e02d: 5f                           	popl	%edi
  40e02e: 55                           	pushl	%ebp
  40e02f: 53                           	pushl	%ebx
  40e030: 45                           	incl	%ebp
  40e031: 5f                           	popl	%edi
  40e032: 53                           	pushl	%ebx
  40e033: 41                           	incl	%ecx
  40e034: 48                           	decl	%eax
  40e035: 46                           	incl	%esi
  40e036: 00 23                        	addb	%ah, (%ebx)
  40e038: 11 58 38                     	adcl	%ebx, 56(%eax)
  40e03b: 36 5f                        	popl	%edi
  40e03d: 54                           	pushl	%esp
  40e03e: 55                           	pushl	%ebp
  40e03f: 4e                           	decl	%esi
  40e040: 45                           	incl	%ebp
  40e041: 5f                           	popl	%edi
  40e042: 55                           	pushl	%ebp
  40e043: 53                           	pushl	%ebx
  40e044: 45                           	incl	%ebp
  40e045: 5f                           	popl	%edi
  40e046: 43                           	incl	%ebx
  40e047: 4c                           	decl	%esp
  40e048: 54                           	pushl	%esp
  40e049: 44                           	incl	%esp
  40e04a: 00 24 11                     	addb	%ah, (%ecx,%edx)
  40e04d: 58                           	popl	%eax
  40e04e: 38 36                        	cmpb	%dh, (%esi)
  40e050: 5f                           	popl	%edi
  40e051: 54                           	pushl	%esp
  40e052: 55                           	pushl	%ebp
  40e053: 4e                           	decl	%esi
  40e054: 45                           	incl	%ebp
  40e055: 5f                           	popl	%edi
  40e056: 55                           	pushl	%ebp
  40e057: 53                           	pushl	%ebx
  40e058: 45                           	incl	%ebp
  40e059: 5f                           	popl	%edi
  40e05a: 42                           	incl	%edx
  40e05b: 54                           	pushl	%esp
  40e05c: 00 25 11 58 38 36            	addb	%ah, 909662225
  40e062: 5f                           	popl	%edi
  40e063: 54                           	pushl	%esp
  40e064: 55                           	pushl	%ebp
  40e065: 4e                           	decl	%esi
  40e066: 45                           	incl	%ebp
  40e067: 5f                           	popl	%edi
  40e068: 41                           	incl	%ecx
  40e069: 56                           	pushl	%esi
  40e06a: 4f                           	decl	%edi
  40e06b: 49                           	decl	%ecx
  40e06c: 44                           	incl	%esp
  40e06d: 5f                           	popl	%edi
  40e06e: 46                           	incl	%esi
  40e06f: 41                           	incl	%ecx
  40e070: 4c                           	decl	%esp
  40e071: 53                           	pushl	%ebx
  40e072: 45                           	incl	%ebp
  40e073: 5f                           	popl	%edi
  40e074: 44                           	incl	%esp
  40e075: 45                           	incl	%ebp
  40e076: 50                           	pushl	%eax
  40e077: 5f                           	popl	%edi
  40e078: 46                           	incl	%esi
  40e079: 4f                           	decl	%edi
  40e07a: 52                           	pushl	%edx
  40e07b: 5f                           	popl	%edi
  40e07c: 42                           	incl	%edx
  40e07d: 4d                           	decl	%ebp
  40e07e: 49                           	decl	%ecx
  40e07f: 00 26                        	addb	%ah, (%esi)
  40e081: 11 58 38                     	adcl	%ebx, 56(%eax)
  40e084: 36 5f                        	popl	%edi
  40e086: 54                           	pushl	%esp
  40e087: 55                           	pushl	%ebp
  40e088: 4e                           	decl	%esi
  40e089: 45                           	incl	%ebp
  40e08a: 5f                           	popl	%edi
  40e08b: 41                           	incl	%ecx
  40e08c: 44                           	incl	%esp
  40e08d: 4a                           	decl	%edx
  40e08e: 55                           	pushl	%ebp
  40e08f: 53                           	pushl	%ebx
  40e090: 54                           	pushl	%esp
  40e091: 5f                           	popl	%edi
  40e092: 55                           	pushl	%ebp
  40e093: 4e                           	decl	%esi
  40e094: 52                           	pushl	%edx
  40e095: 4f                           	decl	%edi
  40e096: 4c                           	decl	%esp
  40e097: 4c                           	decl	%esp
  40e098: 00 27                        	addb	%ah, (%edi)
  40e09a: 11 58 38                     	adcl	%ebx, 56(%eax)
  40e09d: 36 5f                        	popl	%edi
  40e09f: 54                           	pushl	%esp
  40e0a0: 55                           	pushl	%ebp
  40e0a1: 4e                           	decl	%esi
  40e0a2: 45                           	incl	%ebp
  40e0a3: 5f                           	popl	%edi
  40e0a4: 4f                           	decl	%edi
  40e0a5: 4e                           	decl	%esi
  40e0a6: 45                           	incl	%ebp
  40e0a7: 5f                           	popl	%edi
  40e0a8: 49                           	decl	%ecx
  40e0a9: 46                           	incl	%esi
  40e0aa: 5f                           	popl	%edi
  40e0ab: 43                           	incl	%ebx
  40e0ac: 4f                           	decl	%edi
  40e0ad: 4e                           	decl	%esi
  40e0ae: 56                           	pushl	%esi
  40e0af: 5f                           	popl	%edi
  40e0b0: 49                           	decl	%ecx
  40e0b1: 4e                           	decl	%esi
  40e0b2: 53                           	pushl	%ebx
  40e0b3: 4e                           	decl	%esi
  40e0b4: 00 28                        	addb	%ch, (%eax)
  40e0b6: 11 58 38                     	adcl	%ebx, 56(%eax)
  40e0b9: 36 5f                        	popl	%edi
  40e0bb: 54                           	pushl	%esp
  40e0bc: 55                           	pushl	%ebp
  40e0bd: 4e                           	decl	%esi
  40e0be: 45                           	incl	%ebp
  40e0bf: 5f                           	popl	%edi
  40e0c0: 55                           	pushl	%ebp
  40e0c1: 53                           	pushl	%ebx
  40e0c2: 45                           	incl	%ebp
  40e0c3: 5f                           	popl	%edi
  40e0c4: 48                           	decl	%eax
  40e0c5: 49                           	decl	%ecx
  40e0c6: 4d                           	decl	%ebp
  40e0c7: 4f                           	decl	%edi
  40e0c8: 44                           	incl	%esp
  40e0c9: 45                           	incl	%ebp
  40e0ca: 5f                           	popl	%edi
  40e0cb: 46                           	incl	%esi
  40e0cc: 49                           	decl	%ecx
  40e0cd: 4f                           	decl	%edi
  40e0ce: 50                           	pushl	%eax
  40e0cf: 00 29                        	addb	%ch, (%ecx)
  40e0d1: 11 58 38                     	adcl	%ebx, 56(%eax)
  40e0d4: 36 5f                        	popl	%edi
  40e0d6: 54                           	pushl	%esp
  40e0d7: 55                           	pushl	%ebp
  40e0d8: 4e                           	decl	%esi
  40e0d9: 45                           	incl	%ebp
  40e0da: 5f                           	popl	%edi
  40e0db: 55                           	pushl	%ebp
  40e0dc: 53                           	pushl	%ebx
  40e0dd: 45                           	incl	%ebp
  40e0de: 5f                           	popl	%edi
  40e0df: 53                           	pushl	%ebx
  40e0e0: 49                           	decl	%ecx
  40e0e1: 4d                           	decl	%ebp
  40e0e2: 4f                           	decl	%edi
  40e0e3: 44                           	incl	%esp
  40e0e4: 45                           	incl	%ebp
  40e0e5: 5f                           	popl	%edi
  40e0e6: 46                           	incl	%esi
  40e0e7: 49                           	decl	%ecx
  40e0e8: 4f                           	decl	%edi
  40e0e9: 50                           	pushl	%eax
  40e0ea: 00 2a                        	addb	%ch, (%edx)
  40e0ec: 11 58 38                     	adcl	%ebx, 56(%eax)
  40e0ef: 36 5f                        	popl	%edi
  40e0f1: 54                           	pushl	%esp
  40e0f2: 55                           	pushl	%ebp
  40e0f3: 4e                           	decl	%esi
  40e0f4: 45                           	incl	%ebp
  40e0f5: 5f                           	popl	%edi
  40e0f6: 55                           	pushl	%ebp
  40e0f7: 53                           	pushl	%ebx
  40e0f8: 45                           	incl	%ebp
  40e0f9: 5f                           	popl	%edi
  40e0fa: 46                           	incl	%esi
  40e0fb: 46                           	incl	%esi
  40e0fc: 52                           	pushl	%edx
  40e0fd: 45                           	incl	%ebp
  40e0fe: 45                           	incl	%ebp
  40e0ff: 50                           	pushl	%eax
  40e100: 00 2b                        	addb	%ch, (%ebx)
  40e102: 11 58 38                     	adcl	%ebx, 56(%eax)
  40e105: 36 5f                        	popl	%edi
  40e107: 54                           	pushl	%esp
  40e108: 55                           	pushl	%ebp
  40e109: 4e                           	decl	%esi
  40e10a: 45                           	incl	%ebp
  40e10b: 5f                           	popl	%edi
  40e10c: 45                           	incl	%ebp
  40e10d: 58                           	popl	%eax
  40e10e: 54                           	pushl	%esp
  40e10f: 5f                           	popl	%edi
  40e110: 38 30                        	cmpb	%dh, (%eax)
  40e112: 33 38                        	xorl	(%eax), %edi
  40e114: 37                           	aaa
  40e115: 5f                           	popl	%edi
  40e116: 43                           	incl	%ebx
  40e117: 4f                           	decl	%edi
  40e118: 4e                           	decl	%esi
  40e119: 53                           	pushl	%ebx
  40e11a: 54                           	pushl	%esp
  40e11b: 41                           	incl	%ecx
  40e11c: 4e                           	decl	%esi
  40e11d: 54                           	pushl	%esp
  40e11e: 53                           	pushl	%ebx
  40e11f: 00 2c 11                     	addb	%ch, (%ecx,%edx)
  40e122: 58                           	popl	%eax
  40e123: 38 36                        	cmpb	%dh, (%esi)
  40e125: 5f                           	popl	%edi
  40e126: 54                           	pushl	%esp
  40e127: 55                           	pushl	%ebp
  40e128: 4e                           	decl	%esi
  40e129: 45                           	incl	%ebp
  40e12a: 5f                           	popl	%edi
  40e12b: 47                           	incl	%edi
  40e12c: 45                           	incl	%ebp
  40e12d: 4e                           	decl	%esi
  40e12e: 45                           	incl	%ebp
  40e12f: 52                           	pushl	%edx
  40e130: 41                           	incl	%ecx
  40e131: 4c                           	decl	%esp
  40e132: 5f                           	popl	%edi
  40e133: 52                           	pushl	%edx
  40e134: 45                           	incl	%ebp
  40e135: 47                           	incl	%edi
  40e136: 53                           	pushl	%ebx
  40e137: 5f                           	popl	%edi
  40e138: 53                           	pushl	%ebx
  40e139: 53                           	pushl	%ebx
  40e13a: 45                           	incl	%ebp
  40e13b: 5f                           	popl	%edi
  40e13c: 53                           	pushl	%ebx
  40e13d: 50                           	pushl	%eax
  40e13e: 49                           	decl	%ecx
  40e13f: 4c                           	decl	%esp
  40e140: 4c                           	decl	%esp
  40e141: 00 2d 11 58 38 36            	addb	%ch, 909662225
  40e147: 5f                           	popl	%edi
  40e148: 54                           	pushl	%esp
  40e149: 55                           	pushl	%ebp
  40e14a: 4e                           	decl	%esi
  40e14b: 45                           	incl	%ebp
  40e14c: 5f                           	popl	%edi
  40e14d: 53                           	pushl	%ebx
  40e14e: 53                           	pushl	%ebx
  40e14f: 45                           	incl	%ebp
  40e150: 5f                           	popl	%edi
  40e151: 55                           	pushl	%ebp
  40e152: 4e                           	decl	%esi
  40e153: 41                           	incl	%ecx
  40e154: 4c                           	decl	%esp
  40e155: 49                           	decl	%ecx
  40e156: 47                           	incl	%edi
  40e157: 4e                           	decl	%esi
  40e158: 45                           	incl	%ebp
  40e159: 44                           	incl	%esp
  40e15a: 5f                           	popl	%edi
  40e15b: 4c                           	decl	%esp
  40e15c: 4f                           	decl	%edi
  40e15d: 41                           	incl	%ecx
  40e15e: 44                           	incl	%esp
  40e15f: 5f                           	popl	%edi
  40e160: 4f                           	decl	%edi
  40e161: 50                           	pushl	%eax
  40e162: 54                           	pushl	%esp
  40e163: 49                           	decl	%ecx
  40e164: 4d                           	decl	%ebp
  40e165: 41                           	incl	%ecx
  40e166: 4c                           	decl	%esp
  40e167: 00 2e                        	addb	%ch, (%esi)
  40e169: 11 58 38                     	adcl	%ebx, 56(%eax)
  40e16c: 36 5f                        	popl	%edi
  40e16e: 54                           	pushl	%esp
  40e16f: 55                           	pushl	%ebp
  40e170: 4e                           	decl	%esi
  40e171: 45                           	incl	%ebp
  40e172: 5f                           	popl	%edi
  40e173: 53                           	pushl	%ebx
  40e174: 53                           	pushl	%ebx
  40e175: 45                           	incl	%ebp
  40e176: 5f                           	popl	%edi
  40e177: 55                           	pushl	%ebp
  40e178: 4e                           	decl	%esi
  40e179: 41                           	incl	%ecx
  40e17a: 4c                           	decl	%esp
  40e17b: 49                           	decl	%ecx
  40e17c: 47                           	incl	%edi
  40e17d: 4e                           	decl	%esi
  40e17e: 45                           	incl	%ebp
  40e17f: 44                           	incl	%esp
  40e180: 5f                           	popl	%edi
  40e181: 53                           	pushl	%ebx
  40e182: 54                           	pushl	%esp
  40e183: 4f                           	decl	%edi
  40e184: 52                           	pushl	%edx
  40e185: 45                           	incl	%ebp
  40e186: 5f                           	popl	%edi
  40e187: 4f                           	decl	%edi
  40e188: 50                           	pushl	%eax
  40e189: 54                           	pushl	%esp
  40e18a: 49                           	decl	%ecx
  40e18b: 4d                           	decl	%ebp
  40e18c: 41                           	incl	%ecx
  40e18d: 4c                           	decl	%esp
  40e18e: 00 2f                        	addb	%ch, (%edi)
  40e190: 11 58 38                     	adcl	%ebx, 56(%eax)
  40e193: 36 5f                        	popl	%edi
  40e195: 54                           	pushl	%esp
  40e196: 55                           	pushl	%ebp
  40e197: 4e                           	decl	%esi
  40e198: 45                           	incl	%ebp
  40e199: 5f                           	popl	%edi
  40e19a: 53                           	pushl	%ebx
  40e19b: 53                           	pushl	%ebx
  40e19c: 45                           	incl	%ebp
  40e19d: 5f                           	popl	%edi
  40e19e: 50                           	pushl	%eax
  40e19f: 41                           	incl	%ecx
  40e1a0: 43                           	incl	%ebx
  40e1a1: 4b                           	decl	%ebx
  40e1a2: 45                           	incl	%ebp
  40e1a3: 44                           	incl	%esp
  40e1a4: 5f                           	popl	%edi
  40e1a5: 53                           	pushl	%ebx
  40e1a6: 49                           	decl	%ecx
  40e1a7: 4e                           	decl	%esi
  40e1a8: 47                           	incl	%edi
  40e1a9: 4c                           	decl	%esp
  40e1aa: 45                           	incl	%ebp
  40e1ab: 5f                           	popl	%edi
  40e1ac: 49                           	decl	%ecx
  40e1ad: 4e                           	decl	%esi
  40e1ae: 53                           	pushl	%ebx
  40e1af: 4e                           	decl	%esi
  40e1b0: 5f                           	popl	%edi
  40e1b1: 4f                           	decl	%edi
  40e1b2: 50                           	pushl	%eax
  40e1b3: 54                           	pushl	%esp
  40e1b4: 49                           	decl	%ecx
  40e1b5: 4d                           	decl	%ebp
  40e1b6: 41                           	incl	%ecx
  40e1b7: 4c                           	decl	%esp
  40e1b8: 00 30                        	addb	%dh, (%eax)
  40e1ba: 11 58 38                     	adcl	%ebx, 56(%eax)
  40e1bd: 36 5f                        	popl	%edi
  40e1bf: 54                           	pushl	%esp
  40e1c0: 55                           	pushl	%ebp
  40e1c1: 4e                           	decl	%esi
  40e1c2: 45                           	incl	%ebp
  40e1c3: 5f                           	popl	%edi
  40e1c4: 53                           	pushl	%ebx
  40e1c5: 53                           	pushl	%ebx
  40e1c6: 45                           	incl	%ebp
  40e1c7: 5f                           	popl	%edi
  40e1c8: 54                           	pushl	%esp
  40e1c9: 59                           	popl	%ecx
  40e1ca: 50                           	pushl	%eax
  40e1cb: 45                           	incl	%ebp
  40e1cc: 4c                           	decl	%esp
  40e1cd: 45                           	incl	%ebp
  40e1ce: 53                           	pushl	%ebx
  40e1cf: 53                           	pushl	%ebx
  40e1d0: 5f                           	popl	%edi
  40e1d1: 53                           	pushl	%ebx
  40e1d2: 54                           	pushl	%esp
  40e1d3: 4f                           	decl	%edi
  40e1d4: 52                           	pushl	%edx
  40e1d5: 45                           	incl	%ebp
  40e1d6: 53                           	pushl	%ebx
  40e1d7: 00 31                        	addb	%dh, (%ecx)
  40e1d9: 11 58 38                     	adcl	%ebx, 56(%eax)
  40e1dc: 36 5f                        	popl	%edi
  40e1de: 54                           	pushl	%esp
  40e1df: 55                           	pushl	%ebp
  40e1e0: 4e                           	decl	%esi
  40e1e1: 45                           	incl	%ebp
  40e1e2: 5f                           	popl	%edi
  40e1e3: 53                           	pushl	%ebx
  40e1e4: 53                           	pushl	%ebx
  40e1e5: 45                           	incl	%ebp
  40e1e6: 5f                           	popl	%edi
  40e1e7: 4c                           	decl	%esp
  40e1e8: 4f                           	decl	%edi
  40e1e9: 41                           	incl	%ecx
  40e1ea: 44                           	incl	%esp
  40e1eb: 30 5f 42                     	xorb	%bl, 66(%edi)
  40e1ee: 59                           	popl	%ecx
  40e1ef: 5f                           	popl	%edi
  40e1f0: 50                           	pushl	%eax
  40e1f1: 58                           	popl	%eax
  40e1f2: 4f                           	decl	%edi
  40e1f3: 52                           	pushl	%edx
  40e1f4: 00 32                        	addb	%dh, (%edx)
  40e1f6: 11 58 38                     	adcl	%ebx, 56(%eax)
  40e1f9: 36 5f                        	popl	%edi
  40e1fb: 54                           	pushl	%esp
  40e1fc: 55                           	pushl	%ebp
  40e1fd: 4e                           	decl	%esi
  40e1fe: 45                           	incl	%ebp
  40e1ff: 5f                           	popl	%edi
  40e200: 49                           	decl	%ecx
  40e201: 4e                           	decl	%esi
  40e202: 54                           	pushl	%esp
  40e203: 45                           	incl	%ebp
  40e204: 52                           	pushl	%edx
  40e205: 5f                           	popl	%edi
  40e206: 55                           	pushl	%ebp
  40e207: 4e                           	decl	%esi
  40e208: 49                           	decl	%ecx
  40e209: 54                           	pushl	%esp
  40e20a: 5f                           	popl	%edi
  40e20b: 4d                           	decl	%ebp
  40e20c: 4f                           	decl	%edi
  40e20d: 56                           	pushl	%esi
  40e20e: 45                           	incl	%ebp
  40e20f: 53                           	pushl	%ebx
  40e210: 5f                           	popl	%edi
  40e211: 54                           	pushl	%esp
  40e212: 4f                           	decl	%edi
  40e213: 5f                           	popl	%edi
  40e214: 56                           	pushl	%esi
  40e215: 45                           	incl	%ebp
  40e216: 43                           	incl	%ebx
  40e217: 00 33                        	addb	%dh, (%ebx)
  40e219: 11 58 38                     	adcl	%ebx, 56(%eax)
  40e21c: 36 5f                        	popl	%edi
  40e21e: 54                           	pushl	%esp
  40e21f: 55                           	pushl	%ebp
  40e220: 4e                           	decl	%esi
  40e221: 45                           	incl	%ebp
  40e222: 5f                           	popl	%edi
  40e223: 49                           	decl	%ecx
  40e224: 4e                           	decl	%esi
  40e225: 54                           	pushl	%esp
  40e226: 45                           	incl	%ebp
  40e227: 52                           	pushl	%edx
  40e228: 5f                           	popl	%edi
  40e229: 55                           	pushl	%ebp
  40e22a: 4e                           	decl	%esi
  40e22b: 49                           	decl	%ecx
  40e22c: 54                           	pushl	%esp
  40e22d: 5f                           	popl	%edi
  40e22e: 4d                           	decl	%ebp
  40e22f: 4f                           	decl	%edi
  40e230: 56                           	pushl	%esi
  40e231: 45                           	incl	%ebp
  40e232: 53                           	pushl	%ebx
  40e233: 5f                           	popl	%edi
  40e234: 46                           	incl	%esi
  40e235: 52                           	pushl	%edx
  40e236: 4f                           	decl	%edi
  40e237: 4d                           	decl	%ebp
  40e238: 5f                           	popl	%edi
  40e239: 56                           	pushl	%esi
  40e23a: 45                           	incl	%ebp
  40e23b: 43                           	incl	%ebx
  40e23c: 00 34 11                     	addb	%dh, (%ecx,%edx)
  40e23f: 58                           	popl	%eax
  40e240: 38 36                        	cmpb	%dh, (%esi)
  40e242: 5f                           	popl	%edi
  40e243: 54                           	pushl	%esp
  40e244: 55                           	pushl	%ebp
  40e245: 4e                           	decl	%esi
  40e246: 45                           	incl	%ebp
  40e247: 5f                           	popl	%edi
  40e248: 49                           	decl	%ecx
  40e249: 4e                           	decl	%esi
  40e24a: 54                           	pushl	%esp
  40e24b: 45                           	incl	%ebp
  40e24c: 52                           	pushl	%edx
  40e24d: 5f                           	popl	%edi
  40e24e: 55                           	pushl	%ebp
  40e24f: 4e                           	decl	%esi
  40e250: 49                           	decl	%ecx
  40e251: 54                           	pushl	%esp
  40e252: 5f                           	popl	%edi
  40e253: 43                           	incl	%ebx
  40e254: 4f                           	decl	%edi
  40e255: 4e                           	decl	%esi
  40e256: 56                           	pushl	%esi
  40e257: 45                           	incl	%ebp
  40e258: 52                           	pushl	%edx
  40e259: 53                           	pushl	%ebx
  40e25a: 49                           	decl	%ecx
  40e25b: 4f                           	decl	%edi
  40e25c: 4e                           	decl	%esi
  40e25d: 53                           	pushl	%ebx
  40e25e: 00 35 11 58 38 36            	addb	%dh, 909662225
  40e264: 5f                           	popl	%edi
  40e265: 54                           	pushl	%esp
  40e266: 55                           	pushl	%ebp
  40e267: 4e                           	decl	%esi
  40e268: 45                           	incl	%ebp
  40e269: 5f                           	popl	%edi
  40e26a: 53                           	pushl	%ebx
  40e26b: 50                           	pushl	%eax
  40e26c: 4c                           	decl	%esp
  40e26d: 49                           	decl	%ecx
  40e26e: 54                           	pushl	%esp
  40e26f: 5f                           	popl	%edi
  40e270: 4d                           	decl	%ebp
  40e271: 45                           	incl	%ebp
  40e272: 4d                           	decl	%ebp
  40e273: 5f                           	popl	%edi
  40e274: 4f                           	decl	%edi
  40e275: 50                           	pushl	%eax
  40e276: 4e                           	decl	%esi
  40e277: 44                           	incl	%esp
  40e278: 5f                           	popl	%edi
  40e279: 46                           	incl	%esi
  40e27a: 4f                           	decl	%edi
  40e27b: 52                           	pushl	%edx
  40e27c: 5f                           	popl	%edi
  40e27d: 46                           	incl	%esi
  40e27e: 50                           	pushl	%eax
  40e27f: 5f                           	popl	%edi
  40e280: 43                           	incl	%ebx
  40e281: 4f                           	decl	%edi
  40e282: 4e                           	decl	%esi
  40e283: 56                           	pushl	%esi
  40e284: 45                           	incl	%ebp
  40e285: 52                           	pushl	%edx
  40e286: 54                           	pushl	%esp
  40e287: 53                           	pushl	%ebx
  40e288: 00 36                        	addb	%dh, (%esi)
  40e28a: 11 58 38                     	adcl	%ebx, 56(%eax)
  40e28d: 36 5f                        	popl	%edi
  40e28f: 54                           	pushl	%esp
  40e290: 55                           	pushl	%ebp
  40e291: 4e                           	decl	%esi
  40e292: 45                           	incl	%ebp
  40e293: 5f                           	popl	%edi
  40e294: 55                           	pushl	%ebp
  40e295: 53                           	pushl	%ebx
  40e296: 45                           	incl	%ebp
  40e297: 5f                           	popl	%edi
  40e298: 56                           	pushl	%esi
  40e299: 45                           	incl	%ebp
  40e29a: 43                           	incl	%ebx
  40e29b: 54                           	pushl	%esp
  40e29c: 4f                           	decl	%edi
  40e29d: 52                           	pushl	%edx
  40e29e: 5f                           	popl	%edi
  40e29f: 46                           	incl	%esi
  40e2a0: 50                           	pushl	%eax
  40e2a1: 5f                           	popl	%edi
  40e2a2: 43                           	incl	%ebx
  40e2a3: 4f                           	decl	%edi
  40e2a4: 4e                           	decl	%esi
  40e2a5: 56                           	pushl	%esi
  40e2a6: 45                           	incl	%ebp
  40e2a7: 52                           	pushl	%edx
  40e2a8: 54                           	pushl	%esp
  40e2a9: 53                           	pushl	%ebx
  40e2aa: 00 37                        	addb	%dh, (%edi)
  40e2ac: 11 58 38                     	adcl	%ebx, 56(%eax)
  40e2af: 36 5f                        	popl	%edi
  40e2b1: 54                           	pushl	%esp
  40e2b2: 55                           	pushl	%ebp
  40e2b3: 4e                           	decl	%esi
  40e2b4: 45                           	incl	%ebp
  40e2b5: 5f                           	popl	%edi
  40e2b6: 55                           	pushl	%ebp
  40e2b7: 53                           	pushl	%ebx
  40e2b8: 45                           	incl	%ebp
  40e2b9: 5f                           	popl	%edi
  40e2ba: 56                           	pushl	%esi
  40e2bb: 45                           	incl	%ebp
  40e2bc: 43                           	incl	%ebx
  40e2bd: 54                           	pushl	%esp
  40e2be: 4f                           	decl	%edi
  40e2bf: 52                           	pushl	%edx
  40e2c0: 5f                           	popl	%edi
  40e2c1: 43                           	incl	%ebx
  40e2c2: 4f                           	decl	%edi
  40e2c3: 4e                           	decl	%esi
  40e2c4: 56                           	pushl	%esi
  40e2c5: 45                           	incl	%ebp
  40e2c6: 52                           	pushl	%edx
  40e2c7: 54                           	pushl	%esp
  40e2c8: 53                           	pushl	%ebx
  40e2c9: 00 38                        	addb	%bh, (%eax)
  40e2cb: 11 58 38                     	adcl	%ebx, 56(%eax)
  40e2ce: 36 5f                        	popl	%edi
  40e2d0: 54                           	pushl	%esp
  40e2d1: 55                           	pushl	%ebp
  40e2d2: 4e                           	decl	%esi
  40e2d3: 45                           	incl	%ebp
  40e2d4: 5f                           	popl	%edi
  40e2d5: 53                           	pushl	%ebx
  40e2d6: 4c                           	decl	%esp
  40e2d7: 4f                           	decl	%edi
  40e2d8: 57                           	pushl	%edi
  40e2d9: 5f                           	popl	%edi
  40e2da: 50                           	pushl	%eax
  40e2db: 53                           	pushl	%ebx
  40e2dc: 48                           	decl	%eax
  40e2dd: 55                           	pushl	%ebp
  40e2de: 46                           	incl	%esi
  40e2df: 42                           	incl	%edx
  40e2e0: 00 39                        	addb	%bh, (%ecx)
  40e2e2: 11 58 38                     	adcl	%ebx, 56(%eax)
  40e2e5: 36 5f                        	popl	%edi
  40e2e7: 54                           	pushl	%esp
  40e2e8: 55                           	pushl	%ebp
  40e2e9: 4e                           	decl	%esi
  40e2ea: 45                           	incl	%ebp
  40e2eb: 5f                           	popl	%edi
  40e2ec: 41                           	incl	%ecx
  40e2ed: 56                           	pushl	%esi
  40e2ee: 4f                           	decl	%edi
  40e2ef: 49                           	decl	%ecx
  40e2f0: 44                           	incl	%esp
  40e2f1: 5f                           	popl	%edi
  40e2f2: 34 42                        	xorb	$66, %al
  40e2f4: 59                           	popl	%ecx
  40e2f5: 54                           	pushl	%esp
  40e2f6: 45                           	incl	%ebp
  40e2f7: 5f                           	popl	%edi
  40e2f8: 50                           	pushl	%eax
  40e2f9: 52                           	pushl	%edx
  40e2fa: 45                           	incl	%ebp
  40e2fb: 46                           	incl	%esi
  40e2fc: 49                           	decl	%ecx
  40e2fd: 58                           	popl	%eax
  40e2fe: 45                           	incl	%ebp
  40e2ff: 53                           	pushl	%ebx
  40e300: 00 3a                        	addb	%bh, (%edx)
  40e302: 11 58 38                     	adcl	%ebx, 56(%eax)
  40e305: 36 5f                        	popl	%edi
  40e307: 54                           	pushl	%esp
  40e308: 55                           	pushl	%ebp
  40e309: 4e                           	decl	%esi
  40e30a: 45                           	incl	%ebp
  40e30b: 5f                           	popl	%edi
  40e30c: 55                           	pushl	%ebp
  40e30d: 53                           	pushl	%ebx
  40e30e: 45                           	incl	%ebp
  40e30f: 5f                           	popl	%edi
  40e310: 47                           	incl	%edi
  40e311: 41                           	incl	%ecx
  40e312: 54                           	pushl	%esp
  40e313: 48                           	decl	%eax
  40e314: 45                           	incl	%ebp
  40e315: 52                           	pushl	%edx
  40e316: 00 3b                        	addb	%bh, (%ebx)
  40e318: 11 58 38                     	adcl	%ebx, 56(%eax)
  40e31b: 36 5f                        	popl	%edi
  40e31d: 54                           	pushl	%esp
  40e31e: 55                           	pushl	%ebp
  40e31f: 4e                           	decl	%esi
  40e320: 45                           	incl	%ebp
  40e321: 5f                           	popl	%edi
  40e322: 41                           	incl	%ecx
  40e323: 56                           	pushl	%esi
  40e324: 4f                           	decl	%edi
  40e325: 49                           	decl	%ecx
  40e326: 44                           	incl	%esp
  40e327: 5f                           	popl	%edi
  40e328: 31 32                        	xorl	%esi, (%edx)
  40e32a: 38 46 4d                     	cmpb	%al, 77(%esi)
  40e32d: 41                           	incl	%ecx
  40e32e: 5f                           	popl	%edi
  40e32f: 43                           	incl	%ebx
  40e330: 48                           	decl	%eax
  40e331: 41                           	incl	%ecx
  40e332: 49                           	decl	%ecx
  40e333: 4e                           	decl	%esi
  40e334: 53                           	pushl	%ebx
  40e335: 00 3c 11                     	addb	%bh, (%ecx,%edx)
  40e338: 58                           	popl	%eax
  40e339: 38 36                        	cmpb	%dh, (%esi)
  40e33b: 5f                           	popl	%edi
  40e33c: 54                           	pushl	%esp
  40e33d: 55                           	pushl	%ebp
  40e33e: 4e                           	decl	%esi
  40e33f: 45                           	incl	%ebp
  40e340: 5f                           	popl	%edi
  40e341: 41                           	incl	%ecx
  40e342: 56                           	pushl	%esi
  40e343: 4f                           	decl	%edi
  40e344: 49                           	decl	%ecx
  40e345: 44                           	incl	%esp
  40e346: 5f                           	popl	%edi
  40e347: 32 35 36 46 4d 41            	xorb	1095583286, %dh
  40e34d: 5f                           	popl	%edi
  40e34e: 43                           	incl	%ebx
  40e34f: 48                           	decl	%eax
  40e350: 41                           	incl	%ecx
  40e351: 49                           	decl	%ecx
  40e352: 4e                           	decl	%esi
  40e353: 53                           	pushl	%ebx
  40e354: 00 3d 11 58 38 36            	addb	%bh, 909662225
  40e35a: 5f                           	popl	%edi
  40e35b: 54                           	pushl	%esp
  40e35c: 55                           	pushl	%ebp
  40e35d: 4e                           	decl	%esi
  40e35e: 45                           	incl	%ebp
  40e35f: 5f                           	popl	%edi
  40e360: 41                           	incl	%ecx
  40e361: 56                           	pushl	%esi
  40e362: 58                           	popl	%eax
  40e363: 32 35 36 5f 55 4e            	xorb	1314217782, %dh
  40e369: 41                           	incl	%ecx
  40e36a: 4c                           	decl	%esp
  40e36b: 49                           	decl	%ecx
  40e36c: 47                           	incl	%edi
  40e36d: 4e                           	decl	%esi
  40e36e: 45                           	incl	%ebp
  40e36f: 44                           	incl	%esp
  40e370: 5f                           	popl	%edi
  40e371: 4c                           	decl	%esp
  40e372: 4f                           	decl	%edi
  40e373: 41                           	incl	%ecx
  40e374: 44                           	incl	%esp
  40e375: 5f                           	popl	%edi
  40e376: 4f                           	decl	%edi
  40e377: 50                           	pushl	%eax
  40e378: 54                           	pushl	%esp
  40e379: 49                           	decl	%ecx
  40e37a: 4d                           	decl	%ebp
  40e37b: 41                           	incl	%ecx
  40e37c: 4c                           	decl	%esp
  40e37d: 00 3e                        	addb	%bh, (%esi)
  40e37f: 11 58 38                     	adcl	%ebx, 56(%eax)
  40e382: 36 5f                        	popl	%edi
  40e384: 54                           	pushl	%esp
  40e385: 55                           	pushl	%ebp
  40e386: 4e                           	decl	%esi
  40e387: 45                           	incl	%ebp
  40e388: 5f                           	popl	%edi
  40e389: 41                           	incl	%ecx
  40e38a: 56                           	pushl	%esi
  40e38b: 58                           	popl	%eax
  40e38c: 32 35 36 5f 55 4e            	xorb	1314217782, %dh
  40e392: 41                           	incl	%ecx
  40e393: 4c                           	decl	%esp
  40e394: 49                           	decl	%ecx
  40e395: 47                           	incl	%edi
  40e396: 4e                           	decl	%esi
  40e397: 45                           	incl	%ebp
  40e398: 44                           	incl	%esp
  40e399: 5f                           	popl	%edi
  40e39a: 53                           	pushl	%ebx
  40e39b: 54                           	pushl	%esp
  40e39c: 4f                           	decl	%edi
  40e39d: 52                           	pushl	%edx
  40e39e: 45                           	incl	%ebp
  40e39f: 5f                           	popl	%edi
  40e3a0: 4f                           	decl	%edi
  40e3a1: 50                           	pushl	%eax
  40e3a2: 54                           	pushl	%esp
  40e3a3: 49                           	decl	%ecx
  40e3a4: 4d                           	decl	%ebp
  40e3a5: 41                           	incl	%ecx
  40e3a6: 4c                           	decl	%esp
  40e3a7: 00 3f                        	addb	%bh, (%edi)
  40e3a9: 11 58 38                     	adcl	%ebx, 56(%eax)
  40e3ac: 36 5f                        	popl	%edi
  40e3ae: 54                           	pushl	%esp
  40e3af: 55                           	pushl	%ebp
  40e3b0: 4e                           	decl	%esi
  40e3b1: 45                           	incl	%ebp
  40e3b2: 5f                           	popl	%edi
  40e3b3: 41                           	incl	%ecx
  40e3b4: 56                           	pushl	%esi
  40e3b5: 58                           	popl	%eax
  40e3b6: 31 32                        	xorl	%esi, (%edx)
  40e3b8: 38 5f 4f                     	cmpb	%bl, 79(%edi)
  40e3bb: 50                           	pushl	%eax
  40e3bc: 54                           	pushl	%esp
  40e3bd: 49                           	decl	%ecx
  40e3be: 4d                           	decl	%ebp
  40e3bf: 41                           	incl	%ecx
  40e3c0: 4c                           	decl	%esp
  40e3c1: 00 40 11                     	addb	%al, 17(%eax)
  40e3c4: 58                           	popl	%eax
  40e3c5: 38 36                        	cmpb	%dh, (%esi)
  40e3c7: 5f                           	popl	%edi
  40e3c8: 54                           	pushl	%esp
  40e3c9: 55                           	pushl	%ebp
  40e3ca: 4e                           	decl	%esi
  40e3cb: 45                           	incl	%ebp
  40e3cc: 5f                           	popl	%edi
  40e3cd: 41                           	incl	%ecx
  40e3ce: 56                           	pushl	%esi
  40e3cf: 58                           	popl	%eax
  40e3d0: 32 35 36 5f 4f 50            	xorb	1347378998, %dh
  40e3d6: 54                           	pushl	%esp
  40e3d7: 49                           	decl	%ecx
  40e3d8: 4d                           	decl	%ebp
  40e3d9: 41                           	incl	%ecx
  40e3da: 4c                           	decl	%esp
  40e3db: 00 41 11                     	addb	%al, 17(%ecx)
  40e3de: 58                           	popl	%eax
  40e3df: 38 36                        	cmpb	%dh, (%esi)
  40e3e1: 5f                           	popl	%edi
  40e3e2: 54                           	pushl	%esp
  40e3e3: 55                           	pushl	%ebp
  40e3e4: 4e                           	decl	%esi
  40e3e5: 45                           	incl	%ebp
  40e3e6: 5f                           	popl	%edi
  40e3e7: 44                           	incl	%esp
  40e3e8: 4f                           	decl	%edi
  40e3e9: 55                           	pushl	%ebp
  40e3ea: 42                           	incl	%edx
  40e3eb: 4c                           	decl	%esp
  40e3ec: 45                           	incl	%ebp
  40e3ed: 5f                           	popl	%edi
  40e3ee: 57                           	pushl	%edi
  40e3ef: 49                           	decl	%ecx
  40e3f0: 54                           	pushl	%esp
  40e3f1: 48                           	decl	%eax
  40e3f2: 5f                           	popl	%edi
  40e3f3: 41                           	incl	%ecx
  40e3f4: 44                           	incl	%esp
  40e3f5: 44                           	incl	%esp
  40e3f6: 00 42 11                     	addb	%al, 17(%edx)
  40e3f9: 58                           	popl	%eax
  40e3fa: 38 36                        	cmpb	%dh, (%esi)
  40e3fc: 5f                           	popl	%edi
  40e3fd: 54                           	pushl	%esp
  40e3fe: 55                           	pushl	%ebp
  40e3ff: 4e                           	decl	%esi
  40e400: 45                           	incl	%ebp
  40e401: 5f                           	popl	%edi
  40e402: 41                           	incl	%ecx
  40e403: 4c                           	decl	%esp
  40e404: 57                           	pushl	%edi
  40e405: 41                           	incl	%ecx
  40e406: 59                           	popl	%ecx
  40e407: 53                           	pushl	%ebx
  40e408: 5f                           	popl	%edi
  40e409: 46                           	incl	%esi
  40e40a: 41                           	incl	%ecx
  40e40b: 4e                           	decl	%esi
  40e40c: 43                           	incl	%ebx
  40e40d: 59                           	popl	%ecx
  40e40e: 5f                           	popl	%edi
  40e40f: 4d                           	decl	%ebp
  40e410: 41                           	incl	%ecx
  40e411: 54                           	pushl	%esp
  40e412: 48                           	decl	%eax
  40e413: 5f                           	popl	%edi
  40e414: 33 38                        	xorl	(%eax), %edi
  40e416: 37                           	aaa
  40e417: 00 43 11                     	addb	%al, 17(%ebx)
  40e41a: 58                           	popl	%eax
  40e41b: 38 36                        	cmpb	%dh, (%esi)
  40e41d: 5f                           	popl	%edi
  40e41e: 54                           	pushl	%esp
  40e41f: 55                           	pushl	%ebp
  40e420: 4e                           	decl	%esi
  40e421: 45                           	incl	%ebp
  40e422: 5f                           	popl	%edi
  40e423: 55                           	pushl	%ebp
  40e424: 4e                           	decl	%esi
  40e425: 52                           	pushl	%edx
  40e426: 4f                           	decl	%edi
  40e427: 4c                           	decl	%esp
  40e428: 4c                           	decl	%esp
  40e429: 5f                           	popl	%edi
  40e42a: 53                           	pushl	%ebx
  40e42b: 54                           	pushl	%esp
  40e42c: 52                           	pushl	%edx
  40e42d: 4c                           	decl	%esp
  40e42e: 45                           	incl	%ebp
  40e42f: 4e                           	decl	%esi
  40e430: 00 44 11 58                  	addb	%al, 88(%ecx,%edx)
  40e434: 38 36                        	cmpb	%dh, (%esi)
  40e436: 5f                           	popl	%edi
  40e437: 54                           	pushl	%esp
  40e438: 55                           	pushl	%ebp
  40e439: 4e                           	decl	%esi
  40e43a: 45                           	incl	%ebp
  40e43b: 5f                           	popl	%edi
  40e43c: 53                           	pushl	%ebx
  40e43d: 48                           	decl	%eax
  40e43e: 49                           	decl	%ecx
  40e43f: 46                           	incl	%esi
  40e440: 54                           	pushl	%esp
  40e441: 31 00                        	xorl	%eax, (%eax)
  40e443: 45                           	incl	%ebp
  40e444: 11 58 38                     	adcl	%ebx, 56(%eax)
  40e447: 36 5f                        	popl	%edi
  40e449: 54                           	pushl	%esp
  40e44a: 55                           	pushl	%ebp
  40e44b: 4e                           	decl	%esi
  40e44c: 45                           	incl	%ebp
  40e44d: 5f                           	popl	%edi
  40e44e: 5a                           	popl	%edx
  40e44f: 45                           	incl	%ebp
  40e450: 52                           	pushl	%edx
  40e451: 4f                           	decl	%edi
  40e452: 5f                           	popl	%edi
  40e453: 45                           	incl	%ebp
  40e454: 58                           	popl	%eax
  40e455: 54                           	pushl	%esp
  40e456: 45                           	incl	%ebp
  40e457: 4e                           	decl	%esi
  40e458: 44                           	incl	%esp
  40e459: 5f                           	popl	%edi
  40e45a: 57                           	pushl	%edi
  40e45b: 49                           	decl	%ecx
  40e45c: 54                           	pushl	%esp
  40e45d: 48                           	decl	%eax
  40e45e: 5f                           	popl	%edi
  40e45f: 41                           	incl	%ecx
  40e460: 4e                           	decl	%esi
  40e461: 44                           	incl	%esp
  40e462: 00 46 11                     	addb	%al, 17(%esi)
  40e465: 58                           	popl	%eax
  40e466: 38 36                        	cmpb	%dh, (%esi)
  40e468: 5f                           	popl	%edi
  40e469: 54                           	pushl	%esp
  40e46a: 55                           	pushl	%ebp
  40e46b: 4e                           	decl	%esi
  40e46c: 45                           	incl	%ebp
  40e46d: 5f                           	popl	%edi
  40e46e: 50                           	pushl	%eax
  40e46f: 52                           	pushl	%edx
  40e470: 4f                           	decl	%edi
  40e471: 4d                           	decl	%ebp
  40e472: 4f                           	decl	%edi
  40e473: 54                           	pushl	%esp
  40e474: 45                           	incl	%ebp
  40e475: 5f                           	popl	%edi
  40e476: 48                           	decl	%eax
  40e477: 49                           	decl	%ecx
  40e478: 4d                           	decl	%ebp
  40e479: 4f                           	decl	%edi
  40e47a: 44                           	incl	%esp
  40e47b: 45                           	incl	%ebp
  40e47c: 5f                           	popl	%edi
  40e47d: 49                           	decl	%ecx
  40e47e: 4d                           	decl	%ebp
  40e47f: 55                           	pushl	%ebp
  40e480: 4c                           	decl	%esp
  40e481: 00 47 11                     	addb	%al, 17(%edi)
  40e484: 58                           	popl	%eax
  40e485: 38 36                        	cmpb	%dh, (%esi)
  40e487: 5f                           	popl	%edi
  40e488: 54                           	pushl	%esp
  40e489: 55                           	pushl	%ebp
  40e48a: 4e                           	decl	%esi
  40e48b: 45                           	incl	%ebp
  40e48c: 5f                           	popl	%edi
  40e48d: 46                           	incl	%esi
  40e48e: 41                           	incl	%ecx
  40e48f: 53                           	pushl	%ebx
  40e490: 54                           	pushl	%esp
  40e491: 5f                           	popl	%edi
  40e492: 50                           	pushl	%eax
  40e493: 52                           	pushl	%edx
  40e494: 45                           	incl	%ebp
  40e495: 46                           	incl	%esi
  40e496: 49                           	decl	%ecx
  40e497: 58                           	popl	%eax
  40e498: 00 48 11                     	addb	%cl, 17(%eax)
  40e49b: 58                           	popl	%eax
  40e49c: 38 36                        	cmpb	%dh, (%esi)
  40e49e: 5f                           	popl	%edi
  40e49f: 54                           	pushl	%esp
  40e4a0: 55                           	pushl	%ebp
  40e4a1: 4e                           	decl	%esi
  40e4a2: 45                           	incl	%ebp
  40e4a3: 5f                           	popl	%edi
  40e4a4: 52                           	pushl	%edx
  40e4a5: 45                           	incl	%ebp
  40e4a6: 41                           	incl	%ecx
  40e4a7: 44                           	incl	%esp
  40e4a8: 5f                           	popl	%edi
  40e4a9: 4d                           	decl	%ebp
  40e4aa: 4f                           	decl	%edi
  40e4ab: 44                           	incl	%esp
  40e4ac: 49                           	decl	%ecx
  40e4ad: 46                           	incl	%esi
  40e4ae: 59                           	popl	%ecx
  40e4af: 5f                           	popl	%edi
  40e4b0: 57                           	pushl	%edi
  40e4b1: 52                           	pushl	%edx
  40e4b2: 49                           	decl	%ecx
  40e4b3: 54                           	pushl	%esp
  40e4b4: 45                           	incl	%ebp
  40e4b5: 00 49 11                     	addb	%cl, 17(%ecx)
  40e4b8: 58                           	popl	%eax
  40e4b9: 38 36                        	cmpb	%dh, (%esi)
  40e4bb: 5f                           	popl	%edi
  40e4bc: 54                           	pushl	%esp
  40e4bd: 55                           	pushl	%ebp
  40e4be: 4e                           	decl	%esi
  40e4bf: 45                           	incl	%ebp
  40e4c0: 5f                           	popl	%edi
  40e4c1: 4d                           	decl	%ebp
  40e4c2: 4f                           	decl	%edi
  40e4c3: 56                           	pushl	%esi
  40e4c4: 45                           	incl	%ebp
  40e4c5: 5f                           	popl	%edi
  40e4c6: 4d                           	decl	%ebp
  40e4c7: 31 5f 56                     	xorl	%ebx, 86(%edi)
  40e4ca: 49                           	decl	%ecx
  40e4cb: 41                           	incl	%ecx
  40e4cc: 5f                           	popl	%edi
  40e4cd: 4f                           	decl	%edi
  40e4ce: 52                           	pushl	%edx
  40e4cf: 00 4a 11                     	addb	%cl, 17(%edx)
  40e4d2: 58                           	popl	%eax
  40e4d3: 38 36                        	cmpb	%dh, (%esi)
  40e4d5: 5f                           	popl	%edi
  40e4d6: 54                           	pushl	%esp
  40e4d7: 55                           	pushl	%ebp
  40e4d8: 4e                           	decl	%esi
  40e4d9: 45                           	incl	%ebp
  40e4da: 5f                           	popl	%edi
  40e4db: 4e                           	decl	%esi
  40e4dc: 4f                           	decl	%edi
  40e4dd: 54                           	pushl	%esp
  40e4de: 5f                           	popl	%edi
  40e4df: 55                           	pushl	%ebp
  40e4e0: 4e                           	decl	%esi
  40e4e1: 50                           	pushl	%eax
  40e4e2: 41                           	incl	%ecx
  40e4e3: 49                           	decl	%ecx
  40e4e4: 52                           	pushl	%edx
  40e4e5: 41                           	incl	%ecx
  40e4e6: 42                           	incl	%edx
  40e4e7: 4c                           	decl	%esp
  40e4e8: 45                           	incl	%ebp
  40e4e9: 00 4b 11                     	addb	%cl, 17(%ebx)
  40e4ec: 58                           	popl	%eax
  40e4ed: 38 36                        	cmpb	%dh, (%esi)
  40e4ef: 5f                           	popl	%edi
  40e4f0: 54                           	pushl	%esp
  40e4f1: 55                           	pushl	%ebp
  40e4f2: 4e                           	decl	%esi
  40e4f3: 45                           	incl	%ebp
  40e4f4: 5f                           	popl	%edi
  40e4f5: 50                           	pushl	%eax
  40e4f6: 41                           	incl	%ecx
  40e4f7: 52                           	pushl	%edx
  40e4f8: 54                           	pushl	%esp
  40e4f9: 49                           	decl	%ecx
  40e4fa: 41                           	incl	%ecx
  40e4fb: 4c                           	decl	%esp
  40e4fc: 5f                           	popl	%edi
  40e4fd: 52                           	pushl	%edx
  40e4fe: 45                           	incl	%ebp
  40e4ff: 47                           	incl	%edi
  40e500: 5f                           	popl	%edi
  40e501: 53                           	pushl	%ebx
  40e502: 54                           	pushl	%esp
  40e503: 41                           	incl	%ecx
  40e504: 4c                           	decl	%esp
  40e505: 4c                           	decl	%esp
  40e506: 00 4c 11 58                  	addb	%cl, 88(%ecx,%edx)
  40e50a: 38 36                        	cmpb	%dh, (%esi)
  40e50c: 5f                           	popl	%edi
  40e50d: 54                           	pushl	%esp
  40e50e: 55                           	pushl	%ebp
  40e50f: 4e                           	decl	%esi
  40e510: 45                           	incl	%ebp
  40e511: 5f                           	popl	%edi
  40e512: 50                           	pushl	%eax
  40e513: 52                           	pushl	%edx
  40e514: 4f                           	decl	%edi
  40e515: 4d                           	decl	%ebp
  40e516: 4f                           	decl	%edi
  40e517: 54                           	pushl	%esp
  40e518: 45                           	incl	%ebp
  40e519: 5f                           	popl	%edi
  40e51a: 51                           	pushl	%ecx
  40e51b: 49                           	decl	%ecx
  40e51c: 4d                           	decl	%ebp
  40e51d: 4f                           	decl	%edi
  40e51e: 44                           	incl	%esp
  40e51f: 45                           	incl	%ebp
  40e520: 00 4d 11                     	addb	%cl, 17(%ebp)
  40e523: 58                           	popl	%eax
  40e524: 38 36                        	cmpb	%dh, (%esi)
  40e526: 5f                           	popl	%edi
  40e527: 54                           	pushl	%esp
  40e528: 55                           	pushl	%ebp
  40e529: 4e                           	decl	%esi
  40e52a: 45                           	incl	%ebp
  40e52b: 5f                           	popl	%edi
  40e52c: 50                           	pushl	%eax
  40e52d: 52                           	pushl	%edx
  40e52e: 4f                           	decl	%edi
  40e52f: 4d                           	decl	%ebp
  40e530: 4f                           	decl	%edi
  40e531: 54                           	pushl	%esp
  40e532: 45                           	incl	%ebp
  40e533: 5f                           	popl	%edi
  40e534: 48                           	decl	%eax
  40e535: 49                           	decl	%ecx
  40e536: 5f                           	popl	%edi
  40e537: 52                           	pushl	%edx
  40e538: 45                           	incl	%ebp
  40e539: 47                           	incl	%edi
  40e53a: 53                           	pushl	%ebx
  40e53b: 00 4e 11                     	addb	%cl, 17(%esi)
  40e53e: 58                           	popl	%eax
  40e53f: 38 36                        	cmpb	%dh, (%esi)
  40e541: 5f                           	popl	%edi
  40e542: 54                           	pushl	%esp
  40e543: 55                           	pushl	%ebp
  40e544: 4e                           	decl	%esi
  40e545: 45                           	incl	%ebp
  40e546: 5f                           	popl	%edi
  40e547: 48                           	decl	%eax
  40e548: 49                           	decl	%ecx
  40e549: 4d                           	decl	%ebp
  40e54a: 4f                           	decl	%edi
  40e54b: 44                           	incl	%esp
  40e54c: 45                           	incl	%ebp
  40e54d: 5f                           	popl	%edi
  40e54e: 4d                           	decl	%ebp
  40e54f: 41                           	incl	%ecx
  40e550: 54                           	pushl	%esp
  40e551: 48                           	decl	%eax
  40e552: 00 4f 11                     	addb	%cl, 17(%edi)
  40e555: 58                           	popl	%eax
  40e556: 38 36                        	cmpb	%dh, (%esi)
  40e558: 5f                           	popl	%edi
  40e559: 54                           	pushl	%esp
  40e55a: 55                           	pushl	%ebp
  40e55b: 4e                           	decl	%esi
  40e55c: 45                           	incl	%ebp
  40e55d: 5f                           	popl	%edi
  40e55e: 53                           	pushl	%ebx
  40e55f: 50                           	pushl	%eax
  40e560: 4c                           	decl	%esp
  40e561: 49                           	decl	%ecx
  40e562: 54                           	pushl	%esp
  40e563: 5f                           	popl	%edi
  40e564: 4c                           	decl	%esp
  40e565: 4f                           	decl	%edi
  40e566: 4e                           	decl	%esi
  40e567: 47                           	incl	%edi
  40e568: 5f                           	popl	%edi
  40e569: 4d                           	decl	%ebp
  40e56a: 4f                           	decl	%edi
  40e56b: 56                           	pushl	%esi
  40e56c: 45                           	incl	%ebp
  40e56d: 53                           	pushl	%ebx
  40e56e: 00 50 11                     	addb	%dl, 17(%eax)
  40e571: 58                           	popl	%eax
  40e572: 38 36                        	cmpb	%dh, (%esi)
  40e574: 5f                           	popl	%edi
  40e575: 54                           	pushl	%esp
  40e576: 55                           	pushl	%ebp
  40e577: 4e                           	decl	%esi
  40e578: 45                           	incl	%ebp
  40e579: 5f                           	popl	%edi
  40e57a: 55                           	pushl	%ebp
  40e57b: 53                           	pushl	%ebx
  40e57c: 45                           	incl	%ebp
  40e57d: 5f                           	popl	%edi
  40e57e: 58                           	popl	%eax
  40e57f: 43                           	incl	%ebx
  40e580: 48                           	decl	%eax
  40e581: 47                           	incl	%edi
  40e582: 42                           	incl	%edx
  40e583: 00 51 11                     	addb	%dl, 17(%ecx)
  40e586: 58                           	popl	%eax
  40e587: 38 36                        	cmpb	%dh, (%esi)
  40e589: 5f                           	popl	%edi
  40e58a: 54                           	pushl	%esp
  40e58b: 55                           	pushl	%ebp
  40e58c: 4e                           	decl	%esi
  40e58d: 45                           	incl	%ebp
  40e58e: 5f                           	popl	%edi
  40e58f: 55                           	pushl	%ebp
  40e590: 53                           	pushl	%ebx
  40e591: 45                           	incl	%ebp
  40e592: 5f                           	popl	%edi
  40e593: 4d                           	decl	%ebp
  40e594: 4f                           	decl	%edi
  40e595: 56                           	pushl	%esi
  40e596: 30 00                        	xorb	%al, (%eax)
  40e598: 52                           	pushl	%edx
  40e599: 11 58 38                     	adcl	%ebx, 56(%eax)
  40e59c: 36 5f                        	popl	%edi
  40e59e: 54                           	pushl	%esp
  40e59f: 55                           	pushl	%ebp
  40e5a0: 4e                           	decl	%esi
  40e5a1: 45                           	incl	%ebp
  40e5a2: 5f                           	popl	%edi
  40e5a3: 4e                           	decl	%esi
  40e5a4: 4f                           	decl	%edi
  40e5a5: 54                           	pushl	%esp
  40e5a6: 5f                           	popl	%edi
  40e5a7: 56                           	pushl	%esi
  40e5a8: 45                           	incl	%ebp
  40e5a9: 43                           	incl	%ebx
  40e5aa: 54                           	pushl	%esp
  40e5ab: 4f                           	decl	%edi
  40e5ac: 52                           	pushl	%edx
  40e5ad: 4d                           	decl	%ebp
  40e5ae: 4f                           	decl	%edi
  40e5af: 44                           	incl	%esp
  40e5b0: 45                           	incl	%ebp
  40e5b1: 00 53 11                     	addb	%dl, 17(%ebx)
  40e5b4: 58                           	popl	%eax
  40e5b5: 38 36                        	cmpb	%dh, (%esi)
  40e5b7: 5f                           	popl	%edi
  40e5b8: 54                           	pushl	%esp
  40e5b9: 55                           	pushl	%ebp
  40e5ba: 4e                           	decl	%esi
  40e5bb: 45                           	incl	%ebp
  40e5bc: 5f                           	popl	%edi
  40e5bd: 41                           	incl	%ecx
  40e5be: 56                           	pushl	%esi
  40e5bf: 4f                           	decl	%edi
  40e5c0: 49                           	decl	%ecx
  40e5c1: 44                           	incl	%esp
  40e5c2: 5f                           	popl	%edi
  40e5c3: 56                           	pushl	%esi
  40e5c4: 45                           	incl	%ebp
  40e5c5: 43                           	incl	%ebx
  40e5c6: 54                           	pushl	%esp
  40e5c7: 4f                           	decl	%edi
  40e5c8: 52                           	pushl	%edx
  40e5c9: 5f                           	popl	%edi
  40e5ca: 44                           	incl	%esp
  40e5cb: 45                           	incl	%ebp
  40e5cc: 43                           	incl	%ebx
  40e5cd: 4f                           	decl	%edi
  40e5ce: 44                           	incl	%esp
  40e5cf: 45                           	incl	%ebp
  40e5d0: 00 54 11 58                  	addb	%dl, 88(%ecx,%edx)
  40e5d4: 38 36                        	cmpb	%dh, (%esi)
  40e5d6: 5f                           	popl	%edi
  40e5d7: 54                           	pushl	%esp
  40e5d8: 55                           	pushl	%ebp
  40e5d9: 4e                           	decl	%esi
  40e5da: 45                           	incl	%ebp
  40e5db: 5f                           	popl	%edi
  40e5dc: 42                           	incl	%edx
  40e5dd: 52                           	pushl	%edx
  40e5de: 41                           	incl	%ecx
  40e5df: 4e                           	decl	%esi
  40e5e0: 43                           	incl	%ebx
  40e5e1: 48                           	decl	%eax
  40e5e2: 5f                           	popl	%edi
  40e5e3: 50                           	pushl	%eax
  40e5e4: 52                           	pushl	%edx
  40e5e5: 45                           	incl	%ebp
  40e5e6: 44                           	incl	%esp
  40e5e7: 49                           	decl	%ecx
  40e5e8: 43                           	incl	%ebx
  40e5e9: 54                           	pushl	%esp
  40e5ea: 49                           	decl	%ecx
  40e5eb: 4f                           	decl	%edi
  40e5ec: 4e                           	decl	%esi
  40e5ed: 5f                           	popl	%edi
  40e5ee: 48                           	decl	%eax
  40e5ef: 49                           	decl	%ecx
  40e5f0: 4e                           	decl	%esi
  40e5f1: 54                           	pushl	%esp
  40e5f2: 53                           	pushl	%ebx
  40e5f3: 00 55 11                     	addb	%dl, 17(%ebp)
  40e5f6: 58                           	popl	%eax
  40e5f7: 38 36                        	cmpb	%dh, (%esi)
  40e5f9: 5f                           	popl	%edi
  40e5fa: 54                           	pushl	%esp
  40e5fb: 55                           	pushl	%ebp
  40e5fc: 4e                           	decl	%esi
  40e5fd: 45                           	incl	%ebp
  40e5fe: 5f                           	popl	%edi
  40e5ff: 51                           	pushl	%ecx
  40e600: 49                           	decl	%ecx
  40e601: 4d                           	decl	%ebp
  40e602: 4f                           	decl	%edi
  40e603: 44                           	incl	%esp
  40e604: 45                           	incl	%ebp
  40e605: 5f                           	popl	%edi
  40e606: 4d                           	decl	%ebp
  40e607: 41                           	incl	%ecx
  40e608: 54                           	pushl	%esp
  40e609: 48                           	decl	%eax
  40e60a: 00 56 11                     	addb	%dl, 17(%esi)
  40e60d: 58                           	popl	%eax
  40e60e: 38 36                        	cmpb	%dh, (%esi)
  40e610: 5f                           	popl	%edi
  40e611: 54                           	pushl	%esp
  40e612: 55                           	pushl	%ebp
  40e613: 4e                           	decl	%esi
  40e614: 45                           	incl	%ebp
  40e615: 5f                           	popl	%edi
  40e616: 50                           	pushl	%eax
  40e617: 52                           	pushl	%edx
  40e618: 4f                           	decl	%edi
  40e619: 4d                           	decl	%ebp
  40e61a: 4f                           	decl	%edi
  40e61b: 54                           	pushl	%esp
  40e61c: 45                           	incl	%ebp
  40e61d: 5f                           	popl	%edi
  40e61e: 51                           	pushl	%ecx
  40e61f: 49                           	decl	%ecx
  40e620: 5f                           	popl	%edi
  40e621: 52                           	pushl	%edx
  40e622: 45                           	incl	%ebp
  40e623: 47                           	incl	%edi
  40e624: 53                           	pushl	%ebx
  40e625: 00 57 11                     	addb	%dl, 17(%edi)
  40e628: 58                           	popl	%eax
  40e629: 38 36                        	cmpb	%dh, (%esi)
  40e62b: 5f                           	popl	%edi
  40e62c: 54                           	pushl	%esp
  40e62d: 55                           	pushl	%ebp
  40e62e: 4e                           	decl	%esi
  40e62f: 45                           	incl	%ebp
  40e630: 5f                           	popl	%edi
  40e631: 45                           	incl	%ebp
  40e632: 4d                           	decl	%ebp
  40e633: 49                           	decl	%ecx
  40e634: 54                           	pushl	%esp
  40e635: 5f                           	popl	%edi
  40e636: 56                           	pushl	%esi
  40e637: 5a                           	popl	%edx
  40e638: 45                           	incl	%ebp
  40e639: 52                           	pushl	%edx
  40e63a: 4f                           	decl	%edi
  40e63b: 55                           	pushl	%ebp
  40e63c: 50                           	pushl	%eax
  40e63d: 50                           	pushl	%eax
  40e63e: 45                           	incl	%ebp
  40e63f: 52                           	pushl	%edx
  40e640: 00 58 11                     	addb	%bl, 17(%eax)
  40e643: 58                           	popl	%eax
  40e644: 38 36                        	cmpb	%dh, (%esi)
  40e646: 5f                           	popl	%edi
  40e647: 54                           	pushl	%esp
  40e648: 55                           	pushl	%ebp
  40e649: 4e                           	decl	%esi
  40e64a: 45                           	incl	%ebp
  40e64b: 5f                           	popl	%edi
  40e64c: 4c                           	decl	%esp
  40e64d: 41                           	incl	%ecx
  40e64e: 53                           	pushl	%ebx
  40e64f: 54                           	pushl	%esp
  40e650: 00 59 00                     	addb	%bl, (%ecx)
  40e653: 08 4d 04                     	orb	%cl, 4(%ebp)
  40e656: 00 00                        	addb	%al, (%eax)
  40e658: 3d 16 00 00 0c               	cmpl	$201326614, %eax
  40e65d: f1                           	<unknown>
  40e65e: 00 00                        	addb	%al, (%eax)
  40e660: 00 58 00                     	addb	%bl, (%eax)
  40e663: 0b 69 78                     	orl	120(%ecx), %ebp
  40e666: 38 36                        	cmpb	%dh, (%esi)
  40e668: 5f                           	popl	%edi
  40e669: 74 75                        	je	0x40e6e0 <.debug_info+0x16ba>
  40e66b: 6e                           	outsb	(%esi), %dx
  40e66c: 65 5f                        	popl	%edi
  40e66e: 66 65 61                     	popaw
  40e671: 74 75                        	je	0x40e6e8 <.debug_info+0x16c2>
  40e673: 72 65                        	jb	0x40e6da <.debug_info+0x16b4>
  40e675: 73 00                        	jae	0x40e677 <.debug_info+0x1651>
  40e677: 07                           	popl	%es
  40e678: b0 01                        	movb	$1, %al
  40e67a: 16                           	pushl	%ss
  40e67b: 2d 16 00 00 15               	subl	$352321558, %eax
  40e680: 69 78 38 36 5f 61 72         	imull	$1918983990, 56(%eax), %edi
  40e687: 63 68 5f                     	arpl	%bp, 95(%eax)
  40e68a: 69 6e 64 69 63 65 73         	imull	$1936024425, 100(%esi), %ebp
  40e691: 00 07                        	addb	%al, (%edi)
  40e693: 04 f1                        	addb	$-15, %al
  40e695: 00 00                        	addb	%al, (%eax)
  40e697: 00 07                        	addb	%al, (%edi)
  40e699: 33 02                        	xorl	(%edx), %eax
  40e69b: 06                           	pushl	%es
  40e69c: e4 16                        	inb	$22, %al
  40e69e: 00 00                        	addb	%al, (%eax)
  40e6a0: 11 58 38                     	adcl	%ebx, 56(%eax)
  40e6a3: 36 5f                        	popl	%edi
  40e6a5: 41                           	incl	%ecx
  40e6a6: 52                           	pushl	%edx
  40e6a7: 43                           	incl	%ebx
  40e6a8: 48                           	decl	%eax
  40e6a9: 5f                           	popl	%edi
  40e6aa: 43                           	incl	%ebx
  40e6ab: 4d                           	decl	%ebp
  40e6ac: 4f                           	decl	%edi
  40e6ad: 56                           	pushl	%esi
  40e6ae: 00 00                        	addb	%al, (%eax)
  40e6b0: 11 58 38                     	adcl	%ebx, 56(%eax)
  40e6b3: 36 5f                        	popl	%edi
  40e6b5: 41                           	incl	%ecx
  40e6b6: 52                           	pushl	%edx
  40e6b7: 43                           	incl	%ebx
  40e6b8: 48                           	decl	%eax
  40e6b9: 5f                           	popl	%edi
  40e6ba: 43                           	incl	%ebx
  40e6bb: 4d                           	decl	%ebp
  40e6bc: 50                           	pushl	%eax
  40e6bd: 58                           	popl	%eax
  40e6be: 43                           	incl	%ebx
  40e6bf: 48                           	decl	%eax
  40e6c0: 47                           	incl	%edi
  40e6c1: 00 01                        	addb	%al, (%ecx)
  40e6c3: 11 58 38                     	adcl	%ebx, 56(%eax)
  40e6c6: 36 5f                        	popl	%edi
  40e6c8: 41                           	incl	%ecx
  40e6c9: 52                           	pushl	%edx
  40e6ca: 43                           	incl	%ebx
  40e6cb: 48                           	decl	%eax
  40e6cc: 5f                           	popl	%edi
  40e6cd: 43                           	incl	%ebx
  40e6ce: 4d                           	decl	%ebp
  40e6cf: 50                           	pushl	%eax
  40e6d0: 58                           	popl	%eax
  40e6d1: 43                           	incl	%ebx
  40e6d2: 48                           	decl	%eax
  40e6d3: 47                           	incl	%edi
  40e6d4: 38 42 00                     	cmpb	%al, (%edx)
  40e6d7: 02 11                        	addb	(%ecx), %dl
  40e6d9: 58                           	popl	%eax
  40e6da: 38 36                        	cmpb	%dh, (%esi)
  40e6dc: 5f                           	popl	%edi
  40e6dd: 41                           	incl	%ecx
  40e6de: 52                           	pushl	%edx
  40e6df: 43                           	incl	%ebx
  40e6e0: 48                           	decl	%eax
  40e6e1: 5f                           	popl	%edi
  40e6e2: 58                           	popl	%eax
  40e6e3: 41                           	incl	%ecx
  40e6e4: 44                           	incl	%esp
  40e6e5: 44                           	incl	%esp
  40e6e6: 00 03                        	addb	%al, (%ebx)
  40e6e8: 11 58 38                     	adcl	%ebx, 56(%eax)
  40e6eb: 36 5f                        	popl	%edi
  40e6ed: 41                           	incl	%ecx
  40e6ee: 52                           	pushl	%edx
  40e6ef: 43                           	incl	%ebx
  40e6f0: 48                           	decl	%eax
  40e6f1: 5f                           	popl	%edi
  40e6f2: 42                           	incl	%edx
  40e6f3: 53                           	pushl	%ebx
  40e6f4: 57                           	pushl	%edi
  40e6f5: 41                           	incl	%ecx
  40e6f6: 50                           	pushl	%eax
  40e6f7: 00 04 11                     	addb	%al, (%ecx,%edx)
  40e6fa: 58                           	popl	%eax
  40e6fb: 38 36                        	cmpb	%dh, (%esi)
  40e6fd: 5f                           	popl	%edi
  40e6fe: 41                           	incl	%ecx
  40e6ff: 52                           	pushl	%edx
  40e700: 43                           	incl	%ebx
  40e701: 48                           	decl	%eax
  40e702: 5f                           	popl	%edi
  40e703: 4c                           	decl	%esp
  40e704: 41                           	incl	%ecx
  40e705: 53                           	pushl	%ebx
  40e706: 54                           	pushl	%esp
  40e707: 00 05 00 08 4d 04            	addb	%al, 72157184
  40e70d: 00 00                        	addb	%al, (%eax)
  40e70f: f4                           	hlt
  40e710: 16                           	pushl	%ss
  40e711: 00 00                        	addb	%al, (%eax)
  40e713: 0c f1                        	orb	$-15, %al
  40e715: 00 00                        	addb	%al, (%eax)
  40e717: 00 04 00                     	addb	%al, (%eax,%eax)
  40e71a: 0b 69 78                     	orl	120(%ecx), %ebp
  40e71d: 38 36                        	cmpb	%dh, (%esi)
  40e71f: 5f                           	popl	%edi
  40e720: 61                           	popal
  40e721: 72 63                        	jb	0x40e786 <.debug_info+0x1760>
  40e723: 68 5f 66 65 61               	pushl	$1634035295
  40e728: 74 75                        	je	0x40e79f <.debug_info+0x1779>
  40e72a: 72 65                        	jb	0x40e791 <.debug_info+0x176b>
  40e72c: 73 00                        	jae	0x40e72e <.debug_info+0x1708>
  40e72e: 07                           	popl	%es
  40e72f: 3d 02 16 e4 16               	cmpl	$384046594, %eax
  40e734: 00 00                        	addb	%al, (%eax)
  40e736: 0b 78 38                     	orl	56(%eax), %edi
  40e739: 36 5f                        	popl	%edi
  40e73b: 70 72                        	jo	0x40e7af <.debug_info+0x1789>
  40e73d: 65 66 65 74 63               	je	0x40e7a5 <.debug_info+0x177f>
  40e742: 68 5f 73 73 65               	pushl	$1702064991
  40e747: 00 07                        	addb	%al, (%edi)
  40e749: 4c                           	decl	%esp
  40e74a: 02 16                        	addb	(%esi), %dl
  40e74c: 4d                           	decl	%ebp
  40e74d: 04 00                        	addb	$0, %al
  40e74f: 00 16                        	addb	%dl, (%esi)
  40e751: 5f                           	popl	%edi
  40e752: 64 6f                        	outsl	%fs:(%esi), %dx
  40e754: 6e                           	outsb	(%esi), %dx
  40e755: 74 5f                        	je	0x40e7b6 <.debug_info+0x1790>
  40e757: 75 73                        	jne	0x40e7cc <.debug_info+0x17a6>
  40e759: 65 5f                        	popl	%edi
  40e75b: 74 72                        	je	0x40e7cf <.debug_info+0x17a9>
  40e75d: 65 65 5f                     	popl	%edi
  40e760: 68 65 72 65 5f               	pushl	$1600483941
  40e765: 00 0b                        	addb	%cl, (%ebx)
  40e767: 78 38                        	js	0x40e7a1 <.debug_info+0x177b>
  40e769: 36 5f                        	popl	%edi
  40e76b: 6d                           	insl	%dx, %es:(%edi)
  40e76c: 66 65 6e                     	outsb	%gs:(%esi), %dx
  40e76f: 63 65 00                     	arpl	%sp, (%ebp)
  40e772: 07                           	popl	%es
  40e773: 6a 02                        	pushl	$2
  40e775: 0d 54 17 00 00               	orl	$5972, %eax
  40e77a: 06                           	pushl	%es
  40e77b: 04 2a                        	addb	$42, %al
  40e77d: 17                           	popl	%ss
  40e77e: 00 00                        	addb	%al, (%eax)
  40e780: 15 72 65 67 5f               	adcl	$1600611698, %eax
  40e785: 63 6c 61 73                  	arpl	%bp, 115(%ecx,%eiz,2)
  40e789: 73 00                        	jae	0x40e78b <.debug_info+0x1765>
  40e78b: 07                           	popl	%es
  40e78c: 04 f1                        	addb	$-15, %al
  40e78e: 00 00                        	addb	%al, (%eax)
  40e790: 00 07                        	addb	%al, (%edi)
  40e792: 30 05 06 08 19 00            	xorb	%al, 1640454
  40e798: 00 11                        	addb	%dl, (%ecx)
  40e79a: 4e                           	decl	%esi
  40e79b: 4f                           	decl	%edi
  40e79c: 5f                           	popl	%edi
  40e79d: 52                           	pushl	%edx
  40e79e: 45                           	incl	%ebp
  40e79f: 47                           	incl	%edi
  40e7a0: 53                           	pushl	%ebx
  40e7a1: 00 00                        	addb	%al, (%eax)
  40e7a3: 11 41 52                     	adcl	%eax, 82(%ecx)
  40e7a6: 45                           	incl	%ebp
  40e7a7: 47                           	incl	%edi
  40e7a8: 00 01                        	addb	%al, (%ecx)
  40e7aa: 11 44 52 45                  	adcl	%eax, 69(%edx,%edx,2)
  40e7ae: 47                           	incl	%edi
  40e7af: 00 02                        	addb	%al, (%edx)
  40e7b1: 11 43 52                     	adcl	%eax, 82(%ebx)
  40e7b4: 45                           	incl	%ebp
  40e7b5: 47                           	incl	%edi
  40e7b6: 00 03                        	addb	%al, (%ebx)
  40e7b8: 11 42 52                     	adcl	%eax, 82(%edx)
  40e7bb: 45                           	incl	%ebp
  40e7bc: 47                           	incl	%edi
  40e7bd: 00 04 11                     	addb	%al, (%ecx,%edx)
  40e7c0: 53                           	pushl	%ebx
  40e7c1: 49                           	decl	%ecx
  40e7c2: 52                           	pushl	%edx
  40e7c3: 45                           	incl	%ebp
  40e7c4: 47                           	incl	%edi
  40e7c5: 00 05 11 44 49 52            	addb	%al, 1380533265
  40e7cb: 45                           	incl	%ebp
  40e7cc: 47                           	incl	%edi
  40e7cd: 00 06                        	addb	%al, (%esi)
  40e7cf: 11 41 44                     	adcl	%eax, 68(%ecx)
  40e7d2: 5f                           	popl	%edi
  40e7d3: 52                           	pushl	%edx
  40e7d4: 45                           	incl	%ebp
  40e7d5: 47                           	incl	%edi
  40e7d6: 53                           	pushl	%ebx
  40e7d7: 00 07                        	addb	%al, (%edi)
  40e7d9: 11 43 4c                     	adcl	%eax, 76(%ebx)
  40e7dc: 4f                           	decl	%edi
  40e7dd: 42                           	incl	%edx
  40e7de: 42                           	incl	%edx
  40e7df: 45                           	incl	%ebp
  40e7e0: 52                           	pushl	%edx
  40e7e1: 45                           	incl	%ebp
  40e7e2: 44                           	incl	%esp
  40e7e3: 5f                           	popl	%edi
  40e7e4: 52                           	pushl	%edx
  40e7e5: 45                           	incl	%ebp
  40e7e6: 47                           	incl	%edi
  40e7e7: 53                           	pushl	%ebx
  40e7e8: 00 08                        	addb	%cl, (%eax)
  40e7ea: 11 51 5f                     	adcl	%edx, 95(%ecx)
  40e7ed: 52                           	pushl	%edx
  40e7ee: 45                           	incl	%ebp
  40e7ef: 47                           	incl	%edi
  40e7f0: 53                           	pushl	%ebx
  40e7f1: 00 09                        	addb	%cl, (%ecx)
  40e7f3: 11 4e 4f                     	adcl	%ecx, 79(%esi)
  40e7f6: 4e                           	decl	%esi
  40e7f7: 5f                           	popl	%edi
  40e7f8: 51                           	pushl	%ecx
  40e7f9: 5f                           	popl	%edi
  40e7fa: 52                           	pushl	%edx
  40e7fb: 45                           	incl	%ebp
  40e7fc: 47                           	incl	%edi
  40e7fd: 53                           	pushl	%ebx
  40e7fe: 00 0a                        	addb	%cl, (%edx)
  40e800: 11 54 4c 53                  	adcl	%edx, 83(%esp,%ecx,2)
  40e804: 5f                           	popl	%edi
  40e805: 47                           	incl	%edi
  40e806: 4f                           	decl	%edi
  40e807: 54                           	pushl	%esp
  40e808: 42                           	incl	%edx
  40e809: 41                           	incl	%ecx
  40e80a: 53                           	pushl	%ebx
  40e80b: 45                           	incl	%ebp
  40e80c: 5f                           	popl	%edi
  40e80d: 52                           	pushl	%edx
  40e80e: 45                           	incl	%ebp
  40e80f: 47                           	incl	%edi
  40e810: 53                           	pushl	%ebx
  40e811: 00 0b                        	addb	%cl, (%ebx)
  40e813: 11 49 4e                     	adcl	%ecx, 78(%ecx)
  40e816: 44                           	incl	%esp
  40e817: 45                           	incl	%ebp
  40e818: 58                           	popl	%eax
  40e819: 5f                           	popl	%edi
  40e81a: 52                           	pushl	%edx
  40e81b: 45                           	incl	%ebp
  40e81c: 47                           	incl	%edi
  40e81d: 53                           	pushl	%ebx
  40e81e: 00 0c 11                     	addb	%cl, (%ecx,%edx)
  40e821: 4c                           	decl	%esp
  40e822: 45                           	incl	%ebp
  40e823: 47                           	incl	%edi
  40e824: 41                           	incl	%ecx
  40e825: 43                           	incl	%ebx
  40e826: 59                           	popl	%ecx
  40e827: 5f                           	popl	%edi
  40e828: 52                           	pushl	%edx
  40e829: 45                           	incl	%ebp
  40e82a: 47                           	incl	%edi
  40e82b: 53                           	pushl	%ebx
  40e82c: 00 0d 11 47 45 4e            	addb	%cl, 1313163025
  40e832: 45                           	incl	%ebp
  40e833: 52                           	pushl	%edx
  40e834: 41                           	incl	%ecx
  40e835: 4c                           	decl	%esp
  40e836: 5f                           	popl	%edi
  40e837: 52                           	pushl	%edx
  40e838: 45                           	incl	%ebp
  40e839: 47                           	incl	%edi
  40e83a: 53                           	pushl	%ebx
  40e83b: 00 0e                        	addb	%cl, (%esi)
  40e83d: 11 46 50                     	adcl	%eax, 80(%esi)
  40e840: 5f                           	popl	%edi
  40e841: 54                           	pushl	%esp
  40e842: 4f                           	decl	%edi
  40e843: 50                           	pushl	%eax
  40e844: 5f                           	popl	%edi
  40e845: 52                           	pushl	%edx
  40e846: 45                           	incl	%ebp
  40e847: 47                           	incl	%edi
  40e848: 00 0f                        	addb	%cl, (%edi)
  40e84a: 11 46 50                     	adcl	%eax, 80(%esi)
  40e84d: 5f                           	popl	%edi
  40e84e: 53                           	pushl	%ebx
  40e84f: 45                           	incl	%ebp
  40e850: 43                           	incl	%ebx
  40e851: 4f                           	decl	%edi
  40e852: 4e                           	decl	%esi
  40e853: 44                           	incl	%esp
  40e854: 5f                           	popl	%edi
  40e855: 52                           	pushl	%edx
  40e856: 45                           	incl	%ebp
  40e857: 47                           	incl	%edi
  40e858: 00 10                        	addb	%dl, (%eax)
  40e85a: 11 46 4c                     	adcl	%eax, 76(%esi)
  40e85d: 4f                           	decl	%edi
  40e85e: 41                           	incl	%ecx
  40e85f: 54                           	pushl	%esp
  40e860: 5f                           	popl	%edi
  40e861: 52                           	pushl	%edx
  40e862: 45                           	incl	%ebp
  40e863: 47                           	incl	%edi
  40e864: 53                           	pushl	%ebx
  40e865: 00 11                        	addb	%dl, (%ecx)
  40e867: 11 53 53                     	adcl	%edx, 83(%ebx)
  40e86a: 45                           	incl	%ebp
  40e86b: 5f                           	popl	%edi
  40e86c: 46                           	incl	%esi
  40e86d: 49                           	decl	%ecx
  40e86e: 52                           	pushl	%edx
  40e86f: 53                           	pushl	%ebx
  40e870: 54                           	pushl	%esp
  40e871: 5f                           	popl	%edi
  40e872: 52                           	pushl	%edx
  40e873: 45                           	incl	%ebp
  40e874: 47                           	incl	%edi
  40e875: 00 12                        	addb	%dl, (%edx)
  40e877: 11 4e 4f                     	adcl	%ecx, 79(%esi)
  40e87a: 5f                           	popl	%edi
  40e87b: 52                           	pushl	%edx
  40e87c: 45                           	incl	%ebp
  40e87d: 58                           	popl	%eax
  40e87e: 5f                           	popl	%edi
  40e87f: 53                           	pushl	%ebx
  40e880: 53                           	pushl	%ebx
  40e881: 45                           	incl	%ebp
  40e882: 5f                           	popl	%edi
  40e883: 52                           	pushl	%edx
  40e884: 45                           	incl	%ebp
  40e885: 47                           	incl	%edi
  40e886: 53                           	pushl	%ebx
  40e887: 00 13                        	addb	%dl, (%ebx)
  40e889: 11 53 53                     	adcl	%edx, 83(%ebx)
  40e88c: 45                           	incl	%ebp
  40e88d: 5f                           	popl	%edi
  40e88e: 52                           	pushl	%edx
  40e88f: 45                           	incl	%ebp
  40e890: 47                           	incl	%edi
  40e891: 53                           	pushl	%ebx
  40e892: 00 14 11                     	addb	%dl, (%ecx,%edx)
  40e895: 41                           	incl	%ecx
  40e896: 4c                           	decl	%esp
  40e897: 4c                           	decl	%esp
  40e898: 5f                           	popl	%edi
  40e899: 53                           	pushl	%ebx
  40e89a: 53                           	pushl	%ebx
  40e89b: 45                           	incl	%ebp
  40e89c: 5f                           	popl	%edi
  40e89d: 52                           	pushl	%edx
  40e89e: 45                           	incl	%ebp
  40e89f: 47                           	incl	%edi
  40e8a0: 53                           	pushl	%ebx
  40e8a1: 00 15 11 4d 4d 58            	addb	%dl, 1481461009
  40e8a7: 5f                           	popl	%edi
  40e8a8: 52                           	pushl	%edx
  40e8a9: 45                           	incl	%ebp
  40e8aa: 47                           	incl	%edi
  40e8ab: 53                           	pushl	%ebx
  40e8ac: 00 16                        	addb	%dl, (%esi)
  40e8ae: 11 46 4c                     	adcl	%eax, 76(%esi)
  40e8b1: 4f                           	decl	%edi
  40e8b2: 41                           	incl	%ecx
  40e8b3: 54                           	pushl	%esp
  40e8b4: 5f                           	popl	%edi
  40e8b5: 53                           	pushl	%ebx
  40e8b6: 53                           	pushl	%ebx
  40e8b7: 45                           	incl	%ebp
  40e8b8: 5f                           	popl	%edi
  40e8b9: 52                           	pushl	%edx
  40e8ba: 45                           	incl	%ebp
  40e8bb: 47                           	incl	%edi
  40e8bc: 53                           	pushl	%ebx
  40e8bd: 00 17                        	addb	%dl, (%edi)
  40e8bf: 11 46 4c                     	adcl	%eax, 76(%esi)
  40e8c2: 4f                           	decl	%edi
  40e8c3: 41                           	incl	%ecx
  40e8c4: 54                           	pushl	%esp
  40e8c5: 5f                           	popl	%edi
  40e8c6: 49                           	decl	%ecx
  40e8c7: 4e                           	decl	%esi
  40e8c8: 54                           	pushl	%esp
  40e8c9: 5f                           	popl	%edi
  40e8ca: 52                           	pushl	%edx
  40e8cb: 45                           	incl	%ebp
  40e8cc: 47                           	incl	%edi
  40e8cd: 53                           	pushl	%ebx
  40e8ce: 00 18                        	addb	%bl, (%eax)
  40e8d0: 11 49 4e                     	adcl	%ecx, 78(%ecx)
  40e8d3: 54                           	pushl	%esp
  40e8d4: 5f                           	popl	%edi
  40e8d5: 53                           	pushl	%ebx
  40e8d6: 53                           	pushl	%ebx
  40e8d7: 45                           	incl	%ebp
  40e8d8: 5f                           	popl	%edi
  40e8d9: 52                           	pushl	%edx
  40e8da: 45                           	incl	%ebp
  40e8db: 47                           	incl	%edi
  40e8dc: 53                           	pushl	%ebx
  40e8dd: 00 19                        	addb	%bl, (%ecx)
  40e8df: 11 46 4c                     	adcl	%eax, 76(%esi)
  40e8e2: 4f                           	decl	%edi
  40e8e3: 41                           	incl	%ecx
  40e8e4: 54                           	pushl	%esp
  40e8e5: 5f                           	popl	%edi
  40e8e6: 49                           	decl	%ecx
  40e8e7: 4e                           	decl	%esi
  40e8e8: 54                           	pushl	%esp
  40e8e9: 5f                           	popl	%edi
  40e8ea: 53                           	pushl	%ebx
  40e8eb: 53                           	pushl	%ebx
  40e8ec: 45                           	incl	%ebp
  40e8ed: 5f                           	popl	%edi
  40e8ee: 52                           	pushl	%edx
  40e8ef: 45                           	incl	%ebp
  40e8f0: 47                           	incl	%edi
  40e8f1: 53                           	pushl	%ebx
  40e8f2: 00 1a                        	addb	%bl, (%edx)
  40e8f4: 11 4d 41                     	adcl	%ecx, 65(%ebp)
  40e8f7: 53                           	pushl	%ebx
  40e8f8: 4b                           	decl	%ebx
  40e8f9: 5f                           	popl	%edi
  40e8fa: 52                           	pushl	%edx
  40e8fb: 45                           	incl	%ebp
  40e8fc: 47                           	incl	%edi
  40e8fd: 53                           	pushl	%ebx
  40e8fe: 00 1b                        	addb	%bl, (%ebx)
  40e900: 11 41 4c                     	adcl	%eax, 76(%ecx)
  40e903: 4c                           	decl	%esp
  40e904: 5f                           	popl	%edi
  40e905: 4d                           	decl	%ebp
  40e906: 41                           	incl	%ecx
  40e907: 53                           	pushl	%ebx
  40e908: 4b                           	decl	%ebx
  40e909: 5f                           	popl	%edi
  40e90a: 52                           	pushl	%edx
  40e90b: 45                           	incl	%ebp
  40e90c: 47                           	incl	%edi
  40e90d: 53                           	pushl	%ebx
  40e90e: 00 1c 11                     	addb	%bl, (%ecx,%edx)
  40e911: 41                           	incl	%ecx
  40e912: 4c                           	decl	%esp
  40e913: 4c                           	decl	%esp
  40e914: 5f                           	popl	%edi
  40e915: 52                           	pushl	%edx
  40e916: 45                           	incl	%ebp
  40e917: 47                           	incl	%edi
  40e918: 53                           	pushl	%ebx
  40e919: 00 1d 11 4c 49 4d            	addb	%bl, 1296649233
  40e91f: 5f                           	popl	%edi
  40e920: 52                           	pushl	%edx
  40e921: 45                           	incl	%ebp
  40e922: 47                           	incl	%edi
  40e923: 5f                           	popl	%edi
  40e924: 43                           	incl	%ebx
  40e925: 4c                           	decl	%esp
  40e926: 41                           	incl	%ecx
  40e927: 53                           	pushl	%ebx
  40e928: 53                           	pushl	%ebx
  40e929: 45                           	incl	%ebp
  40e92a: 53                           	pushl	%ebx
  40e92b: 00 1e                        	addb	%bl, (%esi)
  40e92d: 00 03                        	addb	%al, (%ebx)
  40e92f: 5a                           	popl	%edx
  40e930: 17                           	popl	%ss
  40e931: 00 00                        	addb	%al, (%eax)
  40e933: 08 ec                        	orb	%ch, %ah
  40e935: 00 00                        	addb	%al, (%eax)
  40e937: 00 1d 19 00 00 0c            	addb	%bl, 201326617
  40e93d: f1                           	<unknown>
  40e93e: 00 00                        	addb	%al, (%eax)
  40e940: 00 4b 00                     	addb	%cl, (%ebx)
  40e943: 03 0d 19 00 00 0b            	addl	184549401, %ecx
  40e949: 64 62 78 5f                  	bound	%edi, %fs:95(%eax)
  40e94d: 72 65                        	jb	0x40e9b4 <.debug_info+0x198e>
  40e94f: 67 69 73 74 65 72 5f 6d      	imull	$1834971749, 116(%bp,%di), %esi
  40e957: 61                           	popal
  40e958: 70 00                        	jo	0x40e95a <.debug_info+0x1934>
  40e95a: 07                           	popl	%es
  40e95b: 26 08 12                     	orb	%dl, %es:(%edx)
  40e95e: 1d 19 00 00 0b               	sbbl	$184549401, %eax
  40e963: 64 62 78 36                  	bound	%edi, %fs:54(%eax)
  40e967: 34 5f                        	xorb	$95, %al
  40e969: 72 65                        	jb	0x40e9d0 <.debug_info+0x19aa>
  40e96b: 67 69 73 74 65 72 5f 6d      	imull	$1834971749, 116(%bp,%di), %esi
  40e973: 61                           	popal
  40e974: 70 00                        	jo	0x40e976 <.debug_info+0x1950>
  40e976: 07                           	popl	%es
  40e977: 27                           	daa
  40e978: 08 12                        	orb	%dl, (%edx)
  40e97a: 1d 19 00 00 0b               	sbbl	$184549401, %eax
  40e97f: 73 76                        	jae	0x40e9f7 <.debug_info+0x19d1>
  40e981: 72 34                        	jb	0x40e9b7 <.debug_info+0x1991>
  40e983: 5f                           	popl	%edi
  40e984: 64 62 78 5f                  	bound	%edi, %fs:95(%eax)
  40e988: 72 65                        	jb	0x40e9ef <.debug_info+0x19c9>
  40e98a: 67 69 73 74 65 72 5f 6d      	imull	$1834971749, 116(%bp,%di), %esi
  40e992: 61                           	popal
  40e993: 70 00                        	jo	0x40e995 <.debug_info+0x196f>
  40e995: 07                           	popl	%es
  40e996: 28 08                        	subb	%cl, (%eax)
  40e998: 12 1d 19 00 00 15            	adcb	352321561, %bl
  40e99e: 70 72                        	jo	0x40ea12 <.debug_info+0x19ec>
  40e9a0: 6f                           	outsl	(%esi), %dx
  40e9a1: 63 65 73                     	arpl	%sp, 115(%ebp)
  40e9a4: 73 6f                        	jae	0x40ea15 <.debug_info+0x19ef>
  40e9a6: 72 5f                        	jb	0x40ea07 <.debug_info+0x19e1>
  40e9a8: 74 79                        	je	0x40ea23 <.debug_info+0x19fd>
  40e9aa: 70 65                        	jo	0x40ea11 <.debug_info+0x19eb>
  40e9ac: 00 07                        	addb	%al, (%edi)
  40e9ae: 04 f1                        	addb	$-15, %al
  40e9b0: 00 00                        	addb	%al, (%eax)
  40e9b2: 00 07                        	addb	%al, (%edi)
  40e9b4: ba 08 06 ba 1c               	movl	$481953288, %edx
  40e9b9: 00 00                        	addb	%al, (%eax)
  40e9bb: 11 50 52                     	adcl	%edx, 82(%eax)
  40e9be: 4f                           	decl	%edi
  40e9bf: 43                           	incl	%ebx
  40e9c0: 45                           	incl	%ebp
  40e9c1: 53                           	pushl	%ebx
  40e9c2: 53                           	pushl	%ebx
  40e9c3: 4f                           	decl	%edi
  40e9c4: 52                           	pushl	%edx
  40e9c5: 5f                           	popl	%edi
  40e9c6: 47                           	incl	%edi
  40e9c7: 45                           	incl	%ebp
  40e9c8: 4e                           	decl	%esi
  40e9c9: 45                           	incl	%ebp
  40e9ca: 52                           	pushl	%edx
  40e9cb: 49                           	decl	%ecx
  40e9cc: 43                           	incl	%ebx
  40e9cd: 00 00                        	addb	%al, (%eax)
  40e9cf: 11 50 52                     	adcl	%edx, 82(%eax)
  40e9d2: 4f                           	decl	%edi
  40e9d3: 43                           	incl	%ebx
  40e9d4: 45                           	incl	%ebp
  40e9d5: 53                           	pushl	%ebx
  40e9d6: 53                           	pushl	%ebx
  40e9d7: 4f                           	decl	%edi
  40e9d8: 52                           	pushl	%edx
  40e9d9: 5f                           	popl	%edi
  40e9da: 49                           	decl	%ecx
  40e9db: 33 38                        	xorl	(%eax), %edi
  40e9dd: 36 00 01                     	addb	%al, %ss:(%ecx)
  40e9e0: 11 50 52                     	adcl	%edx, 82(%eax)
  40e9e3: 4f                           	decl	%edi
  40e9e4: 43                           	incl	%ebx
  40e9e5: 45                           	incl	%ebp
  40e9e6: 53                           	pushl	%ebx
  40e9e7: 53                           	pushl	%ebx
  40e9e8: 4f                           	decl	%edi
  40e9e9: 52                           	pushl	%edx
  40e9ea: 5f                           	popl	%edi
  40e9eb: 49                           	decl	%ecx
  40e9ec: 34 38                        	xorb	$56, %al
  40e9ee: 36 00 02                     	addb	%al, %ss:(%edx)
  40e9f1: 11 50 52                     	adcl	%edx, 82(%eax)
  40e9f4: 4f                           	decl	%edi
  40e9f5: 43                           	incl	%ebx
  40e9f6: 45                           	incl	%ebp
  40e9f7: 53                           	pushl	%ebx
  40e9f8: 53                           	pushl	%ebx
  40e9f9: 4f                           	decl	%edi
  40e9fa: 52                           	pushl	%edx
  40e9fb: 5f                           	popl	%edi
  40e9fc: 50                           	pushl	%eax
  40e9fd: 45                           	incl	%ebp
  40e9fe: 4e                           	decl	%esi
  40e9ff: 54                           	pushl	%esp
  40ea00: 49                           	decl	%ecx
  40ea01: 55                           	pushl	%ebp
  40ea02: 4d                           	decl	%ebp
  40ea03: 00 03                        	addb	%al, (%ebx)
  40ea05: 11 50 52                     	adcl	%edx, 82(%eax)
  40ea08: 4f                           	decl	%edi
  40ea09: 43                           	incl	%ebx
  40ea0a: 45                           	incl	%ebp
  40ea0b: 53                           	pushl	%ebx
  40ea0c: 53                           	pushl	%ebx
  40ea0d: 4f                           	decl	%edi
  40ea0e: 52                           	pushl	%edx
  40ea0f: 5f                           	popl	%edi
  40ea10: 4c                           	decl	%esp
  40ea11: 41                           	incl	%ecx
  40ea12: 4b                           	decl	%ebx
  40ea13: 45                           	incl	%ebp
  40ea14: 4d                           	decl	%ebp
  40ea15: 4f                           	decl	%edi
  40ea16: 4e                           	decl	%esi
  40ea17: 54                           	pushl	%esp
  40ea18: 00 04 11                     	addb	%al, (%ecx,%edx)
  40ea1b: 50                           	pushl	%eax
  40ea1c: 52                           	pushl	%edx
  40ea1d: 4f                           	decl	%edi
  40ea1e: 43                           	incl	%ebx
  40ea1f: 45                           	incl	%ebp
  40ea20: 53                           	pushl	%ebx
  40ea21: 53                           	pushl	%ebx
  40ea22: 4f                           	decl	%edi
  40ea23: 52                           	pushl	%edx
  40ea24: 5f                           	popl	%edi
  40ea25: 50                           	pushl	%eax
  40ea26: 45                           	incl	%ebp
  40ea27: 4e                           	decl	%esi
  40ea28: 54                           	pushl	%esp
  40ea29: 49                           	decl	%ecx
  40ea2a: 55                           	pushl	%ebp
  40ea2b: 4d                           	decl	%ebp
  40ea2c: 50                           	pushl	%eax
  40ea2d: 52                           	pushl	%edx
  40ea2e: 4f                           	decl	%edi
  40ea2f: 00 05 11 50 52 4f            	addb	%al, 1330794513
  40ea35: 43                           	incl	%ebx
  40ea36: 45                           	incl	%ebp
  40ea37: 53                           	pushl	%ebx
  40ea38: 53                           	pushl	%ebx
  40ea39: 4f                           	decl	%edi
  40ea3a: 52                           	pushl	%edx
  40ea3b: 5f                           	popl	%edi
  40ea3c: 50                           	pushl	%eax
  40ea3d: 45                           	incl	%ebp
  40ea3e: 4e                           	decl	%esi
  40ea3f: 54                           	pushl	%esp
  40ea40: 49                           	decl	%ecx
  40ea41: 55                           	pushl	%ebp
  40ea42: 4d                           	decl	%ebp
  40ea43: 34 00                        	xorb	$0, %al
  40ea45: 06                           	pushl	%es
  40ea46: 11 50 52                     	adcl	%edx, 82(%eax)
  40ea49: 4f                           	decl	%edi
  40ea4a: 43                           	incl	%ebx
  40ea4b: 45                           	incl	%ebp
  40ea4c: 53                           	pushl	%ebx
  40ea4d: 53                           	pushl	%ebx
  40ea4e: 4f                           	decl	%edi
  40ea4f: 52                           	pushl	%edx
  40ea50: 5f                           	popl	%edi
  40ea51: 4e                           	decl	%esi
  40ea52: 4f                           	decl	%edi
  40ea53: 43                           	incl	%ebx
  40ea54: 4f                           	decl	%edi
  40ea55: 4e                           	decl	%esi
  40ea56: 41                           	incl	%ecx
  40ea57: 00 07                        	addb	%al, (%edi)
  40ea59: 11 50 52                     	adcl	%edx, 82(%eax)
  40ea5c: 4f                           	decl	%edi
  40ea5d: 43                           	incl	%ebx
  40ea5e: 45                           	incl	%ebp
  40ea5f: 53                           	pushl	%ebx
  40ea60: 53                           	pushl	%ebx
  40ea61: 4f                           	decl	%edi
  40ea62: 52                           	pushl	%edx
  40ea63: 5f                           	popl	%edi
  40ea64: 43                           	incl	%ebx
  40ea65: 4f                           	decl	%edi
  40ea66: 52                           	pushl	%edx
  40ea67: 45                           	incl	%ebp
  40ea68: 32 00                        	xorb	(%eax), %al
  40ea6a: 08 11                        	orb	%dl, (%ecx)
  40ea6c: 50                           	pushl	%eax
  40ea6d: 52                           	pushl	%edx
  40ea6e: 4f                           	decl	%edi
  40ea6f: 43                           	incl	%ebx
  40ea70: 45                           	incl	%ebp
  40ea71: 53                           	pushl	%ebx
  40ea72: 53                           	pushl	%ebx
  40ea73: 4f                           	decl	%edi
  40ea74: 52                           	pushl	%edx
  40ea75: 5f                           	popl	%edi
  40ea76: 4e                           	decl	%esi
  40ea77: 45                           	incl	%ebp
  40ea78: 48                           	decl	%eax
  40ea79: 41                           	incl	%ecx
  40ea7a: 4c                           	decl	%esp
  40ea7b: 45                           	incl	%ebp
  40ea7c: 4d                           	decl	%ebp
  40ea7d: 00 09                        	addb	%cl, (%ecx)
  40ea7f: 11 50 52                     	adcl	%edx, 82(%eax)
  40ea82: 4f                           	decl	%edi
  40ea83: 43                           	incl	%ebx
  40ea84: 45                           	incl	%ebp
  40ea85: 53                           	pushl	%ebx
  40ea86: 53                           	pushl	%ebx
  40ea87: 4f                           	decl	%edi
  40ea88: 52                           	pushl	%edx
  40ea89: 5f                           	popl	%edi
  40ea8a: 53                           	pushl	%ebx
  40ea8b: 41                           	incl	%ecx
  40ea8c: 4e                           	decl	%esi
  40ea8d: 44                           	incl	%esp
  40ea8e: 59                           	popl	%ecx
  40ea8f: 42                           	incl	%edx
  40ea90: 52                           	pushl	%edx
  40ea91: 49                           	decl	%ecx
  40ea92: 44                           	incl	%esp
  40ea93: 47                           	incl	%edi
  40ea94: 45                           	incl	%ebp
  40ea95: 00 0a                        	addb	%cl, (%edx)
  40ea97: 11 50 52                     	adcl	%edx, 82(%eax)
  40ea9a: 4f                           	decl	%edi
  40ea9b: 43                           	incl	%ebx
  40ea9c: 45                           	incl	%ebp
  40ea9d: 53                           	pushl	%ebx
  40ea9e: 53                           	pushl	%ebx
  40ea9f: 4f                           	decl	%edi
  40eaa0: 52                           	pushl	%edx
  40eaa1: 5f                           	popl	%edi
  40eaa2: 48                           	decl	%eax
  40eaa3: 41                           	incl	%ecx
  40eaa4: 53                           	pushl	%ebx
  40eaa5: 57                           	pushl	%edi
  40eaa6: 45                           	incl	%ebp
  40eaa7: 4c                           	decl	%esp
  40eaa8: 4c                           	decl	%esp
  40eaa9: 00 0b                        	addb	%cl, (%ebx)
  40eaab: 11 50 52                     	adcl	%edx, 82(%eax)
  40eaae: 4f                           	decl	%edi
  40eaaf: 43                           	incl	%ebx
  40eab0: 45                           	incl	%ebp
  40eab1: 53                           	pushl	%ebx
  40eab2: 53                           	pushl	%ebx
  40eab3: 4f                           	decl	%edi
  40eab4: 52                           	pushl	%edx
  40eab5: 5f                           	popl	%edi
  40eab6: 42                           	incl	%edx
  40eab7: 4f                           	decl	%edi
  40eab8: 4e                           	decl	%esi
  40eab9: 4e                           	decl	%esi
  40eaba: 45                           	incl	%ebp
  40eabb: 4c                           	decl	%esp
  40eabc: 4c                           	decl	%esp
  40eabd: 00 0c 11                     	addb	%cl, (%ecx,%edx)
  40eac0: 50                           	pushl	%eax
  40eac1: 52                           	pushl	%edx
  40eac2: 4f                           	decl	%edi
  40eac3: 43                           	incl	%ebx
  40eac4: 45                           	incl	%ebp
  40eac5: 53                           	pushl	%ebx
  40eac6: 53                           	pushl	%ebx
  40eac7: 4f                           	decl	%edi
  40eac8: 52                           	pushl	%edx
  40eac9: 5f                           	popl	%edi
  40eaca: 53                           	pushl	%ebx
  40eacb: 49                           	decl	%ecx
  40eacc: 4c                           	decl	%esp
  40eacd: 56                           	pushl	%esi
  40eace: 45                           	incl	%ebp
  40eacf: 52                           	pushl	%edx
  40ead0: 4d                           	decl	%ebp
  40ead1: 4f                           	decl	%edi
  40ead2: 4e                           	decl	%esi
  40ead3: 54                           	pushl	%esp
  40ead4: 00 0d 11 50 52 4f            	addb	%cl, 1330794513
  40eada: 43                           	incl	%ebx
  40eadb: 45                           	incl	%ebp
  40eadc: 53                           	pushl	%ebx
  40eadd: 53                           	pushl	%ebx
  40eade: 4f                           	decl	%edi
  40eadf: 52                           	pushl	%edx
  40eae0: 5f                           	popl	%edi
  40eae1: 47                           	incl	%edi
  40eae2: 4f                           	decl	%edi
  40eae3: 4c                           	decl	%esp
  40eae4: 44                           	incl	%esp
  40eae5: 4d                           	decl	%ebp
  40eae6: 4f                           	decl	%edi
  40eae7: 4e                           	decl	%esi
  40eae8: 54                           	pushl	%esp
  40eae9: 00 0e                        	addb	%cl, (%esi)
  40eaeb: 11 50 52                     	adcl	%edx, 82(%eax)
  40eaee: 4f                           	decl	%edi
  40eaef: 43                           	incl	%ebx
  40eaf0: 45                           	incl	%ebp
  40eaf1: 53                           	pushl	%ebx
  40eaf2: 53                           	pushl	%ebx
  40eaf3: 4f                           	decl	%edi
  40eaf4: 52                           	pushl	%edx
  40eaf5: 5f                           	popl	%edi
  40eaf6: 47                           	incl	%edi
  40eaf7: 4f                           	decl	%edi
  40eaf8: 4c                           	decl	%esp
  40eaf9: 44                           	incl	%esp
  40eafa: 4d                           	decl	%ebp
  40eafb: 4f                           	decl	%edi
  40eafc: 4e                           	decl	%esi
  40eafd: 54                           	pushl	%esp
  40eafe: 5f                           	popl	%edi
  40eaff: 50                           	pushl	%eax
  40eb00: 4c                           	decl	%esp
  40eb01: 55                           	pushl	%ebp
  40eb02: 53                           	pushl	%ebx
  40eb03: 00 0f                        	addb	%cl, (%edi)
  40eb05: 11 50 52                     	adcl	%edx, 82(%eax)
  40eb08: 4f                           	decl	%edi
  40eb09: 43                           	incl	%ebx
  40eb0a: 45                           	incl	%ebp
  40eb0b: 53                           	pushl	%ebx
  40eb0c: 53                           	pushl	%ebx
  40eb0d: 4f                           	decl	%edi
  40eb0e: 52                           	pushl	%edx
  40eb0f: 5f                           	popl	%edi
  40eb10: 54                           	pushl	%esp
  40eb11: 52                           	pushl	%edx
  40eb12: 45                           	incl	%ebp
  40eb13: 4d                           	decl	%ebp
  40eb14: 4f                           	decl	%edi
  40eb15: 4e                           	decl	%esi
  40eb16: 54                           	pushl	%esp
  40eb17: 00 10                        	addb	%dl, (%eax)
  40eb19: 11 50 52                     	adcl	%edx, 82(%eax)
  40eb1c: 4f                           	decl	%edi
  40eb1d: 43                           	incl	%ebx
  40eb1e: 45                           	incl	%ebp
  40eb1f: 53                           	pushl	%ebx
  40eb20: 53                           	pushl	%ebx
  40eb21: 4f                           	decl	%edi
  40eb22: 52                           	pushl	%edx
  40eb23: 5f                           	popl	%edi
  40eb24: 4b                           	decl	%ebx
  40eb25: 4e                           	decl	%esi
  40eb26: 4c                           	decl	%esp
  40eb27: 00 11                        	addb	%dl, (%ecx)
  40eb29: 11 50 52                     	adcl	%edx, 82(%eax)
  40eb2c: 4f                           	decl	%edi
  40eb2d: 43                           	incl	%ebx
  40eb2e: 45                           	incl	%ebp
  40eb2f: 53                           	pushl	%ebx
  40eb30: 53                           	pushl	%ebx
  40eb31: 4f                           	decl	%edi
  40eb32: 52                           	pushl	%edx
  40eb33: 5f                           	popl	%edi
  40eb34: 4b                           	decl	%ebx
  40eb35: 4e                           	decl	%esi
  40eb36: 4d                           	decl	%ebp
  40eb37: 00 12                        	addb	%dl, (%edx)
  40eb39: 11 50 52                     	adcl	%edx, 82(%eax)
  40eb3c: 4f                           	decl	%edi
  40eb3d: 43                           	incl	%ebx
  40eb3e: 45                           	incl	%ebp
  40eb3f: 53                           	pushl	%ebx
  40eb40: 53                           	pushl	%ebx
  40eb41: 4f                           	decl	%edi
  40eb42: 52                           	pushl	%edx
  40eb43: 5f                           	popl	%edi
  40eb44: 53                           	pushl	%ebx
  40eb45: 4b                           	decl	%ebx
  40eb46: 59                           	popl	%ecx
  40eb47: 4c                           	decl	%esp
  40eb48: 41                           	incl	%ecx
  40eb49: 4b                           	decl	%ebx
  40eb4a: 45                           	incl	%ebp
  40eb4b: 00 13                        	addb	%dl, (%ebx)
  40eb4d: 11 50 52                     	adcl	%edx, 82(%eax)
  40eb50: 4f                           	decl	%edi
  40eb51: 43                           	incl	%ebx
  40eb52: 45                           	incl	%ebp
  40eb53: 53                           	pushl	%ebx
  40eb54: 53                           	pushl	%ebx
  40eb55: 4f                           	decl	%edi
  40eb56: 52                           	pushl	%edx
  40eb57: 5f                           	popl	%edi
  40eb58: 53                           	pushl	%ebx
  40eb59: 4b                           	decl	%ebx
  40eb5a: 59                           	popl	%ecx
  40eb5b: 4c                           	decl	%esp
  40eb5c: 41                           	incl	%ecx
  40eb5d: 4b                           	decl	%ebx
  40eb5e: 45                           	incl	%ebp
  40eb5f: 5f                           	popl	%edi
  40eb60: 41                           	incl	%ecx
  40eb61: 56                           	pushl	%esi
  40eb62: 58                           	popl	%eax
  40eb63: 35 31 32 00 14               	xorl	$335557169, %eax
  40eb68: 11 50 52                     	adcl	%edx, 82(%eax)
  40eb6b: 4f                           	decl	%edi
  40eb6c: 43                           	incl	%ebx
  40eb6d: 45                           	incl	%ebp
  40eb6e: 53                           	pushl	%ebx
  40eb6f: 53                           	pushl	%ebx
  40eb70: 4f                           	decl	%edi
  40eb71: 52                           	pushl	%edx
  40eb72: 5f                           	popl	%edi
  40eb73: 43                           	incl	%ebx
  40eb74: 41                           	incl	%ecx
  40eb75: 4e                           	decl	%esi
  40eb76: 4e                           	decl	%esi
  40eb77: 4f                           	decl	%edi
  40eb78: 4e                           	decl	%esi
  40eb79: 4c                           	decl	%esp
  40eb7a: 41                           	incl	%ecx
  40eb7b: 4b                           	decl	%ebx
  40eb7c: 45                           	incl	%ebp
  40eb7d: 00 15 11 50 52 4f            	addb	%dl, 1330794513
  40eb83: 43                           	incl	%ebx
  40eb84: 45                           	incl	%ebp
  40eb85: 53                           	pushl	%ebx
  40eb86: 53                           	pushl	%ebx
  40eb87: 4f                           	decl	%edi
  40eb88: 52                           	pushl	%edx
  40eb89: 5f                           	popl	%edi
  40eb8a: 49                           	decl	%ecx
  40eb8b: 43                           	incl	%ebx
  40eb8c: 45                           	incl	%ebp
  40eb8d: 4c                           	decl	%esp
  40eb8e: 41                           	incl	%ecx
  40eb8f: 4b                           	decl	%ebx
  40eb90: 45                           	incl	%ebp
  40eb91: 5f                           	popl	%edi
  40eb92: 43                           	incl	%ebx
  40eb93: 4c                           	decl	%esp
  40eb94: 49                           	decl	%ecx
  40eb95: 45                           	incl	%ebp
  40eb96: 4e                           	decl	%esi
  40eb97: 54                           	pushl	%esp
  40eb98: 00 16                        	addb	%dl, (%esi)
  40eb9a: 11 50 52                     	adcl	%edx, 82(%eax)
  40eb9d: 4f                           	decl	%edi
  40eb9e: 43                           	incl	%ebx
  40eb9f: 45                           	incl	%ebp
  40eba0: 53                           	pushl	%ebx
  40eba1: 53                           	pushl	%ebx
  40eba2: 4f                           	decl	%edi
  40eba3: 52                           	pushl	%edx
  40eba4: 5f                           	popl	%edi
  40eba5: 49                           	decl	%ecx
  40eba6: 43                           	incl	%ebx
  40eba7: 45                           	incl	%ebp
  40eba8: 4c                           	decl	%esp
  40eba9: 41                           	incl	%ecx
  40ebaa: 4b                           	decl	%ebx
  40ebab: 45                           	incl	%ebp
  40ebac: 5f                           	popl	%edi
  40ebad: 53                           	pushl	%ebx
  40ebae: 45                           	incl	%ebp
  40ebaf: 52                           	pushl	%edx
  40ebb0: 56                           	pushl	%esi
  40ebb1: 45                           	incl	%ebp
  40ebb2: 52                           	pushl	%edx
  40ebb3: 00 17                        	addb	%dl, (%edi)
  40ebb5: 11 50 52                     	adcl	%edx, 82(%eax)
  40ebb8: 4f                           	decl	%edi
  40ebb9: 43                           	incl	%ebx
  40ebba: 45                           	incl	%ebp
  40ebbb: 53                           	pushl	%ebx
  40ebbc: 53                           	pushl	%ebx
  40ebbd: 4f                           	decl	%edi
  40ebbe: 52                           	pushl	%edx
  40ebbf: 5f                           	popl	%edi
  40ebc0: 43                           	incl	%ebx
  40ebc1: 41                           	incl	%ecx
  40ebc2: 53                           	pushl	%ebx
  40ebc3: 43                           	incl	%ebx
  40ebc4: 41                           	incl	%ecx
  40ebc5: 44                           	incl	%esp
  40ebc6: 45                           	incl	%ebp
  40ebc7: 4c                           	decl	%esp
  40ebc8: 41                           	incl	%ecx
  40ebc9: 4b                           	decl	%ebx
  40ebca: 45                           	incl	%ebp
  40ebcb: 00 18                        	addb	%bl, (%eax)
  40ebcd: 11 50 52                     	adcl	%edx, 82(%eax)
  40ebd0: 4f                           	decl	%edi
  40ebd1: 43                           	incl	%ebx
  40ebd2: 45                           	incl	%ebp
  40ebd3: 53                           	pushl	%ebx
  40ebd4: 53                           	pushl	%ebx
  40ebd5: 4f                           	decl	%edi
  40ebd6: 52                           	pushl	%edx
  40ebd7: 5f                           	popl	%edi
  40ebd8: 49                           	decl	%ecx
  40ebd9: 4e                           	decl	%esi
  40ebda: 54                           	pushl	%esp
  40ebdb: 45                           	incl	%ebp
  40ebdc: 4c                           	decl	%esp
  40ebdd: 00 19                        	addb	%bl, (%ecx)
  40ebdf: 11 50 52                     	adcl	%edx, 82(%eax)
  40ebe2: 4f                           	decl	%edi
  40ebe3: 43                           	incl	%ebx
  40ebe4: 45                           	incl	%ebp
  40ebe5: 53                           	pushl	%ebx
  40ebe6: 53                           	pushl	%ebx
  40ebe7: 4f                           	decl	%edi
  40ebe8: 52                           	pushl	%edx
  40ebe9: 5f                           	popl	%edi
  40ebea: 47                           	incl	%edi
  40ebeb: 45                           	incl	%ebp
  40ebec: 4f                           	decl	%edi
  40ebed: 44                           	incl	%esp
  40ebee: 45                           	incl	%ebp
  40ebef: 00 1a                        	addb	%bl, (%edx)
  40ebf1: 11 50 52                     	adcl	%edx, 82(%eax)
  40ebf4: 4f                           	decl	%edi
  40ebf5: 43                           	incl	%ebx
  40ebf6: 45                           	incl	%ebp
  40ebf7: 53                           	pushl	%ebx
  40ebf8: 53                           	pushl	%ebx
  40ebf9: 4f                           	decl	%edi
  40ebfa: 52                           	pushl	%edx
  40ebfb: 5f                           	popl	%edi
  40ebfc: 4b                           	decl	%ebx
  40ebfd: 36 00 1b                     	addb	%bl, %ss:(%ebx)
  40ec00: 11 50 52                     	adcl	%edx, 82(%eax)
  40ec03: 4f                           	decl	%edi
  40ec04: 43                           	incl	%ebx
  40ec05: 45                           	incl	%ebp
  40ec06: 53                           	pushl	%ebx
  40ec07: 53                           	pushl	%ebx
  40ec08: 4f                           	decl	%edi
  40ec09: 52                           	pushl	%edx
  40ec0a: 5f                           	popl	%edi
  40ec0b: 41                           	incl	%ecx
  40ec0c: 54                           	pushl	%esp
  40ec0d: 48                           	decl	%eax
  40ec0e: 4c                           	decl	%esp
  40ec0f: 4f                           	decl	%edi
  40ec10: 4e                           	decl	%esi
  40ec11: 00 1c 11                     	addb	%bl, (%ecx,%edx)
  40ec14: 50                           	pushl	%eax
  40ec15: 52                           	pushl	%edx
  40ec16: 4f                           	decl	%edi
  40ec17: 43                           	incl	%ebx
  40ec18: 45                           	incl	%ebp
  40ec19: 53                           	pushl	%ebx
  40ec1a: 53                           	pushl	%ebx
  40ec1b: 4f                           	decl	%edi
  40ec1c: 52                           	pushl	%edx
  40ec1d: 5f                           	popl	%edi
  40ec1e: 4b                           	decl	%ebx
  40ec1f: 38 00                        	cmpb	%al, (%eax)
  40ec21: 1d 11 50 52 4f               	sbbl	$1330794513, %eax
  40ec26: 43                           	incl	%ebx
  40ec27: 45                           	incl	%ebp
  40ec28: 53                           	pushl	%ebx
  40ec29: 53                           	pushl	%ebx
  40ec2a: 4f                           	decl	%edi
  40ec2b: 52                           	pushl	%edx
  40ec2c: 5f                           	popl	%edi
  40ec2d: 41                           	incl	%ecx
  40ec2e: 4d                           	decl	%ebp
  40ec2f: 44                           	incl	%esp
  40ec30: 46                           	incl	%esi
  40ec31: 41                           	incl	%ecx
  40ec32: 4d                           	decl	%ebp
  40ec33: 31 30                        	xorl	%esi, (%eax)
  40ec35: 00 1e                        	addb	%bl, (%esi)
  40ec37: 11 50 52                     	adcl	%edx, 82(%eax)
  40ec3a: 4f                           	decl	%edi
  40ec3b: 43                           	incl	%ebx
  40ec3c: 45                           	incl	%ebp
  40ec3d: 53                           	pushl	%ebx
  40ec3e: 53                           	pushl	%ebx
  40ec3f: 4f                           	decl	%edi
  40ec40: 52                           	pushl	%edx
  40ec41: 5f                           	popl	%edi
  40ec42: 42                           	incl	%edx
  40ec43: 44                           	incl	%esp
  40ec44: 56                           	pushl	%esi
  40ec45: 45                           	incl	%ebp
  40ec46: 52                           	pushl	%edx
  40ec47: 31 00                        	xorl	%eax, (%eax)
  40ec49: 1f                           	popl	%ds
  40ec4a: 11 50 52                     	adcl	%edx, 82(%eax)
  40ec4d: 4f                           	decl	%edi
  40ec4e: 43                           	incl	%ebx
  40ec4f: 45                           	incl	%ebp
  40ec50: 53                           	pushl	%ebx
  40ec51: 53                           	pushl	%ebx
  40ec52: 4f                           	decl	%edi
  40ec53: 52                           	pushl	%edx
  40ec54: 5f                           	popl	%edi
  40ec55: 42                           	incl	%edx
  40ec56: 44                           	incl	%esp
  40ec57: 56                           	pushl	%esi
  40ec58: 45                           	incl	%ebp
  40ec59: 52                           	pushl	%edx
  40ec5a: 32 00                        	xorb	(%eax), %al
  40ec5c: 20 11                        	andb	%dl, (%ecx)
  40ec5e: 50                           	pushl	%eax
  40ec5f: 52                           	pushl	%edx
  40ec60: 4f                           	decl	%edi
  40ec61: 43                           	incl	%ebx
  40ec62: 45                           	incl	%ebp
  40ec63: 53                           	pushl	%ebx
  40ec64: 53                           	pushl	%ebx
  40ec65: 4f                           	decl	%edi
  40ec66: 52                           	pushl	%edx
  40ec67: 5f                           	popl	%edi
  40ec68: 42                           	incl	%edx
  40ec69: 44                           	incl	%esp
  40ec6a: 56                           	pushl	%esi
  40ec6b: 45                           	incl	%ebp
  40ec6c: 52                           	pushl	%edx
  40ec6d: 33 00                        	xorl	(%eax), %eax
  40ec6f: 21 11                        	andl	%edx, (%ecx)
  40ec71: 50                           	pushl	%eax
  40ec72: 52                           	pushl	%edx
  40ec73: 4f                           	decl	%edi
  40ec74: 43                           	incl	%ebx
  40ec75: 45                           	incl	%ebp
  40ec76: 53                           	pushl	%ebx
  40ec77: 53                           	pushl	%ebx
  40ec78: 4f                           	decl	%edi
  40ec79: 52                           	pushl	%edx
  40ec7a: 5f                           	popl	%edi
  40ec7b: 42                           	incl	%edx
  40ec7c: 44                           	incl	%esp
  40ec7d: 56                           	pushl	%esi
  40ec7e: 45                           	incl	%ebp
  40ec7f: 52                           	pushl	%edx
  40ec80: 34 00                        	xorb	$0, %al
  40ec82: 22 11                        	andb	(%ecx), %dl
  40ec84: 50                           	pushl	%eax
  40ec85: 52                           	pushl	%edx
  40ec86: 4f                           	decl	%edi
  40ec87: 43                           	incl	%ebx
  40ec88: 45                           	incl	%ebp
  40ec89: 53                           	pushl	%ebx
  40ec8a: 53                           	pushl	%ebx
  40ec8b: 4f                           	decl	%edi
  40ec8c: 52                           	pushl	%edx
  40ec8d: 5f                           	popl	%edi
  40ec8e: 42                           	incl	%edx
  40ec8f: 54                           	pushl	%esp
  40ec90: 56                           	pushl	%esi
  40ec91: 45                           	incl	%ebp
  40ec92: 52                           	pushl	%edx
  40ec93: 31 00                        	xorl	%eax, (%eax)
  40ec95: 23 11                        	andl	(%ecx), %edx
  40ec97: 50                           	pushl	%eax
  40ec98: 52                           	pushl	%edx
  40ec99: 4f                           	decl	%edi
  40ec9a: 43                           	incl	%ebx
  40ec9b: 45                           	incl	%ebp
  40ec9c: 53                           	pushl	%ebx
  40ec9d: 53                           	pushl	%ebx
  40ec9e: 4f                           	decl	%edi
  40ec9f: 52                           	pushl	%edx
  40eca0: 5f                           	popl	%edi
  40eca1: 42                           	incl	%edx
  40eca2: 54                           	pushl	%esp
  40eca3: 56                           	pushl	%esi
  40eca4: 45                           	incl	%ebp
  40eca5: 52                           	pushl	%edx
  40eca6: 32 00                        	xorb	(%eax), %al
  40eca8: 24 11                        	andb	$17, %al
  40ecaa: 50                           	pushl	%eax
  40ecab: 52                           	pushl	%edx
  40ecac: 4f                           	decl	%edi
  40ecad: 43                           	incl	%ebx
  40ecae: 45                           	incl	%ebp
  40ecaf: 53                           	pushl	%ebx
  40ecb0: 53                           	pushl	%ebx
  40ecb1: 4f                           	decl	%edi
  40ecb2: 52                           	pushl	%edx
  40ecb3: 5f                           	popl	%edi
  40ecb4: 5a                           	popl	%edx
  40ecb5: 4e                           	decl	%esi
  40ecb6: 56                           	pushl	%esi
  40ecb7: 45                           	incl	%ebp
  40ecb8: 52                           	pushl	%edx
  40ecb9: 31 00                        	xorl	%eax, (%eax)
  40ecbb: 25 11 50 52 4f               	andl	$1330794513, %eax
  40ecc0: 43                           	incl	%ebx
  40ecc1: 45                           	incl	%ebp
  40ecc2: 53                           	pushl	%ebx
  40ecc3: 53                           	pushl	%ebx
  40ecc4: 4f                           	decl	%edi
  40ecc5: 52                           	pushl	%edx
  40ecc6: 5f                           	popl	%edi
  40ecc7: 5a                           	popl	%edx
  40ecc8: 4e                           	decl	%esi
  40ecc9: 56                           	pushl	%esi
  40ecca: 45                           	incl	%ebp
  40eccb: 52                           	pushl	%edx
  40eccc: 32 00                        	xorb	(%eax), %al
  40ecce: 26 11 50 52                  	adcl	%edx, %es:82(%eax)
  40ecd2: 4f                           	decl	%edi
  40ecd3: 43                           	incl	%ebx
  40ecd4: 45                           	incl	%ebp
  40ecd5: 53                           	pushl	%ebx
  40ecd6: 53                           	pushl	%ebx
  40ecd7: 4f                           	decl	%edi
  40ecd8: 52                           	pushl	%edx
  40ecd9: 5f                           	popl	%edi
  40ecda: 6d                           	insl	%dx, %es:(%edi)
  40ecdb: 61                           	popal
  40ecdc: 78 00                        	js	0x40ecde <.debug_info+0x1cb8>
  40ecde: 27                           	daa
  40ecdf: 00 0b                        	addb	%cl, (%ebx)
  40ece1: 69 78 38 36 5f 74 75         	imull	$1970560822, 56(%eax), %edi
  40ece8: 6e                           	outsb	(%esi), %dx
  40ece9: 65 00 07                     	addb	%al, %gs:(%edi)
  40ecec: 72 09                        	jb	0x40ecf7 <.debug_info+0x1cd1>
  40ecee: 1c 77                        	sbbb	$119, %al
  40ecf0: 19 00                        	sbbl	%eax, (%eax)
  40ecf2: 00 0b                        	addb	%cl, (%ebx)
  40ecf4: 69 78 38 36 5f 61 72         	imull	$1918983990, 56(%eax), %edi
  40ecfb: 63 68 00                     	arpl	%bp, (%eax)
  40ecfe: 07                           	popl	%es
  40ecff: 73 09                        	jae	0x40ed0a <.debug_info+0x1ce4>
  40ed01: 1c 77                        	sbbb	$119, %al
  40ed03: 19 00                        	sbbl	%eax, (%eax)
  40ed05: 00 0b                        	addb	%cl, (%ebx)
  40ed07: 69 78 38 36 5f 70 72         	imull	$1919967030, 56(%eax), %edi
  40ed0e: 65 66 65 72 72               	jb	0x40ed85 <.debug_info+0x1d5f>
  40ed13: 65 64 5f                     	popl	%edi
  40ed16: 73 74                        	jae	0x40ed8c <.debug_info+0x1d66>
  40ed18: 61                           	popal
  40ed19: 63 6b 5f                     	arpl	%bp, 95(%ebx)
  40ed1c: 62 6f 75                     	bound	%ebp, 117(%edi)
  40ed1f: 6e                           	outsb	(%esi), %dx
  40ed20: 64 61                        	popal
  40ed22: 72 79                        	jb	0x40ed9d <.debug_info+0x1d77>
  40ed24: 00 07                        	addb	%al, (%edi)
  40ed26: 7a 09                        	jp	0x40ed31 <.debug_info+0x1d0b>
  40ed28: 15 f1 00 00 00               	adcl	$241, %eax
  40ed2d: 0b 69 78                     	orl	120(%ecx), %ebp
  40ed30: 38 36                        	cmpb	%dh, (%esi)
  40ed32: 5f                           	popl	%edi
  40ed33: 69 6e 63 6f 6d 69 6e         	imull	$1852403055, 99(%esi), %ebp
  40ed3a: 67 5f                        	popl	%edi
  40ed3c: 73 74                        	jae	0x40edb2 <.debug_info+0x1d8c>
  40ed3e: 61                           	popal
  40ed3f: 63 6b 5f                     	arpl	%bp, 95(%ebx)
  40ed42: 62 6f 75                     	bound	%ebp, 117(%edi)
  40ed45: 6e                           	outsb	(%esi), %dx
  40ed46: 64 61                        	popal
  40ed48: 72 79                        	jb	0x40edc3 <.debug_info+0x1d9d>
  40ed4a: 00 07                        	addb	%al, (%edi)
  40ed4c: 7b 09                        	jnp	0x40ed57 <.debug_info+0x1d31>
  40ed4e: 15 f1 00 00 00               	adcl	$241, %eax
  40ed53: 08 08                        	orb	%cl, (%eax)
  40ed55: 19 00                        	sbbl	%eax, (%eax)
  40ed57: 00 3d 1d 00 00 0c            	addb	%bh, 201326621
  40ed5d: f1                           	<unknown>
  40ed5e: 00 00                        	addb	%al, (%eax)
  40ed60: 00 4b 00                     	addb	%cl, (%ebx)
  40ed63: 03 2d 1d 00 00 0b            	addl	184549405, %ebp
  40ed69: 72 65                        	jb	0x40edd0 <.debug_info+0x1daa>
  40ed6b: 67 63 6c 61                  	arpl	%bp, 97(%si)
  40ed6f: 73 73                        	jae	0x40ede4 <.debug_info+0x1dbe>
  40ed71: 5f                           	popl	%edi
  40ed72: 6d                           	insl	%dx, %es:(%edi)
  40ed73: 61                           	popal
  40ed74: 70 00                        	jo	0x40ed76 <.debug_info+0x1d50>
  40ed76: 07                           	popl	%es
  40ed77: 7e 09                        	jle	0x40ed82 <.debug_info+0x1d5c>
  40ed79: 1d 3d 1d 00 00               	sbbl	$7485, %eax
  40ed7e: 02 01                        	addb	(%ecx), %al
  40ed80: 06                           	pushl	%es
  40ed81: 73 69                        	jae	0x40edec <.debug_info+0x1dc6>
  40ed83: 67 6e                        	outsb	(%si), %dx
  40ed85: 65 64 20 63 68               	andb	%ah, %fs:104(%ebx)
  40ed8a: 61                           	popal
  40ed8b: 72 00                        	jb	0x40ed8d <.debug_info+0x1d67>
  40ed8d: 07                           	popl	%es
  40ed8e: 55                           	pushl	%ebp
  40ed8f: 51                           	pushl	%ecx
  40ed90: 49                           	decl	%ecx
  40ed91: 74 79                        	je	0x40ee0c <.debug_info+0x1de6>
  40ed93: 70 65                        	jo	0x40edfa <.debug_info+0x1dd4>
  40ed95: 00 09                        	addb	%cl, (%ecx)
  40ed97: 7b 16                        	jnp	0x40edaf <.debug_info+0x1d89>
  40ed99: 4d                           	decl	%ebp
  40ed9a: 04 00                        	addb	$0, %al
  40ed9c: 00 03                        	addb	%al, (%ebx)
  40ed9e: 67 1d 00 00 02 08            	sbbl	$134348800, %eax
  40eda4: 07                           	popl	%es
  40eda5: 6c                           	insb	%dx, %es:(%edi)
  40eda6: 6f                           	outsl	(%esi), %dx
  40eda7: 6e                           	outsb	(%esi), %dx
  40eda8: 67 20 6c 6f                  	andb	%ch, 111(%si)
  40edac: 6e                           	outsb	(%esi), %dx
  40edad: 67 20 75 6e                  	andb	%dh, 110(%di)
  40edb1: 73 69                        	jae	0x40ee1c <.debug_info+0x1df6>
  40edb3: 67 6e                        	outsb	(%si), %dx
  40edb5: 65 64 20 69 6e               	andb	%ch, %fs:110(%ecx)
  40edba: 74 00                        	je	0x40edbc <.debug_info+0x1d96>
  40edbc: 02 04 04                     	addb	(%esp,%eax), %al
  40edbf: 66 6c                        	insb	%dx, %es:(%edi)
  40edc1: 6f                           	outsl	(%esi), %dx
  40edc2: 61                           	popal
  40edc3: 74 00                        	je	0x40edc5 <.debug_info+0x1d9f>
  40edc5: 02 08                        	addb	(%eax), %cl
  40edc7: 03 63 6f                     	addl	111(%ebx), %esp
  40edca: 6d                           	insl	%dx, %es:(%edi)
  40edcb: 70 6c                        	jo	0x40ee39 <.debug_info+0x1e13>
  40edcd: 65 78 20                     	js	0x40edf0 <.debug_info+0x1dca>
  40edd0: 66 6c                        	insb	%dx, %es:(%edi)
  40edd2: 6f                           	outsl	(%esi), %dx
  40edd3: 61                           	popal
  40edd4: 74 00                        	je	0x40edd6 <.debug_info+0x1db0>
  40edd6: 02 08                        	addb	(%eax), %cl
  40edd8: 04 64                        	addb	$100, %al
  40edda: 6f                           	outsl	(%esi), %dx
  40eddb: 75 62                        	jne	0x40ee3f <.debug_info+0x1e19>
  40eddd: 6c                           	insb	%dx, %es:(%edi)
  40edde: 65 00 02                     	addb	%al, %gs:(%edx)
  40ede1: 10 03                        	adcb	%al, (%ebx)
  40ede3: 63 6f 6d                     	arpl	%bp, 109(%edi)
  40ede6: 70 6c                        	jo	0x40ee54 <.debug_info+0x1e2e>
  40ede8: 65 78 20                     	js	0x40ee0b <.debug_info+0x1de5>
  40edeb: 64 6f                        	outsl	%fs:(%esi), %dx
  40eded: 75 62                        	jne	0x40ee51 <.debug_info+0x1e2b>
  40edef: 6c                           	insb	%dx, %es:(%edi)
  40edf0: 65 00 02                     	addb	%al, %gs:(%edx)
  40edf3: 18 03                        	sbbb	%al, (%ebx)
  40edf5: 63 6f 6d                     	arpl	%bp, 109(%edi)
  40edf8: 70 6c                        	jo	0x40ee66 <.debug_info+0x1e40>
  40edfa: 65 78 20                     	js	0x40ee1d <.debug_info+0x1df7>
  40edfd: 6c                           	insb	%dx, %es:(%edi)
  40edfe: 6f                           	outsl	(%esi), %dx
  40edff: 6e                           	outsb	(%esi), %dx
  40ee00: 67 20 64 6f                  	andb	%ah, 111(%si)
  40ee04: 75 62                        	jne	0x40ee68 <.debug_info+0x1e42>
  40ee06: 6c                           	insb	%dx, %es:(%edi)
  40ee07: 65 00 02                     	addb	%al, %gs:(%edx)
  40ee0a: 20 03                        	andb	%al, (%ebx)
  40ee0c: 63 6f 6d                     	arpl	%bp, 109(%edi)
  40ee0f: 70 6c                        	jo	0x40ee7d <.debug_info+0x1e57>
  40ee11: 65 78 20                     	js	0x40ee34 <.debug_info+0x1e0e>
  40ee14: 5f                           	popl	%edi
  40ee15: 46                           	incl	%esi
  40ee16: 6c                           	insb	%dx, %es:(%edi)
  40ee17: 6f                           	outsl	(%esi), %dx
  40ee18: 61                           	popal
  40ee19: 74 31                        	je	0x40ee4c <.debug_info+0x1e26>
  40ee1b: 32 38                        	xorb	(%eax), %bh
  40ee1d: 00 08                        	addb	%cl, (%eax)
  40ee1f: 77 1d                        	ja	0x40ee3e <.debug_info+0x1e18>
  40ee21: 00 00                        	addb	%al, (%eax)
  40ee23: 08 1e                        	orb	%bl, (%esi)
  40ee25: 00 00                        	addb	%al, (%eax)
  40ee27: 0c f1                        	orb	$-15, %al
  40ee29: 00 00                        	addb	%al, (%eax)
  40ee2b: 00 ff                        	addb	%bh, %bh
  40ee2d: 00 03                        	addb	%al, (%ebx)
  40ee2f: f8                           	clc
  40ee30: 1d 00 00 0b 5f               	sbbl	$1594556416, %eax
  40ee35: 5f                           	popl	%edi
  40ee36: 70 6f                        	jo	0x40eea7 <.debug_info+0x1e81>
  40ee38: 70 63                        	jo	0x40ee9d <.debug_info+0x1e77>
  40ee3a: 6f                           	outsl	(%esi), %dx
  40ee3b: 75 6e                        	jne	0x40eeab <.debug_info+0x1e85>
  40ee3d: 74 5f                        	je	0x40ee9e <.debug_info+0x1e78>
  40ee3f: 74 61                        	je	0x40eea2 <.debug_info+0x1e7c>
  40ee41: 62 00                        	bound	%eax, (%eax)
  40ee43: 09 fc                        	orl	%edi, %esp
  40ee45: 01 16                        	addl	%edx, (%esi)
  40ee47: 08 1e                        	orb	%bl, (%esi)
  40ee49: 00 00                        	addb	%al, (%eax)
  40ee4b: 0b 5f 5f                     	orl	95(%edi), %ebx
  40ee4e: 63 6c 7a 5f                  	arpl	%bp, 95(%edx,%edi,2)
  40ee52: 74 61                        	je	0x40eeb5 <.debug_info+0x1e8f>
  40ee54: 62 00                        	bound	%eax, (%eax)
  40ee56: 09 02                        	orl	%eax, (%edx)
  40ee58: 02 16                        	addb	(%esi), %dl
  40ee5a: 08 1e                        	orb	%bl, (%esi)
  40ee5c: 00 00                        	addb	%al, (%eax)
  40ee5e: 07                           	popl	%es
  40ee5f: 66 75 6e                     	jne	0x40eed0 <.debug_info+0x1eaa>
  40ee62: 63 5f 70                     	arpl	%bx, 112(%edi)
  40ee65: 74 72                        	je	0x40eed9 <.debug_info+0x1eb3>
  40ee67: 00 0a                        	addb	%cl, (%edx)
  40ee69: 2a 10                        	subb	(%eax), %dl
  40ee6b: 49                           	decl	%ecx
  40ee6c: 1e                           	pushl	%ds
  40ee6d: 00 00                        	addb	%al, (%eax)
  40ee6f: 06                           	pushl	%es
  40ee70: 04 4f                        	addb	$79, %al
  40ee72: 1e                           	pushl	%ds
  40ee73: 00 00                        	addb	%al, (%eax)
  40ee75: 17                           	popl	%ss
  40ee76: 08 38                        	orb	%bh, (%eax)
  40ee78: 1e                           	pushl	%ds
  40ee79: 00 00                        	addb	%al, (%eax)
  40ee7b: 5b                           	popl	%ebx
  40ee7c: 1e                           	pushl	%ds
  40ee7d: 00 00                        	addb	%al, (%eax)
  40ee7f: 09 00                        	orl	%eax, (%eax)
  40ee81: 0a 5f 5f                     	orb	95(%edi), %bl
  40ee84: 43                           	incl	%ebx
  40ee85: 54                           	pushl	%esp
  40ee86: 4f                           	decl	%edi
  40ee87: 52                           	pushl	%edx
  40ee88: 5f                           	popl	%edi
  40ee89: 4c                           	decl	%esp
  40ee8a: 49                           	decl	%ecx
  40ee8b: 53                           	pushl	%ebx
  40ee8c: 54                           	pushl	%esp
  40ee8d: 5f                           	popl	%edi
  40ee8e: 5f                           	popl	%edi
  40ee8f: 00 0a                        	addb	%cl, (%edx)
  40ee91: 2f                           	das
  40ee92: 11 50 1e                     	adcl	%edx, 30(%eax)
  40ee95: 00 00                        	addb	%al, (%eax)
  40ee97: 0a 5f 5f                     	orb	95(%edi), %bl
  40ee9a: 44                           	incl	%esp
  40ee9b: 54                           	pushl	%esp
  40ee9c: 4f                           	decl	%edi
  40ee9d: 52                           	pushl	%edx
  40ee9e: 5f                           	popl	%edi
  40ee9f: 4c                           	decl	%esp
  40eea0: 49                           	decl	%ecx
  40eea1: 53                           	pushl	%ebx
  40eea2: 54                           	pushl	%esp
  40eea3: 5f                           	popl	%edi
  40eea4: 5f                           	popl	%edi
  40eea5: 00 0a                        	addb	%cl, (%edx)
  40eea7: 30 11                        	xorb	%dl, (%ecx)
  40eea9: 50                           	pushl	%eax
  40eeaa: 1e                           	pushl	%ds
  40eeab: 00 00                        	addb	%al, (%eax)
  40eead: 18 5b 1e                     	sbbb	%bl, 30(%ebx)
  40eeb0: 00 00                        	addb	%al, (%eax)
  40eeb2: 0b 36                        	orl	(%esi), %esi
  40eeb4: 09 0a                        	orl	%ecx, (%edx)
  40eeb6: 05 03 f0 3f 40               	addl	$1077932035, %eax
  40eebb: 00 18                        	addb	%bl, (%eax)
  40eebd: 71 1e                        	jno	0x40eedd <.debug_info+0x1eb7>
  40eebf: 00 00                        	addb	%al, (%eax)
  40eec1: 0b 37                        	orl	(%edi), %esi
  40eec3: 09 0a                        	orl	%ecx, (%edx)
  40eec5: 05 03 fc 3f 40               	addl	$1077935107, %eax
  40eeca: 00 00                        	addb	%al, (%eax)

Disassembly of section .debug_abbrev:

0040f000 <.debug_abbrev>:
  40f000: 01 11                        	addl	%edx, (%ecx)
  40f002: 00 10                        	addb	%dl, (%eax)
  40f004: 06                           	pushl	%es
  40f005: 11 01                        	adcl	%eax, (%ecx)
  40f007: 12 01                        	adcb	(%ecx), %al
  40f009: 03 0e                        	addl	(%esi), %ecx
  40f00b: 1b 0e                        	sbbl	(%esi), %ecx
  40f00d: 25 0e 13 05 00               	andl	$332558, %eax
  40f012: 00 00                        	addb	%al, (%eax)

0040f014 <.debug_abbrev>:
  40f014: 01 11                        	addl	%edx, (%ecx)
  40f016: 01 25 08 13 0b 03            	addl	%esp, 51057416
  40f01c: 08 1b                        	orb	%bl, (%ebx)
  40f01e: 08 10                        	orb	%dl, (%eax)
  40f020: 17                           	popl	%ss
  40f021: 00 00                        	addb	%al, (%eax)
  40f023: 02 24 00                     	addb	(%eax,%eax), %ah
  40f026: 0b 0b                        	orl	(%ebx), %ecx
  40f028: 3e 0b 03                     	orl	%ds:(%ebx), %eax
  40f02b: 08 00                        	orb	%al, (%eax)
  40f02d: 00 03                        	addb	%al, (%ebx)
  40f02f: 26 00 49 13                  	addb	%cl, %es:19(%ecx)
  40f033: 00 00                        	addb	%al, (%eax)
  40f035: 04 13                        	addb	$19, %al
  40f037: 01 03                        	addl	%eax, (%ebx)
  40f039: 08 0b                        	orb	%cl, (%ebx)
  40f03b: 0b 3a                        	orl	(%edx), %edi
  40f03d: 0b 3b                        	orl	(%ebx), %edi
  40f03f: 0b 39                        	orl	(%ecx), %edi
  40f041: 0b 01                        	orl	(%ecx), %eax
  40f043: 13 00                        	adcl	(%eax), %eax
  40f045: 00 05 0d 00 03 08            	addb	%al, 134414349
  40f04b: 3a 0b                        	cmpb	(%ebx), %cl
  40f04d: 3b 0b                        	cmpl	(%ebx), %ecx
  40f04f: 39 0b                        	cmpl	%ecx, (%ebx)
  40f051: 49                           	decl	%ecx
  40f052: 13 38                        	adcl	(%eax), %edi
  40f054: 0b 00                        	orl	(%eax), %eax
  40f056: 00 06                        	addb	%al, (%esi)
  40f058: 0f 00 0b                     	strw	(%ebx)
  40f05b: 0b 49 13                     	orl	19(%ecx), %ecx
  40f05e: 00 00                        	addb	%al, (%eax)
  40f060: 07                           	popl	%es
  40f061: 16                           	pushl	%ss
  40f062: 00 03                        	addb	%al, (%ebx)
  40f064: 08 3a                        	orb	%bh, (%edx)
  40f066: 0b 3b                        	orl	(%ebx), %edi
  40f068: 0b 39                        	orl	(%ecx), %edi
  40f06a: 0b 49 13                     	orl	19(%ecx), %ecx
  40f06d: 00 00                        	addb	%al, (%eax)
  40f06f: 08 01                        	orb	%al, (%ecx)
  40f071: 01 49 13                     	addl	%ecx, 19(%ecx)
  40f074: 01 13                        	addl	%edx, (%ebx)
  40f076: 00 00                        	addb	%al, (%eax)
  40f078: 09 21                        	orl	%esp, (%ecx)
  40f07a: 00 00                        	addb	%al, (%eax)
  40f07c: 00 0a                        	addb	%cl, (%edx)
  40f07e: 34 00                        	xorb	$0, %al
  40f080: 03 08                        	addl	(%eax), %ecx
  40f082: 3a 0b                        	cmpb	(%ebx), %cl
  40f084: 3b 0b                        	cmpl	(%ebx), %ecx
  40f086: 39 0b                        	cmpl	%ecx, (%ebx)
  40f088: 49                           	decl	%ecx
  40f089: 13 3f                        	adcl	(%edi), %edi
  40f08b: 19 3c 19                     	sbbl	%edi, (%ecx,%ebx)
  40f08e: 00 00                        	addb	%al, (%eax)
  40f090: 0b 34 00                     	orl	(%eax,%eax), %esi
  40f093: 03 08                        	addl	(%eax), %ecx
  40f095: 3a 0b                        	cmpb	(%ebx), %cl
  40f097: 3b 05 39 0b 49 13            	cmpl	323554105, %eax
  40f09d: 3f                           	aas
  40f09e: 19 3c 19                     	sbbl	%edi, (%ecx,%ebx)
  40f0a1: 00 00                        	addb	%al, (%eax)
  40f0a3: 0c 21                        	orb	$33, %al
  40f0a5: 00 49 13                     	addb	%cl, 19(%ecx)
  40f0a8: 2f                           	das
  40f0a9: 0b 00                        	orl	(%eax), %eax
  40f0ab: 00 0d 15 01 27 19            	addb	%cl, 421986581
  40f0b1: 49                           	decl	%ecx
  40f0b2: 13 01                        	adcl	(%ecx), %eax
  40f0b4: 13 00                        	adcl	(%eax), %eax
  40f0b6: 00 0e                        	addb	%cl, (%esi)
  40f0b8: 05 00 49 13 00               	addl	$1263872, %eax
  40f0bd: 00 0f                        	addb	%cl, (%edi)
  40f0bf: 26 00 00                     	addb	%al, %es:(%eax)
  40f0c2: 00 10                        	addb	%dl, (%eax)
  40f0c4: 04 01                        	addb	$1, %al
  40f0c6: 03 08                        	addl	(%eax), %ecx
  40f0c8: 3e 0b 0b                     	orl	%ds:(%ebx), %ecx
  40f0cb: 0b 49 13                     	orl	19(%ecx), %ecx
  40f0ce: 3a 0b                        	cmpb	(%ebx), %cl
  40f0d0: 3b 0b                        	cmpl	(%ebx), %ecx
  40f0d2: 39 0b                        	cmpl	%ecx, (%ebx)
  40f0d4: 01 13                        	addl	%edx, (%ebx)
  40f0d6: 00 00                        	addb	%al, (%eax)
  40f0d8: 11 28                        	adcl	%ebp, (%eax)
  40f0da: 00 03                        	addb	%al, (%ebx)
  40f0dc: 08 1c 0b                     	orb	%bl, (%ebx,%ecx)
  40f0df: 00 00                        	addb	%al, (%eax)
  40f0e1: 12 13                        	adcb	(%ebx), %dl
  40f0e3: 01 03                        	addl	%eax, (%ebx)
  40f0e5: 08 0b                        	orb	%cl, (%ebx)
  40f0e7: 05 3a 0b 3b 0b               	addl	$188418874, %eax
  40f0ec: 39 0b                        	cmpl	%ecx, (%ebx)
  40f0ee: 01 13                        	addl	%edx, (%ebx)
  40f0f0: 00 00                        	addb	%al, (%eax)
  40f0f2: 13 0d 00 03 08 3a            	adcl	973603584, %ecx
  40f0f8: 0b 3b                        	orl	(%ebx), %edi
  40f0fa: 05 39 0b 49 13               	addl	$323554105, %eax
  40f0ff: 38 0b                        	cmpb	%cl, (%ebx)
  40f101: 00 00                        	addb	%al, (%eax)
  40f103: 14 0d                        	adcb	$13, %al
  40f105: 00 03                        	addb	%al, (%ebx)
  40f107: 08 3a                        	orb	%bh, (%edx)
  40f109: 0b 3b                        	orl	(%ebx), %edi
  40f10b: 05 39 0b 49 13               	addl	$323554105, %eax
  40f110: 38 05 00 00 15 04            	cmpb	%al, 68485120
  40f116: 01 03                        	addl	%eax, (%ebx)
  40f118: 08 3e                        	orb	%bh, (%esi)
  40f11a: 0b 0b                        	orl	(%ebx), %ecx
  40f11c: 0b 49 13                     	orl	19(%ecx), %ecx
  40f11f: 3a 0b                        	cmpb	(%ebx), %cl
  40f121: 3b 05 39 0b 01 13            	cmpl	318835513, %eax
  40f127: 00 00                        	addb	%al, (%eax)
  40f129: 16                           	pushl	%ss
  40f12a: 17                           	popl	%ss
  40f12b: 00 03                        	addb	%al, (%ebx)
  40f12d: 08 3c 19                     	orb	%bh, (%ecx,%ebx)
  40f130: 00 00                        	addb	%al, (%eax)
  40f132: 17                           	popl	%ss
  40f133: 15 00 27 19 00               	adcl	$1648384, %eax
  40f138: 00 18                        	addb	%bl, (%eax)
  40f13a: 34 00                        	xorb	$0, %al
  40f13c: 47                           	incl	%edi
  40f13d: 13 3a                        	adcl	(%edx), %edi
  40f13f: 0b 3b                        	orl	(%ebx), %edi
  40f141: 05 39 0b 02 18               	addl	$402787129, %eax
  40f146: 00 00                        	addb	%al, (%eax)
  40f148: 00                           	<unknown>

Disassembly of section .debug_line:

00410000 <.debug_line>:
  410000: 6d                           	insl	%dx, %es:(%edi)
  410001: 00 00                        	addb	%al, (%eax)
  410003: 00 03                        	addb	%al, (%ebx)
  410005: 00 49 00                     	addb	%cl, (%ecx)
  410008: 00 00                        	addb	%al, (%eax)
  41000a: 01 01                        	addl	%eax, (%ecx)
  41000c: fb                           	sti
  41000d: 0e                           	pushl	%cs
  41000e: 0d 00 01 01 01               	orl	$16843008, %eax
  410013: 01 00                        	addl	%eax, (%eax)
  410015: 00 00                        	addb	%al, (%eax)
  410017: 01 00                        	addl	%eax, (%eax)
  410019: 00 01                        	addb	%al, (%ecx)
  41001b: 2e 2e 2f                     	das
  41001e: 2e 2e 2f                     	das
  410021: 2e 2e 2f                     	das
  410024: 73 72                        	jae	0x410098 <.debug_line+0x27>
  410026: 63 2f                        	arpl	%bp, (%edi)
  410028: 67 63 63 2d                  	arpl	%sp, 45(%bp,%di)
  41002c: 39 2e                        	cmpl	%ebp, (%esi)
  41002e: 32 2e                        	xorb	(%esi), %ch
  410030: 30 2f                        	xorb	%ch, (%edi)
  410032: 6c                           	insb	%dx, %es:(%edi)
  410033: 69 62 67 63 63 2f 63         	imull	$1664050019, 103(%edx), %esp
  41003a: 6f                           	outsl	(%esi), %dx
  41003b: 6e                           	outsb	(%esi), %dx
  41003c: 66 69 67 2f 69 33            	imulw	$13161, 47(%edi), %sp
  410042: 38 36                        	cmpb	%dh, (%esi)
  410044: 00 00                        	addb	%al, (%eax)
  410046: 63 79 67                     	arpl	%di, 103(%ecx)
  410049: 77 69                        	ja	0x4100b4 <.debug_line+0x43>
  41004b: 6e                           	outsb	(%esi), %dx
  41004c: 2e 53                        	pushl	%ebx
  41004e: 00 01                        	addb	%al, (%ecx)
  410050: 00 00                        	addb	%al, (%eax)
  410052: 00 00                        	addb	%al, (%eax)
  410054: 05 02 30 3e 40               	addl	$1077817346, %eax
  410059: 00 03                        	addb	%al, (%ebx)
  41005b: 8e 01                        	movw	(%ecx), %es
  41005d: 01 22                        	addl	%esp, (%edx)
  41005f: 22 59 4b                     	andb	75(%ecx), %bl
  410062: 30 67 3d                     	xorb	%ah, 61(%edi)
  410065: 59                           	popl	%ecx
  410066: 59                           	popl	%ecx
  410067: 30 2f                        	xorb	%ch, (%edi)
  410069: 3e 22 22                     	andb	%ds:(%edx), %ah
  41006c: 02 01                        	addb	(%ecx), %al
  41006e: 00 01                        	addb	%al, (%ecx)
  410070: 01 53 01                     	addl	%edx, 1(%ebx)

00410071 <.debug_line>:
  410071: 53                           	pushl	%ebx
  410072: 01 00                        	addl	%eax, (%eax)
  410074: 00 03                        	addb	%al, (%ebx)
  410076: 00 4d 01                     	addb	%cl, 1(%ebp)
  410079: 00 00                        	addb	%al, (%eax)
  41007b: 01 01                        	addl	%eax, (%ecx)
  41007d: fb                           	sti
  41007e: 0e                           	pushl	%cs
  41007f: 0d 00 01 01 01               	orl	$16843008, %eax
  410084: 01 00                        	addl	%eax, (%eax)
  410086: 00 00                        	addb	%al, (%eax)
  410088: 01 00                        	addl	%eax, (%eax)
  41008a: 00 01                        	addb	%al, (%ecx)
  41008c: 2f                           	das
  41008d: 68 6f 6d 65 2f               	pushl	$795176303
  410092: 6b 65 69 74                  	imull	$116, 105(%ebp), %esp
  410096: 68 2f 6d 69 6e               	pushl	$1852402991
  41009b: 67 77 33                     	ja	0x4100d1 <.debug_line+0x60>
  41009e: 32 2d 67 63 63 2d            	xorb	761488231, %ch
  4100a4: 39 2e                        	cmpl	%ebp, (%esi)
  4100a6: 32 2e                        	xorb	(%esi), %ch
  4100a8: 30 2f                        	xorb	%ch, (%edi)
  4100aa: 69 6e 63 6c 75 64 65         	imull	$1701082476, 99(%esi), %ebp
  4100b1: 00 2e                        	addb	%ch, (%esi)
  4100b3: 2e 2f                        	das
  4100b5: 2e 2e 2f                     	das
  4100b8: 2e 2e 2f                     	das
  4100bb: 73 72                        	jae	0x41012f <.debug_line+0xbe>
  4100bd: 63 2f                        	arpl	%bp, (%edi)
  4100bf: 67 63 63 2d                  	arpl	%sp, 45(%bp,%di)
  4100c3: 39 2e                        	cmpl	%ebp, (%esi)
  4100c5: 32 2e                        	xorb	(%esi), %ch
  4100c7: 30 2f                        	xorb	%ch, (%edi)
  4100c9: 6c                           	insb	%dx, %es:(%edi)
  4100ca: 69 62 67 63 63 2f 2e         	imull	$774857571, 103(%edx), %esp
  4100d1: 2e 2f                        	das
  4100d3: 69 6e 63 6c 75 64 65         	imull	$1701082476, 99(%esi), %ebp
  4100da: 00 2e                        	addb	%ch, (%esi)
  4100dc: 2e 2f                        	das
  4100de: 2e 2e 2f                     	das
  4100e1: 2e 2f                        	das
  4100e3: 67 63 63 00                  	arpl	%sp, (%bp,%di)
  4100e7: 2e 2e 2f                     	das
  4100ea: 2e 2e 2f                     	das
  4100ed: 2e 2e 2f                     	das
  4100f0: 73 72                        	jae	0x410164 <.debug_line+0xf3>
  4100f2: 63 2f                        	arpl	%bp, (%edi)
  4100f4: 67 63 63 2d                  	arpl	%sp, 45(%bp,%di)
  4100f8: 39 2e                        	cmpl	%ebp, (%esi)
  4100fa: 32 2e                        	xorb	(%esi), %ch
  4100fc: 30 2f                        	xorb	%ch, (%edi)
  4100fe: 6c                           	insb	%dx, %es:(%edi)
  4100ff: 69 62 67 63 63 2f 2e         	imull	$774857571, 103(%edx), %esp
  410106: 2e 2f                        	das
  410108: 67 63 63 2f                  	arpl	%sp, 47(%bp,%di)
  41010c: 63 6f 6e                     	arpl	%bp, 110(%edi)
  41010f: 66 69 67 2f 69 33            	imulw	$13161, 47(%edi), %sp
  410115: 38 36                        	cmpb	%dh, (%esi)
  410117: 00 2e                        	addb	%ch, (%esi)
  410119: 2e 2f                        	das
  41011b: 2e 2e 2f                     	das
  41011e: 2e 2e 2f                     	das
  410121: 73 72                        	jae	0x410195 <.debug_line+0x124>
  410123: 63 2f                        	arpl	%bp, (%edi)
  410125: 67 63 63 2d                  	arpl	%sp, 45(%bp,%di)
  410129: 39 2e                        	cmpl	%ebp, (%esi)
  41012b: 32 2e                        	xorb	(%esi), %ch
  41012d: 30 2f                        	xorb	%ch, (%edi)
  41012f: 6c                           	insb	%dx, %es:(%edi)
  410130: 69 62 67 63 63 00 00         	imull	$25443, 103(%edx), %esp
  410137: 73 74                        	jae	0x4101ad <.debug_line+0x13c>
  410139: 64 69 6f 2e 68 00 01 00      	imull	$65640, %fs:46(%edi), %ebp
  410141: 00 73 74                     	addb	%dh, 116(%ebx)
  410144: 64 6c                        	insb	%dx, %es:(%edi)
  410146: 69 62 2e 68 00 01 00         	imull	$65640, 46(%edx), %esp
  41014d: 00 67 65                     	addb	%ah, 101(%edi)
  410150: 74 6f                        	je	0x4101c1 <.debug_line+0x150>
  410152: 70 74                        	jo	0x4101c8 <.debug_line+0x157>
  410154: 2e 68 00 01 00 00            	pushl	$256
  41015a: 74 69                        	je	0x4101c5 <.debug_line+0x154>
  41015c: 6d                           	insl	%dx, %es:(%edi)
  41015d: 65 2e 68 00 01 00 00         	pushl	$256
  410164: 68 61 73 68 74               	pushl	$1953002337
  410169: 61                           	popal
  41016a: 62 2e                        	bound	%ebp, (%esi)
  41016c: 68 00 02 00 00               	pushl	$512
  410171: 69 6e 73 6e 2d 63 6f         	imull	$1868770670, 115(%esi), %ebp
  410178: 6e                           	outsb	(%esi), %dx
  410179: 73 74                        	jae	0x4101ef <.debug_line+0x17e>
  41017b: 61                           	popal
  41017c: 6e                           	outsb	(%esi), %dx
  41017d: 74 73                        	je	0x4101f2 <.debug_line+0x181>
  41017f: 2e 68 00 03 00 00            	pushl	$768
  410185: 69 33 38 36 2e 68            	imull	$1747859000, (%ebx), %esi
  41018b: 00 04 00                     	addb	%al, (%eax,%eax)
  41018e: 00 69 33                     	addb	%ch, 51(%ecx)
  410191: 38 36                        	cmpb	%dh, (%esi)
  410193: 2d 6f 70 74 73               	subl	$1937010799, %eax
  410198: 2e 68 00 04 00 00            	pushl	$1024
  41019e: 6c                           	insb	%dx, %es:(%edi)
  41019f: 69 62 67 63 63 32 2e         	imull	$775054179, 103(%edx), %esp
  4101a6: 68 00 05 00 00               	pushl	$1280
  4101ab: 67 62 6c 2d                  	bound	%ebp, 45(%si)
  4101af: 63 74 6f 72                  	arpl	%si, 114(%edi,%ebp,2)
  4101b3: 73 2e                        	jae	0x4101e3 <.debug_line+0x172>
  4101b5: 68 00 05 00 00               	pushl	$1280
  4101ba: 6c                           	insb	%dx, %es:(%edi)
  4101bb: 69 62 67 63 63 32 2e         	imull	$775054179, 103(%edx), %esp
  4101c2: 63 00                        	arpl	%ax, (%eax)
  4101c4: 05                           	<unknown>
  4101c5: 00 00                        	addb	%al, (%eax)
  4101c7: 00                           	<unknown>

Disassembly of section .debug_frame:

00411000 <.debug_frame>:
  411000: 10 00                        	adcb	%al, (%eax)
  411002: 00 00                        	addb	%al, (%eax)
  411004: ff ff                        	<unknown>
  411006: ff ff                        	<unknown>
  411008: 01 00                        	addl	%eax, (%eax)
  41100a: 01 7c 08 0c                  	addl	%edi, 12(%eax,%ecx)
  41100e: 04 04                        	addb	$4, %al
  411010: 88 01                        	movb	%al, (%ecx)
  411012: 00 00                        	addb	%al, (%eax)
  411014: 20 00                        	andb	%al, (%eax)
  411016: 00 00                        	addb	%al, (%eax)
  411018: 00 00                        	addb	%al, (%eax)
  41101a: 00 00                        	addb	%al, (%eax)
  41101c: 30 3e                        	xorb	%bh, (%esi)
  41101e: 40                           	incl	%eax
  41101f: 00 2a                        	addb	%ch, (%edx)
  411021: 00 00                        	addb	%al, (%eax)
  411023: 00 41 0e                     	addb	%al, 14(%ecx)
  411026: 08 81 02 41 0e 0c            	orb	%al, 202260738(%ecx)
  41102c: 80 03 66                     	addb	$102, (%ebx)
  41102f: 0e                           	pushl	%cs
  411030: 08 c0                        	orb	%al, %al
  411032: 41                           	incl	%ecx
  411033: 0e                           	pushl	%cs
  411034: 04 c1                        	addb	$-63, %al
  411036: 00 00                        	addb	%al, (%eax)

Disassembly of section .debug_str:

00412000 <.debug_str>:
  412000: 2e 2e 2f                     	das
  412003: 2e 2e 2f                     	das
  412006: 2e 2e 2f                     	das
  412009: 73 72                        	jae	0x41207d <.debug_str+0x7d>
  41200b: 63 2f                        	arpl	%bp, (%edi)
  41200d: 67 63 63 2d                  	arpl	%sp, 45(%bp,%di)
  412011: 39 2e                        	cmpl	%ebp, (%esi)
  412013: 32 2e                        	xorb	(%esi), %ch
  412015: 30 2f                        	xorb	%ch, (%edi)
  412017: 6c                           	insb	%dx, %es:(%edi)
  412018: 69 62 67 63 63 2f 63         	imull	$1664050019, 103(%edx), %esp
  41201f: 6f                           	outsl	(%esi), %dx
  412020: 6e                           	outsb	(%esi), %dx
  412021: 66 69 67 2f 69 33            	imulw	$13161, 47(%edi), %sp
  412027: 38 36                        	cmpb	%dh, (%esi)
  412029: 2f                           	das
  41202a: 63 79 67                     	arpl	%di, 103(%ecx)
  41202d: 77 69                        	ja	0x412098 <.debug_str+0x98>
  41202f: 6e                           	outsb	(%esi), %dx
  412030: 2e 53                        	pushl	%ebx
  412032: 00 2f                        	addb	%ch, (%edi)
  412034: 68 6f 6d 65 2f               	pushl	$795176303
  412039: 6b 65 69 74                  	imull	$116, 105(%ebp), %esp
  41203d: 68 2f 62 75 69               	pushl	$1769300527
  412042: 6c                           	insb	%dx, %es:(%edi)
  412043: 64 73 2f                     	jae	0x412075 <.debug_str+0x75>
  412046: 6d                           	insl	%dx, %es:(%edi)
  412047: 69 6e 67 77 2f 67 63         	imull	$1667706743, 103(%esi), %ebp
  41204e: 63 2d 39 2e 32 2e            	arpl	%bp, 775040569
  412054: 30 2d 6d 69 6e 67            	xorb	%ch, 1735289197
  41205a: 77 33                        	ja	0x41208f <.debug_str+0x8f>
  41205c: 32 2d 63 72 6f 73            	xorb	1936683619, %ch
  412062: 73 2d                        	jae	0x412091 <.debug_str+0x91>
  412064: 6e                           	outsb	(%esi), %dx
  412065: 61                           	popal
  412066: 74 69                        	je	0x4120d1 <.debug_str+0xd1>
  412068: 76 65                        	jbe	0x4120cf <.debug_str+0xcf>
  41206a: 2f                           	das
  41206b: 6d                           	insl	%dx, %es:(%edi)
  41206c: 69 6e 67 77 33 32 2f         	imull	$791819127, 103(%esi), %ebp
  412073: 6c                           	insb	%dx, %es:(%edi)
  412074: 69 62 67 63 63 00 47         	imull	$1191207779, 103(%edx), %esp
  41207b: 4e                           	decl	%esi
  41207c: 55                           	pushl	%ebp
  41207d: 20 41 53                     	andb	%al, 83(%ecx)
  412080: 20 32                        	andb	%dh, (%edx)
  412082: 2e 33 32                     	xorl	%cs:(%edx), %esi
  412085: 00                           	<unknown>
